File: Scarab, Resource 9, Type: CODE
First jump table entry offset = $8388, Jump table entries used = 60
Segment size = $2626 [9766]


Jump Table 173:
(func extern benchmark)
00000000: 4E56 0000       'NV..'          LINK     A6,#$0000           
00000004: 206E 0008       ' n..'          MOVEA.L  $0008(A6),A0        
00000008: 4A28 0006       'J(..'          TST.B    $0006(A0)           
0000000C: 6618            'f.'            BNE.S    *+$001A             ; 00000026
0000000E: 206E 0008       ' n..'          MOVEA.L  $0008(A6),A0        
00000012: 117C 0001 0006  '.|....'        MOVE.B   #$01,$0006(A0)      
00000018: 7032            'p2'            MOVEQ    #$32,D0             ; '2'
0000001A: D1AD 9676       '...v'          ADD.L    D0,-$698A(A5)       
0000001E: 4267            'Bg'            CLR.W    -(A7)               
00000020: 4EBA 157E       'N..~'          JSR      *+$1580             ; HeroStatus()
00000024: 548F            'T.'            ADDQ.L   #$2,A7              
00000026: 4E5E            'N^'            UNLK     A6                  
00000028: 4E75            'Nu'            RTS                          
---
0000002A: 8962            '.b'            OR.W     D4,-(A2)            
0000002C: 656E            'en'            BCS.S    *+$0070             ; 0000009C
0000002E: 6368            'ch'            BLS.S    *+$006A             ; 00000098
00000030: 6D61            'ma'            BLT.S    *+$0063             ; 00000093
00000032: 726B            'rk'            MOVEQ    #$6B,D1             ; 'k'
00000034: 0000


Jump Table 172:
(func extern CanPickUp)
00000036: 4E56 FFF6       'NV..'          LINK     A6,#$FFF6           
0000003A: 4AAD F91E       'J...'          TST.L    -$06E2(A5)          
0000003E: 6616            'f.'            BNE.S    *+$0018             ; 00000056
00000040: 2F2D E8B2       '/-..'          MOVE.L   -$174E(A5),-(A7)    
00000044: 3F3C 0007       '?<..'          MOVE.W   #$0007,-(A7)        
00000048: 486E FFF6       'Hn..'          PEA      -$000A(A6)          
0000004C: 486D F91E       'Hm..'          PEA      -$06E2(A5)          
00000050: 486E FFF8       'Hn..'          PEA      -$0008(A6)          
00000054: A98D            '..'            _GetDItem                     ; A98D
00000056: 4878 1000       'Hx..'          PEA      $1000               
0000005A: 302E 0008       '0...'          MOVE.W   $0008(A6),D0        
0000005E: 48C0            'H.'            EXT.L    D0                  
00000060: E988            '..'            LSL.L    #$4,D0              
00000062: 204D            ' M'            MOVEA.L  A5,A0               
00000064: D1C0            '..'            ADDA.L   D0,A0               
00000066: 2F28 C740       '/(.@'          MOVE.L   -$38C0(A0),-(A7)    
0000006A: 4EAD 00EA       'N...'          JSR      $00EA(A5)           ; FlagInList()
0000006E: 4A80            'J.'            TST.L    D0                  
00000070: 508F            'P.'            ADDQ.L   #$8,A7              
00000072: 670A            'g.'            BEQ.S    *+$000C             ; 0000007E
00000074: 2F2D F91E       '/-..'          MOVE.L   -$06E2(A5),-(A7)    
00000078: 4267            'Bg'            CLR.W    -(A7)               
0000007A: A95D            '.]'            _HiliteControl                     ; A95D
0000007C: 600A            '`.'            BRA.S    *+$000C             ; 00000088
0000007E: 2F2D F91E       '/-..'          MOVE.L   -$06E2(A5),-(A7)    
00000082: 3F3C 00FF       '?<..'          MOVE.W   #$00FF,-(A7)        
00000086: A95D            '.]'            _HiliteControl                     ; A95D
00000088: 4E5E            'N^'            UNLK     A6                  
0000008A: 4E75            'Nu'            RTS                          
---
0000008C: 8943 616E       '.Can'          PACK     D3,D4,#$616E        
00000090: 5069 636B       'Pick'          ADDQ.W   #$8,$636B(A1)       
00000094: 5570 0000       'Up..'          SUBQ.W   #$2,$00(A0,D0.W)    

Jump Table 114:
(func extern GoDir)
00000098: 4E56 0000       'NV..'          LINK     A6,#$0000           
0000009C: 2F07            '/.'            MOVE.L   D7,-(A7)            
0000009E: 3E2E 0008       '>...'          MOVE.W   $0008(A6),D7        
000000A2: 302E 000A       '0...'          MOVE.W   $000A(A6),D0        
000000A6: 0C40 0008       '.@..'          CMPI.W   #$0008,D0           
000000AA: 6228            'b('            BHI.S    *+$002A             ; 000000D4
000000AC: 43FA 0036       'C..6'          LEA      *+$0038,A1          ; 000000E4
000000B0: D040            '.@'            ADD.W    D0,D0               
000000B2: D2F1 0000       '....'          ADDA.W   $00(A1,D0.W),A1     
000000B6: 4ED1            'N.'            JMP      (A1)                ; switch jump
000000B8: 3007            '0.'            MOVE.W   D7,D0               
000000BA: 906D 968C       '.m..'          SUB.W    -$6974(A5),D0       
000000BE: 6016            '`.'            BRA.S    *+$0018             ; 000000D6
000000C0: 302D 968C       '0-..'          MOVE.W   -$6974(A5),D0       
000000C4: D047            '.G'            ADD.W    D7,D0               
000000C6: 600E            '`.'            BRA.S    *+$0010             ; 000000D6
000000C8: 7001            'p.'            MOVEQ    #$01,D0             
000000CA: D047            '.G'            ADD.W    D7,D0               
000000CC: 6008            '`.'            BRA.S    *+$000A             ; 000000D6
000000CE: 70FF            'p.'            MOVEQ    #$FF,D0             
000000D0: D047            '.G'            ADD.W    D7,D0               
000000D2: 6002            '`.'            BRA.S    *+$0004             ; 000000D6
000000D4: 7000            'p.'            MOVEQ    #$00,D0             
000000D6: 2E1F            '..'            MOVE.L   (A7)+,D7            
000000D8: 4E5E            'N^'            UNLK     A6                  
000000DA: 4E75            'Nu'            RTS                          
---
000000DC: 8547 6F44       '.GoD'          PACK     D7,D2,#$6F44        
000000E0: 6972            'ir'            BVS.S    *+$0074             ; 00000154
000000E2: 0012            '..'
---
000000E4: FFF0            '..'            DC.W     $FFF0               ; ????
000000E6: FFD4            '..'            DC.W     $FFD4               ; ????
000000E8: FFE4            '..'            DC.W     $FFE4               ; ????
000000EA: FFF0            '..'            DC.W     $FFF0               ; ????
000000EC: FFEA            '..'            DC.W     $FFEA               ; ????
000000EE: FFF0            '..'            DC.W     $FFF0               ; ????
000000F0: FFF0            '..'            DC.W     $FFF0               ; ????
000000F2: FFF0            '..'            DC.W     $FFF0               ; ????
000000F4: FFDC            '..'            DC.W     $FFDC               ; ????

Jump Table 115:
(func extern InBounds)
000000F6: 4E56 0000       'NV..'          LINK     A6,#$0000           
000000FA: 2F07            '/.'            MOVE.L   D7,-(A7)            
000000FC: 3E2E 0008       '>...'          MOVE.W   $0008(A6),D7        
00000100: 302E 000A       '0...'          MOVE.W   $000A(A6),D0        
00000104: 0C40 0008       '.@..'          CMPI.W   #$0008,D0           
00000108: 625A            'bZ'            BHI.S    *+$005C             ; 00000164
0000010A: 43FA 006A       'C..j'          LEA      *+$006C,A1          ; 00000176
0000010E: D040            '.@'            ADD.W    D0,D0               
00000110: D2F1 0000       '....'          ADDA.W   $00(A1,D0.W),A1     
00000114: 4ED1            'N.'            JMP      (A1)                ; switch jump
00000116: BE6D 968C       '.m..'          CMP.W    -$6974(A5),D7       
0000011A: 5CC0            '\.'            SGE      D0                  
0000011C: 4400            'D.'            NEG.B    D0                  
0000011E: 4880            'H.'            EXT.W    D0                  
00000120: 6042            '`B'            BRA.S    *+$0044             ; 00000164
00000122: 302D 968C       '0-..'          MOVE.W   -$6974(A5),D0       
00000126: C1ED 968E       '....'          MULS.W   -$6972(A5),D0       
0000012A: 906D 968C       '.m..'          SUB.W    -$6974(A5),D0       
0000012E: B047            '.G'            CMP.W    D7,D0               
00000130: 5EC0            '^.'            SGT      D0                  
00000132: 4400            'D.'            NEG.B    D0                  
00000134: 4880            'H.'            EXT.W    D0                  
00000136: 602C            '`,'            BRA.S    *+$002E             ; 00000164
00000138: 2007            ' .'            MOVE.L   D7,D0               
0000013A: 48C0            'H.'            EXT.L    D0                  
0000013C: 81ED 968C       '....'          DIVS.W   -$6974(A5),D0       
00000140: 4840            'H@'            SWAP     D0                  
00000142: 72FF            'r.'            MOVEQ    #$FF,D1             
00000144: D26D 968C       '.m..'          ADD.W    -$6974(A5),D1       
00000148: B240            '.@'            CMP.W    D0,D1               
0000014A: 56C0            'V.'            SNE      D0                  
0000014C: 4400            'D.'            NEG.B    D0                  
0000014E: 4880            'H.'            EXT.W    D0                  
00000150: 6012            '`.'            BRA.S    *+$0014             ; 00000164
00000152: 2007            ' .'            MOVE.L   D7,D0               
00000154: 48C0            'H.'            EXT.L    D0                  
00000156: 81ED 968C       '....'          DIVS.W   -$6974(A5),D0       
0000015A: 4840            'H@'            SWAP     D0                  
0000015C: 4A40            'J@'            TST.W    D0                  
0000015E: 56C0            'V.'            SNE      D0                  
00000160: 4400            'D.'            NEG.B    D0                  
00000162: 4880            'H.'            EXT.W    D0                  
00000164: 2E1F            '..'            MOVE.L   (A7)+,D7            
00000166: 4E5E            'N^'            UNLK     A6                  
00000168: 4E75            'Nu'            RTS                          
---
0000016A: 8849            '.I'            OR.W     A1,D4               
0000016C: 6E42            'nB'            BGT.S    *+$0044             ; 000001B0
0000016E: 6F75            'ou'            BLE.S    *+$0077             ; 000001E5
00000170: 6E64            'nd'            BGT.S    *+$0066             ; 000001D6
00000172: 7300            's.'            DC.W     $7300               ; ????
00000174: 0012            '..
---
00000176: FFEE            '..'            DC.W     $FFEE               ; ????
00000178: FFA0            '..'            DC.W     $FFA0               ; ????
0000017A: FFC2            '..'            DC.W     $FFC2               ; ????
0000017C: FFEE            '..'            DC.W     $FFEE               ; ????
0000017E: FFDC            '..'            DC.W     $FFDC               ; ????
00000180: FFEE            '..'            DC.W     $FFEE               ; ????
00000182: FFEE            '..'            DC.W     $FFEE               ; ????
00000184: FFEE            '..'            DC.W     $FFEE               ; ????
00000186: FFAC            '..'            DC.W     $FFAC               ; ????


Jump Table 116:
(func extern leftof)
00000188: 4E56 0000       'NV..'          LINK     A6,#$0000           
0000018C: 302E 0008       '0...'          MOVE.W   $0008(A6),D0        
00000190: 0C40 0008       '.@..'          CMPI.W   #$0008,D0           
00000194: 621A            'b.'            BHI.S    *+$001C             ; 000001B0
00000196: 43FA 0026       'C..&'          LEA      *+$0028,A1          ; 000001BE
0000019A: D040            '.@'            ADD.W    D0,D0               
0000019C: D2F1 0000       '....'          ADDA.W   $00(A1,D0.W),A1     
000001A0: 4ED1            'N.'            JMP      (A1)                ; switch jump
000001A2: 7004            'p.'            MOVEQ    #$04,D0             
000001A4: 600A            '`.'            BRA.S    *+$000C             ; 000001B0
000001A6: 7008            'p.'            MOVEQ    #$08,D0             
000001A8: 6006            '`.'            BRA.S    *+$0008             ; 000001B0
000001AA: 7002            'p.'            MOVEQ    #$02,D0             
000001AC: 6002            '`.'            BRA.S    *+$0004             ; 000001B0
000001AE: 7001            'p.'            MOVEQ    #$01,D0             
000001B0: 4E5E            'N^'            UNLK     A6                  
000001B2: 4E75            'Nu'            RTS                          
---
000001B4: 866C 6566       '.lef'          OR.W     $6566(A4),D3        
000001B8: 746F            'to'            MOVEQ    #$6F,D2             ; 'o'
000001BA: 6600 0012       'f...'          BNE      *+$0014             ; 000001CE
---
000001BE: FFF2            '..'            DC.W     $FFF2               ; ????
000001C0: FFE4            '..'            DC.W     $FFE4               ; ????
000001C2: FFF0            '..'            DC.W     $FFF0               ; ????
000001C4: FFF2            '..'            DC.W     $FFF2               ; ????
000001C6: FFE8            '..'            DC.W     $FFE8               ; ????
000001C8: FFF2            '..'            DC.W     $FFF2               ; ????
000001CA: FFF2            '..'            DC.W     $FFF2               ; ????
000001CC: FFF2            '..'            DC.W     $FFF2               ; ????
000001CE: FFEC            '..'            DC.W     $FFEC               ; ????


Jump Table 117:
(func extern rightof)
000001D0: 4E56 0000       'NV..'          LINK     A6,#$0000           
000001D4: 302E 0008       '0...'          MOVE.W   $0008(A6),D0        
000001D8: 0C40 0008       '.@..'          CMPI.W   #$0008,D0           
000001DC: 621A            'b.'            BHI.S    *+$001C             ; 000001F8
000001DE: 43FA 0026       'C..&'          LEA      *+$0028,A1          ; 00000206
000001E2: D040            '.@'            ADD.W    D0,D0               
000001E4: D2F1 0000       '....'          ADDA.W   $00(A1,D0.W),A1     
000001E8: 4ED1            'N.'            JMP      (A1)                ; switch jump
000001EA: 7002            'p.'            MOVEQ    #$02,D0             
000001EC: 600A            '`.'            BRA.S    *+$000C             ; 000001F8
000001EE: 7008            'p.'            MOVEQ    #$08,D0             
000001F0: 6006            '`.'            BRA.S    *+$0008             ; 000001F8
000001F2: 7004            'p.'            MOVEQ    #$04,D0             
000001F4: 6002            '`.'            BRA.S    *+$0004             ; 000001F8
000001F6: 7001            'p.'            MOVEQ    #$01,D0             
000001F8: 4E5E            'N^'            UNLK     A6                  
000001FA: 4E75            'Nu'            RTS                          
---
000001FC: 8772            '.r'            DC.W     $8772               ; ????
000001FE: 6967            'ig'            BVS.S    *+$0069             ; 00000267
00000200: 6874            'ht'            BVC.S    *+$0076             ; 00000276
00000202: 6F66            'of'            BLE.S    *+$0068             ; 0000026A
00000204: 0012            '..'
---
00000206: FFF2            '..'            DC.W     $FFF2               ; ????
00000208: FFE4            '..'            DC.W     $FFE4               ; ????
0000020A: FFE8            '..'            DC.W     $FFE8               ; ????
0000020C: FFF2            '..'            DC.W     $FFF2               ; ????
0000020E: FFF0            '..'            DC.W     $FFF0               ; ????
00000210: FFF2            '..'            DC.W     $FFF2               ; ????
00000212: FFF2            '..'            DC.W     $FFF2               ; ????
00000214: FFF2            '..'            DC.W     $FFF2               ; ????
00000216: FFEC            '..'            DC.W     $FFEC               ; ????


Jump Table 118:
(func extern reverseof)
00000218: 4E56 0000       'NV..'          LINK     A6,#$0000           
0000021C: 302E 0008       '0...'          MOVE.W   $0008(A6),D0        
00000220: 0C40 0008       '.@..'          CMPI.W   #$0008,D0           
00000224: 621A            'b.'            BHI.S    *+$001C             ; 00000240
00000226: 43FA 0028       'C..('          LEA      *+$002A,A1          ; 00000250
0000022A: D040            '.@'            ADD.W    D0,D0               
0000022C: D2F1 0000       '....'          ADDA.W   $00(A1,D0.W),A1     
00000230: 4ED1            'N.'            JMP      (A1)                ; switch jump
00000232: 7008            'p.'            MOVEQ    #$08,D0             
00000234: 600A            '`.'            BRA.S    *+$000C             ; 00000240
00000236: 7001            'p.'            MOVEQ    #$01,D0             
00000238: 6006            '`.'            BRA.S    *+$0008             ; 00000240
0000023A: 7004            'p.'            MOVEQ    #$04,D0             
0000023C: 6002            '`.'            BRA.S    *+$0004             ; 00000240
0000023E: 7002            'p.'            MOVEQ    #$02,D0             
00000240: 4E5E            'N^'            UNLK     A6                  
00000242: 4E75            'Nu'            RTS                          
---
00000244: 8972            '.r'            DC.W     $8972               ; ????
00000246: 6576            'ev'            BCS.S    *+$0078             ; 000002BE
00000248: 6572            'er'            BCS.S    *+$0074             ; GetAmount()
0000024A: 7365            'se'            DC.W     $7365               ; ????
0000024C: 6F66            'of'            BLE.S    *+$0068             ; 000002B4
0000024E: 0012            '..'
---
00000250: FFF0            '..'            DC.W     $FFF0               ; ????
00000252: FFE2            '..'            DC.W     $FFE2               ; ????
00000254: FFEA            '..'            DC.W     $FFEA               ; ????
00000256: FFF0            '..'            DC.W     $FFF0               ; ????
00000258: FFEE            '..'            DC.W     $FFEE               ; ????
0000025A: FFF0            '..'            DC.W     $FFF0               ; ????
0000025C: FFF0            '..'            DC.W     $FFF0               ; ????
0000025E: FFF0            '..'            DC.W     $FFF0               ; ????
00000260: FFE6            '..'            DC.W     $FFE6               ; ????


Jump Table 119:
(func extern randdir)
00000262: 4E56 FFFC       'NV..'          LINK     A6,#$FFFC           
00000266: 3F3C 0064       '?<.d'          MOVE.W   #$0064,-(A7)        
0000026A: 4EBA 2150       'N.!P'          JSR      *+$2152             ; rand()
0000026E: B06E 000A       '.n..'          CMP.W    $000A(A6),D0        
00000272: 548F            'T.'            ADDQ.L   #$2,A7              
00000274: 6C06            'l.'            BGE.S    *+$0008             ; 0000027C
00000276: 302E 0008       '0...'          MOVE.W   $0008(A6),D0        
0000027A: 6012            '`.'            BRA.S    *+$0014             ; 0000028E
0000027C: 3F3C 0004       '?<..'          MOVE.W   #$0004,-(A7)        
00000280: 4EBA 213A       'N.!:'          JSR      *+$213C             ; rand()
00000284: 204D            ' M'            MOVEA.L  A5,A0               
00000286: D0C0            '..'            ADDA.W   D0,A0               
00000288: D0C0            '..'            ADDA.W   D0,A0               
0000028A: 3028 F922       '0(."'          MOVE.W   -$06DE(A0),D0       
0000028E: 4E5E            'N^'            UNLK     A6                  
00000290: 4E75            'Nu'            RTS                          
---
00000292: 8772            '.r'            DC.W     $8772               ; ????
00000294: 616E            'an'            BSR.S    *+$0070             ; 00000304
00000296: 6464            'dd'            BCC.S    *+$0066             ; 000002FC
00000298: 6972            'ir'            BVS.S    *+$0074             ; 0000030C
0000029A: 0000


Jump Table 169:
(func extern howmuch)
0000029C: 4E56 0000       'NV..'          LINK     A6,#$0000           
000002A0: 3F2E 0008       '?...'          MOVE.W   $0008(A6),-(A7)     
000002A4: 2F3C 0000 167C  '/<...|'        MOVE.L   #$0000167C,-(A7)    
000002AA: 4EBA 0010       'N...'          JSR      *+$0012             ; GetAmount()
000002AE: 4E5E            'N^'            UNLK     A6                  
000002B0: 4E75            'Nu'            RTS                          
---
000002B2: 8768 6F77       '.how'          OR.W     D3,$6F77(A0)        
000002B6: 6D75            'mu'            BLT.S    *+$0077             ; 0000032D
000002B8: 6368            'ch'            BLS.S    *+$006A             ; 00000322
000002BA: 0000


Jump Table 170:
(func extern GetAmount)
000002BC: 4E56 FE46       'NV.F'          LINK     A6,#$FE46          
000002BE: FE46            '.F'            DC.W     $FE46               ; ????
000002C0: 48E7 0308       'H...'          MOVEM.L  D6/D7/A4,-(A7)      
000002C4: 3E2E 000C       '>...'          MOVE.W   $000C(A6),D7        
000002C8: 3C07            '<.'            MOVE.W   D7,D6               
000002CA: 4A47            'JG'            TST.W    D7                  
000002CC: 6606            'f.'            BNE.S    *+$0008             ; 000002D4
000002CE: 7000            'p.'            MOVEQ    #$00,D0             
000002D0: 6000 01FE       '`...'          BRA      *+$0200             ; 000004D0
000002D4: 2F2E 0008       '/...'          MOVE.L   $0008(A6),-(A7)     
000002D8: 2F3C 0000 1686  '/<....'        MOVE.L   #$00001686,-(A7)    
000002DE: 2F3C 0000 1688  '/<....'        MOVE.L   #$00001688,-(A7)    
000002E4: 2F3C 0000 168A  '/<....'        MOVE.L   #$0000168A,-(A7)    
000002EA: A98B            '..'            _ParamText                     ; A98B
000002EC: 42A7            'B.'            CLR.L    -(A7)               
000002EE: 3F3C 2466       '?<$f'          MOVE.W   #$2466,-(A7)        ; '$f'
000002F2: 486E FF56       'Hn.V'          PEA      -$00AA(A6)          
000002F6: 4878 FFFF       'Hx..'          PEA      $FFFF               
000002FA: A97C            '.|'            _GetNewDialog                     ; A97C
000002FC: 285F            '(_'            MOVEA.L  (A7)+,A4            
000002FE: 2F0C            '/.'            MOVE.L   A4,-(A7)            
00000300: 4EBA 0F6A       'N..j'          JSR      *+$0F6C             ; OutlineButton()
00000304: 2E8C            '..'            MOVE.L   A4,(A7)             
00000306: 3F3C 0004       '?<..'          MOVE.W   #$0004,-(A7)        
0000030A: 486E FF46       'Hn.F'          PEA      -$00BA(A6)          
0000030E: 486E FF52       'Hn.R'          PEA      -$00AE(A6)          
00000312: 486E FF4A       'Hn.J'          PEA      -$00B6(A6)          
00000316: A98D            '..'            _GetDItem                     ; A98D
00000318: 3F3C 0001       '?<..'          MOVE.W   #$0001,-(A7)        
0000031C: 2F2E FF52       '/..R'          MOVE.L   -$00AE(A6),-(A7)    
00000320: 2F0C            '/.'            MOVE.L   A4,-(A7)            
00000322: 3F07            '?.'            MOVE.W   D7,-(A7)            
00000324: 4EBA 01BE       'N...'          JSR      *+$01C0             ; SetDefAmount()
00000328: 4FEF 000C       'O...'          LEA      $000C(A7),A7        
0000032C: 42A7            'B.'            CLR.L    -(A7)               
0000032E: 486E FF48       'Hn.H'          PEA      -$00B8(A6)          
00000332: A991            '..'            _ModalDialog                     ; A991
00000334: 0C6E 0005 FF48  '.n...H'        CMPI.W   #$0005,-$00B8(A6)   
0000033A: 6600 0096       'f...'          BNE      *+$0098             ; 000003D2
0000033E: 2F0C            '/.'            MOVE.L   A4,-(A7)            
00000340: 3F3C 0004       '?<..'          MOVE.W   #$0004,-(A7)        
00000344: 486E FF46       'Hn.F'          PEA      -$00BA(A6)          
00000348: 486E FF52       'Hn.R'          PEA      -$00AE(A6)          
0000034C: 486E FF4A       'Hn.J'          PEA      -$00B6(A6)          
00000350: A98D            '..'            _GetDItem                     ; A98D
00000352: 2F2E FF52       '/..R'          MOVE.L   -$00AE(A6),-(A7)    
00000356: 486E FE46       'Hn.F'          PEA      -$01BA(A6)          
0000035A: A990            '..'            _GetIText                     ; A990
0000035C: 7000            'p.'            MOVEQ    #$00,D0             
0000035E: 102E FE46       '...F'          MOVE.B   -$01BA(A6),D0       
00000362: 204E            ' N'            MOVEA.L  A6,A0               
00000364: D0C0            '..'            ADDA.W   D0,A0               
00000366: 4228 FE47       'B(.G'          CLR.B    -$01B9(A0)          
0000036A: 486E FE47       'Hn.G'          PEA      -$01B9(A6)          
0000036E: 4EBA 1C58       'N..X'          JSR      *+$1C5A             ; atoi()
00000372: 3C00            '<.'            MOVE.W   D0,D6               
00000374: BE46            '.F'            CMP.W    D6,D7               
00000376: 588F            'X.'            ADDQ.L   #$4,A7              
00000378: 6F00 0106       'o...'          BLE      *+$0108             ; 00000480
0000037C: 2F0C            '/.'            MOVE.L   A4,-(A7)            
0000037E: 3F2E FF48       '?..H'          MOVE.W   -$00B8(A6),-(A7)    
00000382: 4EAD 01DA       'N...'          JSR      $01DA(A5)           ; FlashButton()
00000386: 5246            'RF'            ADDQ.W   #$1,D6              
00000388: 4257            'BW'            CLR.W    (A7)                
0000038A: 2F2E FF52       '/..R'          MOVE.L   -$00AE(A6),-(A7)    
0000038E: 2F0C            '/.'            MOVE.L   A4,-(A7)            
00000390: 3F06            '?.'            MOVE.W   D6,-(A7)            
00000392: 4EBA 0150       'N..P'          JSR      *+$0152             ; SetDefAmount()
00000396: 4FEF 0010       'O...'          LEA      $0010(A7),A7        
0000039A: 6014            '`.'            BRA.S    *+$0016             ; 000003B0
0000039C: 5246            'RF'            ADDQ.W   #$1,D6              
0000039E: 4267            'Bg'            CLR.W    -(A7)               
000003A0: 2F2E FF52       '/..R'          MOVE.L   -$00AE(A6),-(A7)    
000003A4: 2F0C            '/.'            MOVE.L   A4,-(A7)            
000003A6: 3F06            '?.'            MOVE.W   D6,-(A7)            
000003A8: 4EBA 013A       'N..:'          JSR      *+$013C             ; SetDefAmount()
000003AC: 4FEF 000C       'O...'          LEA      $000C(A7),A7        
000003B0: BE46            '.F'            CMP.W    D6,D7               
000003B2: 6F0E            'o.'            BLE.S    *+$0010             ; 000003C2
000003B4: 4878 000A       'Hx..'          PEA      $000A               
000003B8: 4EBA 0194       'N...'          JSR      *+$0196             ; WaitForMouseUp()
000003BC: 4A40            'J@'            TST.W    D0                  
000003BE: 588F            'X.'            ADDQ.L   #$4,A7              
000003C0: 66DA            'f.'            BNE.S    *-$0024             ; 0000039C
000003C2: 2F0C            '/.'            MOVE.L   A4,-(A7)            
000003C4: 3F2E FF48       '?..H'          MOVE.W   -$00B8(A6),-(A7)    
000003C8: 4EAD 01DA       'N...'          JSR      $01DA(A5)           ; FlashButton()
000003CC: 5C8F            '\.'            ADDQ.L   #$6,A7              
000003CE: 6000 00B0       '`...'          BRA      *+$00B2             ; 00000480
000003D2: 0C6E 0006 FF48  '.n...H'        CMPI.W   #$0006,-$00B8(A6)   
000003D8: 6600 0096       'f...'          BNE      *+$0098             ; 00000470
000003DC: 2F0C            '/.'            MOVE.L   A4,-(A7)            
000003DE: 3F3C 0004       '?<..'          MOVE.W   #$0004,-(A7)        
000003E2: 486E FF46       'Hn.F'          PEA      -$00BA(A6)          
000003E6: 486E FF52       'Hn.R'          PEA      -$00AE(A6)          
000003EA: 486E FF4A       'Hn.J'          PEA      -$00B6(A6)          
000003EE: A98D            '..'            _GetDItem                     ; A98D
000003F0: 2F2E FF52       '/..R'          MOVE.L   -$00AE(A6),-(A7)    
000003F4: 486E FE46       'Hn.F'          PEA      -$01BA(A6)          
000003F8: A990            '..'            _GetIText                     ; A990
000003FA: 7000            'p.'            MOVEQ    #$00,D0             
000003FC: 102E FE46       '...F'          MOVE.B   -$01BA(A6),D0       
00000400: 204E            ' N'            MOVEA.L  A6,A0               
00000402: D0C0            '..'            ADDA.W   D0,A0               
00000404: 4228 FE47       'B(.G'          CLR.B    -$01B9(A0)          
00000408: 486E FE47       'Hn.G'          PEA      -$01B9(A6)          
0000040C: 4EBA 1BBA       'N...'          JSR      *+$1BBC             ; atoi()
00000410: 3C00            '<.'            MOVE.W   D0,D6               
00000412: 0C46 0001       '.F..'          CMPI.W   #$0001,D6           
00000416: 588F            'X.'            ADDQ.L   #$4,A7              
00000418: 6F66            'of'            BLE.S    *+$0068             ; 00000480
0000041A: 2F0C            '/.'            MOVE.L   A4,-(A7)            
0000041C: 3F2E FF48       '?..H'          MOVE.W   -$00B8(A6),-(A7)    
00000420: 4EAD 01DA       'N...'          JSR      $01DA(A5)           ; FlashButton()
00000424: 5346            'SF'            SUBQ.W   #$1,D6              
00000426: 4257            'BW'            CLR.W    (A7)                
00000428: 2F2E FF52       '/..R'          MOVE.L   -$00AE(A6),-(A7)    
0000042C: 2F0C            '/.'            MOVE.L   A4,-(A7)            
0000042E: 3F06            '?.'            MOVE.W   D6,-(A7)            
00000430: 4EBA 00B2       'N...'          JSR      *+$00B4             ; SetDefAmount()
00000434: 4FEF 0010       'O...'          LEA      $0010(A7),A7        
00000438: 6014            '`.'            BRA.S    *+$0016             ; 0000044E
0000043A: 5346            'SF'            SUBQ.W   #$1,D6              
0000043C: 4267            'Bg'            CLR.W    -(A7)               
0000043E: 2F2E FF52       '/..R'          MOVE.L   -$00AE(A6),-(A7)    
00000442: 2F0C            '/.'            MOVE.L   A4,-(A7)            
00000444: 3F06            '?.'            MOVE.W   D6,-(A7)            
00000446: 4EBA 009C       'N...'          JSR      *+$009E             ; SetDefAmount()
0000044A: 4FEF 000C       'O...'          LEA      $000C(A7),A7        
0000044E: 0C46 0001       '.F..'          CMPI.W   #$0001,D6           
00000452: 6F0E            'o.'            BLE.S    *+$0010             ; 00000462
00000454: 4878 000A       'Hx..'          PEA      $000A               
00000458: 4EBA 00F4       'N...'          JSR      *+$00F6             ; WaitForMouseUp()
0000045C: 4A40            'J@'            TST.W    D0                  
0000045E: 588F            'X.'            ADDQ.L   #$4,A7              
00000460: 66D8            'f.'            BNE.S    *-$0026             ; 0000043A
00000462: 2F0C            '/.'            MOVE.L   A4,-(A7)            
00000464: 3F2E FF48       '?..H'          MOVE.W   -$00B8(A6),-(A7)    
00000468: 4EAD 01DA       'N...'          JSR      $01DA(A5)           ; FlashButton()
0000046C: 5C8F            '\.'            ADDQ.L   #$6,A7              
0000046E: 6010            '`.'            BRA.S    *+$0012             ; 00000480
00000470: 0C6E 0002 FF48  '.n...H'        CMPI.W   #$0002,-$00B8(A6)   
00000476: 6608            'f.'            BNE.S    *+$000A             ; 00000480
00000478: 2F0C            '/.'            MOVE.L   A4,-(A7)            
0000047A: A982            '..'            _CloseDialog                     ; A982
0000047C: 7000            'p.'            MOVEQ    #$00,D0             
0000047E: 6050            '`P'            BRA.S    *+$0052             ; 000004D0
00000480: 0C6E 0001 FF48  '.n...H'        CMPI.W   #$0001,-$00B8(A6)   
00000486: 6600 FEA4       'f...'          BNE      *-$015A             ; 0000032C
0000048A: 2F0C            '/.'            MOVE.L   A4,-(A7)            
0000048C: 3F3C 0004       '?<..'          MOVE.W   #$0004,-(A7)        
00000490: 486E FF46       'Hn.F'          PEA      -$00BA(A6)          
00000494: 486E FF52       'Hn.R'          PEA      -$00AE(A6)          
00000498: 486E FF4A       'Hn.J'          PEA      -$00B6(A6)          
0000049C: A98D            '..'            _GetDItem                     ; A98D
0000049E: 2F2E FF52       '/..R'          MOVE.L   -$00AE(A6),-(A7)    
000004A2: 486E FE46       'Hn.F'          PEA      -$01BA(A6)          
000004A6: A990            '..'            _GetIText                     ; A990
000004A8: 7000            'p.'            MOVEQ    #$00,D0             
000004AA: 102E FE46       '...F'          MOVE.B   -$01BA(A6),D0       
000004AE: 204E            ' N'            MOVEA.L  A6,A0               
000004B0: D0C0            '..'            ADDA.W   D0,A0               
000004B2: 4228 FE47       'B(.G'          CLR.B    -$01B9(A0)          
000004B6: 2F0C            '/.'            MOVE.L   A4,-(A7)            
000004B8: A982            '..'            _CloseDialog                     ; A982
000004BA: 486E FE47       'Hn.G'          PEA      -$01B9(A6)          
000004BE: 4EBA 1B08       'N...'          JSR      *+$1B0A             ; atoi()
000004C2: 3C00            '<.'            MOVE.W   D0,D6               
000004C4: 4A46            'JF'            TST.W    D6                  
000004C6: 588F            'X.'            ADDQ.L   #$4,A7              
000004C8: 6C04            'l.'            BGE.S    *+$0006             ; 000004CE
000004CA: 7000            'p.'            MOVEQ    #$00,D0             
000004CC: 6002            '`.'            BRA.S    *+$0004             ; 000004D0
000004CE: 3006            '0.'            MOVE.W   D6,D0               
000004D0: 4CDF 10C0       'L...'          MOVEM.L  (A7)+,D6/D7/A4      
000004D4: 4E5E            'N^'            UNLK     A6                  
000004D6: 4E75            'Nu'            RTS                          
---
000004D8: 8947 6574       '.Get'          PACK     D7,D4,#$6574        
000004DC: 416D            'Am'            DC.W     $416D               ; ????
000004DE: 6F75            'ou'            BLE.S    *+$0077             ; 00000555
000004E0: 6E74            'nt'            BGT.S    *+$0076             ; 00000556
000004E2: 0000

(func intern SetDefAmount)
000004E4: 4E56 FFF2       'NV..'          LINK     A6,#$FFF2           
000004E8: 422E FFF3       'B...'          CLR.B    -$000D(A6)          
000004EC: 306E 0008       '0n..'          MOVEA.W  $0008(A6),A0        
000004F0: 2F08            '/.'            MOVE.L   A0,-(A7)            
000004F2: 4EBA 1D94       'N...'          JSR      *+$1D96             ; i2d()
000004F6: 2E80            '..'            MOVE.L   D0,(A7)             
000004F8: 486E FFF3       'Hn..'          PEA      -$000D(A6)          
000004FC: 4EBA 19FC       'N...'          JSR      *+$19FE             ; strcat()
00000500: 486E FFF3       'Hn..'          PEA      -$000D(A6)          
00000504: 4EBA 18D4       'N...'          JSR      *+$18D6             ; strlen()
00000508: 1D40 FFF2       '.@..'          MOVE.B   D0,-$000E(A6)       
0000050C: 2EAE 000E       '....'          MOVE.L   $000E(A6),(A7)      
00000510: 486E FFF2       'Hn..'          PEA      -$000E(A6)          
00000514: A98F            '..'            _SetIText                     ; A98F
00000516: 4A2E 0013       'J...'          TST.B    $0013(A6)           
0000051A: 508F            'P.'            ADDQ.L   #$8,A7              
0000051C: 6710            'g.'            BEQ.S    *+$0012             ; 0000052E
0000051E: 2F2E 000A       '/...'          MOVE.L   $000A(A6),-(A7)     
00000522: 4878 0004       'Hx..'          PEA      $0004               
00000526: 3F3C 7FFF       '?<..'          MOVE.W   #$7FFF,-(A7)        
0000052A: A97E            '.~'            _SelIText                     ; A97E
0000052C: 600C            '`.'            BRA.S    *+$000E             ; 0000053A
0000052E: 2F2E 000A       '/...'          MOVE.L   $000A(A6),-(A7)     
00000532: 4878 0004       'Hx..'          PEA      $0004               
00000536: 4267            'Bg'            CLR.W    -(A7)               
00000538: A97E            '.~'            _SelIText                     ; A97E
0000053A: 4E5E            'N^'            UNLK     A6                  
0000053C: 4E75            'Nu'            RTS                          
---
0000053E: 8C53            '.S'            OR.W     (A3),D6             
00000540: 6574            'et'            BCS.S    *+$0076             ; 000005B6
00000542: 4465            'De'            NEG.W    -(A5)               
00000544: 6641            'fA'            BNE.S    *+$0043             ; 00000587
00000546: 6D6F            'mo'            BLT.S    *+$0071             ; 000005B7
00000548: 756E            'un'            DC.W     $756E               ; ????
0000054A: 7400            't.'            MOVEQ    #$00,D2             
0000054C: 0000


Jump Table 171:
(func extern WaitForMouseUp)
0000054E: 4E56 FFEC       'NV..'          LINK     A6,#$FFEC           
00000552: 2F07            '/.'            MOVE.L   D7,-(A7)            
00000554: 42A7            'B.'            CLR.L    -(A7)               
00000556: A975            '.u'            _TickCount                     ; A975
00000558: 2E1F            '..'            MOVE.L   (A7)+,D7            
0000055A: 42A7            'B.'            CLR.L    -(A7)               
0000055C: A975            '.u'            _TickCount                     ; A975
0000055E: 201F            ' .'            MOVE.L   (A7)+,D0            
00000560: 2D40 FFEC       '-@..'          MOVE.L   D0,-$0014(A6)       
00000564: 2207            '".'            MOVE.L   D7,D1               
00000566: D2AE 0008       '....'          ADD.L    $0008(A6),D1        
0000056A: B280            '..'            CMP.L    D0,D1               
0000056C: 6F46            'oF'            BLE.S    *+$0048             ; 000005B4
0000056E: 4A2D 966C       'J-.l'          TST.B    -$6994(A5)          
00000572: 6602            'f.'            BNE.S    *+$0004             ; 00000576
00000574: A9B4            '..'            _SystemTask                     ; A9B4
00000576: 4A2D 966C       'J-.l'          TST.B    -$6994(A5)          
0000057A: 6718            'g.'            BEQ.S    *+$001A             ; 00000594
0000057C: 4227            'B''            CLR.B    -(A7)               
0000057E: 3F3C 0014       '?<..'          MOVE.W   #$0014,-(A7)        
00000582: 486E FFF0       'Hn..'          PEA      -$0010(A6)          
00000586: 4878 001E       'Hx..'          PEA      $001E               
0000058A: 42A7            'B.'            CLR.L    -(A7)               
0000058C: A860            '.`'            _WaitNextEvent                     ; A860
0000058E: 7000            'p.'            MOVEQ    #$00,D0             
00000590: 101F            '..'            MOVE.B   (A7)+,D0            
00000592: 6010            '`.'            BRA.S    *+$0012             ; 000005A4
00000594: 4227            'B''            CLR.B    -(A7)               
00000596: 3F3C 0014       '?<..'          MOVE.W   #$0014,-(A7)        
0000059A: 486E FFF0       'Hn..'          PEA      -$0010(A6)          
0000059E: A970            '.p'            _GetNextEvent                     ; A970
000005A0: 7000            'p.'            MOVEQ    #$00,D0             
000005A2: 101F            '..'            MOVE.B   (A7)+,D0            
000005A4: 4A40            'J@'            TST.W    D0                  
000005A6: 67B2            'g.'            BEQ.S    *-$004C             ; 0000055A
000005A8: 4227            'B''            CLR.B    -(A7)               
000005AA: A973            '.s'            _StillDown                     ; A973
000005AC: 4A1F            'J.'            TST.B    (A7)+               
000005AE: 66AA            'f.'            BNE.S    *-$0054             ; 0000055A
000005B0: 7000            'p.'            MOVEQ    #$00,D0             
000005B2: 6002            '`.'            BRA.S    *+$0004             ; 000005B6
000005B4: 7001            'p.'            MOVEQ    #$01,D0             
000005B6: 2E1F            '..'            MOVE.L   (A7)+,D7            
000005B8: 4E5E            'N^'            UNLK     A6                  
000005BA: 4E75            'Nu'            RTS                          
---
000005BC: 8E57            '.W'            OR.W     (A7),D7             
000005BE: 6169            'ai'            BSR.S    *+$006B             ; 00000629
000005C0: 7446            'tF'            MOVEQ    #$46,D2             ; 'F'
000005C2: 6F72            'or'            BLE.S    *+$0074             ; 00000636
000005C4: 4D6F            'Mo'            DC.W     $4D6F               ; ????
000005C6: 7573            'us'            DC.W     $7573               ; ????
000005C8: 6555            'eU'            BCS.S    *+$0057             ; 0000061F
000005CA: 7000            'p.'            MOVEQ    #$00,D0             
000005CC: 0000


Jump Table 120:
(func extern MyGrowWindow)
000005CE: 4E56 FFE8       'NV..'          LINK     A6,#$FFE8           
000005D2: 48E7 0118       'H...'          MOVEM.L  D7/A3/A4,-(A7)      
000005D6: 286E 0008       '(n..'          MOVEA.L  $0008(A6),A4        
000005DA: 486E FFF8       'Hn..'          PEA      -$0008(A6)          
000005DE: 2F3C 003C 0032  '/<.<.2'        MOVE.L   #$003C0032,-(A7)    
000005E4: 2F3C 0180 0200  '/<....'        MOVE.L   #$01800200,-(A7)    
000005EA: A8A7            '..'            _SetRect                     ; A8A7
000005EC: 42A7            'B.'            CLR.L    -(A7)               
000005EE: 2F0C            '/.'            MOVE.L   A4,-(A7)            
000005F0: 2F2E 0016       '/...'          MOVE.L   $0016(A6),-(A7)     
000005F4: 486E FFF8       'Hn..'          PEA      -$0008(A6)          
000005F8: A92B            '.+'            _GrowWindow                     ; A92B
000005FA: 2E1F            '..'            MOVE.L   (A7)+,D7            
000005FC: 4A87            'J.'            TST.L    D7                  
000005FE: 6700 010E       'g...'          BEQ      *+$0110             ; 0000070E
00000602: 264C            '&L'            MOVEA.L  A4,A3               
00000604: 2F0C            '/.'            MOVE.L   A4,-(A7)            
00000606: 4267            'Bg'            CLR.W    -(A7)               
00000608: 2F07            '/.'            MOVE.L   D7,-(A7)            
0000060A: A86B            '.k'            _LoWord                      ; A86B
0000060C: 4267            'Bg'            CLR.W    -(A7)               
0000060E: 2F07            '/.'            MOVE.L   D7,-(A7)            
00000610: A86A            '.j'            _HiWord                      ; A86A
00000612: 1F3C 0001       '.<..'          MOVE.B   #$01,-(A7)          
00000616: A91D            '..'            _SizeWindow                     ; A91D
00000618: 2F2B 009E       '/+..'          MOVE.L   $009E(A3),-(A7)     
0000061C: 2F0B            '/.'            MOVE.L   A3,-(A7)            
0000061E: 486E FFE8       'Hn..'          PEA      -$0018(A6)          
00000622: 486E FFF0       'Hn..'          PEA      -$0010(A6)          
00000626: 4EBA 00FE       'N...'          JSR      *+$0100             ; SizeDestView()
0000062A: 206B 009E       ' k..'          MOVEA.L  $009E(A3),A0        
0000062E: 2050            ' P'            MOVEA.L  (A0),A0             
00000630: 216E FFE8 0008  '!n....'        MOVE.L   -$0018(A6),$0008(A0) 
00000636: 216E FFEC 000C  '!n....'        MOVE.L   -$0014(A6),$000C(A0) 
0000063C: 4AAB 00A6       'J...'          TST.L    $00A6(A3)           
00000640: 4FEF 0010       'O...'          LEA      $0010(A7),A7        
00000644: 6616            'f.'            BNE.S    *+$0018             ; 0000065C
00000646: 206B 009E       ' k..'          MOVEA.L  $009E(A3),A0        
0000064A: 2050            ' P'            MOVEA.L  (A0),A0             
0000064C: 20AE FFF0       ' ...'          MOVE.L   -$0010(A6),(A0)     
00000650: 216E FFF4 0004  '!n....'        MOVE.L   -$000C(A6),$0004(A0) 
00000656: 2F2B 009E       '/+..'          MOVE.L   $009E(A3),-(A7)     
0000065A: A9D0            '..'            _TECalText                     ; A9D0
0000065C: 2F2B 00A2       '/+..'          MOVE.L   $00A2(A3),-(A7)     
00000660: A958            '.X'            _HideControl                     ; A958
00000662: 2F0B            '/.'            MOVE.L   A3,-(A7)            
00000664: 486E FFF8       'Hn..'          PEA      -$0008(A6)          
00000668: 3F3C 0001       '?<..'          MOVE.W   #$0001,-(A7)        
0000066C: 4EBA 0136       'N..6'          JSR      *+$0138             ; SizeScrollBars()
00000670: 2EAB 00A2       '....'          MOVE.L   $00A2(A3),(A7)      
00000674: 3F2E FFFA       '?...'          MOVE.W   -$0006(A6),-(A7)    
00000678: 3F2E FFF8       '?...'          MOVE.W   -$0008(A6),-(A7)    
0000067C: A959            '.Y'            _MoveControl                     ; A959
0000067E: 2EAB 00A2       '....'          MOVE.L   $00A2(A3),(A7)      
00000682: 302E FFFE       '0...'          MOVE.W   -$0002(A6),D0       
00000686: 906E FFFA       '.n..'          SUB.W    -$0006(A6),D0       
0000068A: 3F00            '?.'            MOVE.W   D0,-(A7)            
0000068C: 302E FFFC       '0...'          MOVE.W   -$0004(A6),D0       
00000690: 906E FFF8       '.n..'          SUB.W    -$0008(A6),D0       
00000694: 3F00            '?.'            MOVE.W   D0,-(A7)            
00000696: A95C            '.\'            _SizeControl                     ; A95C
00000698: 4AAB 00A6       'J...'          TST.L    $00A6(A3)           
0000069C: 548F            'T.'            ADDQ.L   #$2,A7              
0000069E: 673C            'g<'            BEQ.S    *+$003E             ; 000006DC
000006A0: 2F2B 00A6       '/+..'          MOVE.L   $00A6(A3),-(A7)     
000006A4: A958            '.X'            _HideControl                     ; A958
000006A6: 2F0B            '/.'            MOVE.L   A3,-(A7)            
000006A8: 486E FFF8       'Hn..'          PEA      -$0008(A6)          
000006AC: 4267            'Bg'            CLR.W    -(A7)               
000006AE: 4EBA 00F4       'N...'          JSR      *+$00F6             ; SizeScrollBars()
000006B2: 2EAB 00A6       '....'          MOVE.L   $00A6(A3),(A7)      
000006B6: 3F2E FFFA       '?...'          MOVE.W   -$0006(A6),-(A7)    
000006BA: 3F2E FFF8       '?...'          MOVE.W   -$0008(A6),-(A7)    
000006BE: A959            '.Y'            _MoveControl                     ; A959
000006C0: 2EAB 00A6       '....'          MOVE.L   $00A6(A3),(A7)      
000006C4: 302E FFFE       '0...'          MOVE.W   -$0002(A6),D0       
000006C8: 906E FFFA       '.n..'          SUB.W    -$0006(A6),D0       
000006CC: 3F00            '?.'            MOVE.W   D0,-(A7)            
000006CE: 302E FFFC       '0...'          MOVE.W   -$0004(A6),D0       
000006D2: 906E FFF8       '.n..'          SUB.W    -$0008(A6),D0       
000006D6: 3F00            '?.'            MOVE.W   D0,-(A7)            
000006D8: A95C            '.\'            _SizeControl                     ; A95C
000006DA: 548F            'T.'            ADDQ.L   #$2,A7              
000006DC: 2F0B            '/.'            MOVE.L   A3,-(A7)            
000006DE: 4EAD 00C2       'N...'          JSR      $00C2(A5)           ; mySetCtlMax()
000006E2: 4257            'BW'            CLR.W    (A7)                
000006E4: 2F2B 00A2       '/+..'          MOVE.L   $00A2(A3),-(A7)     
000006E8: A960            '.`'            _GetCtlValue                     ; A960
000006EA: 4A5F            'J_'            TST.W    (A7)+               
000006EC: 548F            'T.'            ADDQ.L   #$2,A7              
000006EE: 671E            'g.'            BEQ.S    *+$0020             ; 0000070E
000006F0: 4267            'Bg'            CLR.W    -(A7)               
000006F2: 2F2B 00A2       '/+..'          MOVE.L   $00A2(A3),-(A7)     
000006F6: A960            '.`'            _GetCtlValue                     ; A960
000006F8: 301F            '0.'            MOVE.W   (A7)+,D0            
000006FA: 4440            'D@'            NEG.W    D0                  
000006FC: 206B 009E       ' k..'          MOVEA.L  $009E(A3),A0        
00000700: 2050            ' P'            MOVEA.L  (A0),A0             
00000702: C1E8 0018       '....'          MULS.W   $0018(A0),D0        
00000706: 206B 009E       ' k..'          MOVEA.L  $009E(A3),A0        
0000070A: 2050            ' P'            MOVEA.L  (A0),A0             
0000070C: 3080            '0.'            MOVE.W   D0,(A0)             
0000070E: 4CDF 1880       'L...'          MOVEM.L  (A7)+,D7/A3/A4      
00000712: 4E5E            'N^'            UNLK     A6                  
00000714: 4E75            'Nu'            RTS                          
---
00000716: 8C4D            '.M'            OR.W     A5,D6               
00000718: 7947            'yG'            DC.W     $7947               ; ????
0000071A: 726F            'ro'            MOVEQ    #$6F,D1             ; 'o'
0000071C: 7757            'wW'            DC.W     $7757               ; ????
0000071E: 696E            'in'            BVS.S    *+$0070             ; 0000078E
00000720: 646F            'do'            BCC.S    *+$0071             ; 00000791
00000722: 7700            'w.'            DC.W     $7700               ; ????
00000724: 0000


Jump Table 121:
(func extern SizeDestView)
00000726: 4E56 0000       'NV..'          LINK     A6,#$0000           
0000072A: 48E7 0018       'H...'          MOVEM.L  A3/A4,-(A7)         
0000072E: 286E 000C       '(n..'          MOVEA.L  $000C(A6),A4        
00000732: 266E 0010       '&n..'          MOVEA.L  $0010(A6),A3        
00000736: 206E 0010       ' n..'          MOVEA.L  $0010(A6),A0        
0000073A: 28A8 0010       '(...'          MOVE.L   $0010(A0),(A4)      
0000073E: 2968 0014 0004  ')h....'        MOVE.L   $0014(A0),$0004(A4) 
00000744: 4AAB 00A2       'J...'          TST.L    $00A2(A3)           
00000748: 6706            'g.'            BEQ.S    *+$0008             ; 00000750
0000074A: 046C 000F 0006  '.l....'        SUBI.W   #$000F,$0006(A4)    
00000750: 4AAB 00A6       'J...'          TST.L    $00A6(A3)           
00000754: 6706            'g.'            BEQ.S    *+$0008             ; 0000075C
00000756: 046C 000F 0004  '.l....'        SUBI.W   #$000F,$0004(A4)    
0000075C: 4AAE 0014       'J...'          TST.L    $0014(A6)           
00000760: 6716            'g.'            BEQ.S    *+$0018             ; 00000778
00000762: 206E 0014       ' n..'          MOVEA.L  $0014(A6),A0        
00000766: 2050            ' P'            MOVEA.L  (A0),A0             
00000768: 302C 0004       '0,..'          MOVE.W   $0004(A4),D0        
0000076C: 48C0            'H.'            EXT.L    D0                  
0000076E: 81E8 0018       '....'          DIVS.W   $0018(A0),D0        
00000772: 4840            'H@'            SWAP     D0                  
00000774: 916C 0004       '.l..'          SUB.W    D0,$0004(A4)        
00000778: 206E 0008       ' n..'          MOVEA.L  $0008(A6),A0        
0000077C: 2094            ' .'            MOVE.L   (A4),(A0)           
0000077E: 216C 0004 0004  '!l....'        MOVE.L   $0004(A4),$0004(A0) 
00000784: 2F08            '/.'            MOVE.L   A0,-(A7)            
00000786: 4878 0004       'Hx..'          PEA      $0004               
0000078A: A8A9            '..'            _InsetRect                     ; A8A9
0000078C: 4CDF 1800       'L...'          MOVEM.L  (A7)+,A3/A4         
00000790: 4E5E            'N^'            UNLK     A6                  
00000792: 4E75            'Nu'            RTS                          
00000794: 8C53            '.S'            OR.W     (A3),D6             
00000796: 697A            'iz'            BVS.S    *+$007C             ; 00000812
00000798: 6544            'eD'            BCS.S    *+$0046             ; 000007DE
0000079A: 6573            'es'            BCS.S    *+$0075             ; 0000080F
0000079C: 7456            'tV'            MOVEQ    #$56,D2             ; 'V'
0000079E: 6965            'ie'            BVS.S    *+$0067             ; 00000805
000007A0: 7700            'w.'            DC.W     $7700               ; ????
000007A2: 0000


Jump Table 122:
(func extern SizeScrollBars)
000007A4: 4E56 0000       'NV..'          LINK     A6,#$0000           
000007A8: 2F0C            '/.'            MOVE.L   A4,-(A7)            
000007AA: 286E 000A       '(n..'          MOVEA.L  $000A(A6),A4        
000007AE: 206E 000E       ' n..'          MOVEA.L  $000E(A6),A0        
000007B2: 28A8 0010       '(...'          MOVE.L   $0010(A0),(A4)      
000007B6: 2968 0014 0004  ')h....'        MOVE.L   $0014(A0),$0004(A4) 
000007BC: 4A2E 0009       'J...'          TST.B    $0009(A6)           
000007C0: 672A            'g*'            BEQ.S    *+$002C             ; 000007EC
000007C2: 70F1            'p.'            MOVEQ    #$F1,D0             
000007C4: D06C 0006       '.l..'          ADD.W    $0006(A4),D0        
000007C8: 3940 0002       '9@..'          MOVE.W   D0,$0002(A4)        
000007CC: 5354            'ST'            SUBQ.W   #$1,(A4)            
000007CE: 526C 0006       'Rl..'          ADDQ.W   #$1,$0006(A4)       
000007D2: 206E 000E       ' n..'          MOVEA.L  $000E(A6),A0        
000007D6: 0828 0000 009D  '.(....'        BTST     #$00,$009D(A0)      
000007DC: 6708            'g.'            BEQ.S    *+$000A             ; 000007E6
000007DE: 046C 000E 0004  '.l....'        SUBI.W   #$000E,$0004(A4)    
000007E4: 601C            '`.'            BRA.S    *+$001E             ; 00000802
000007E6: 526C 0004       'Rl..'          ADDQ.W   #$1,$0004(A4)       
000007EA: 6016            '`.'            BRA.S    *+$0018             ; 00000802
000007EC: 536C 0002       'Sl..'          SUBQ.W   #$1,$0002(A4)       
000007F0: 70F1            'p.'            MOVEQ    #$F1,D0             
000007F2: D06C 0004       '.l..'          ADD.W    $0004(A4),D0        
000007F6: 3880            '8.'            MOVE.W   D0,(A4)             
000007F8: 046C 000E 0006  '.l....'        SUBI.W   #$000E,$0006(A4)    
000007FE: 526C 0004       'Rl..'          ADDQ.W   #$1,$0004(A4)       
00000802: 285F            '(_'            MOVEA.L  (A7)+,A4            
00000804: 4E5E            'N^'            UNLK     A6                  
00000806: 4E75            'Nu'            RTS                          
---
00000808: 8E53            '.S'            OR.W     (A3),D7             
0000080A: 697A            'iz'            BVS.S    *+$007C             ; 00000886
0000080C: 6553            'eS'            BCS.S    *+$0055             ; 00000861
0000080E: 6372            'cr'            BLS.S    *+$0074             ; 00000882
00000810: 6F6C            'ol'            BLE.S    *+$006E             ; 0000087E
00000812: 6C42            'lB'            BGE.S    *+$0044             ; 00000856
00000814: 6172            'ar'            BSR.S    *+$0074             ; 00000888
00000816: 7300            's.'            DC.W     $7300               ; ????
00000818: 0000


Jump Table 123:
(func extern myGrowDrawIcon)
0000081A: 4E56 FFF4       'NV..'          LINK     A6,#$FFF4           
0000081E: 48E7 0018       'H...'          MOVEM.L  A3/A4,-(A7)         
00000822: 286E 0008       '(n..'          MOVEA.L  $0008(A6),A4        
00000826: 486E FFF4       'Hn..'          PEA      -$000C(A6)          
0000082A: A874            '.t'            _GetPort                     ; A874
0000082C: 2F0C            '/.'            MOVE.L   A4,-(A7)            
0000082E: A873            '.s'            _SetPort                     ; A873
00000830: 4AAC 00A6       'J...'          TST.L    $00A6(A4)           
00000834: 6640            'f@'            BNE.S    *+$0042             ; 00000876
00000836: 2D6C 0010 FFF8  '-l....'        MOVE.L   $0010(A4),-$0008(A6) 
0000083C: 2D6C 0014 FFFC  '-l....'        MOVE.L   $0014(A4),-$0004(A6) 
00000842: 70F1            'p.'            MOVEQ    #$F1,D0             
00000844: D06E FFFE       '.n..'          ADD.W    -$0002(A6),D0       
00000848: 3D40 FFFA       '=@..'          MOVE.W   D0,-$0006(A6)       
0000084C: 536E FFF8       'Sn..'          SUBQ.W   #$1,-$0008(A6)      
00000850: 526E FFFE       'Rn..'          ADDQ.W   #$1,-$0002(A6)      
00000854: 526E FFFC       'Rn..'          ADDQ.W   #$1,-$0004(A6)      
00000858: 42A7            'B.'            CLR.L    -(A7)               
0000085A: A8D8            '..'            _NewRgn                      ; A8D8
0000085C: 265F            '&_'            MOVEA.L  (A7)+,A3            
0000085E: 2F0B            '/.'            MOVE.L   A3,-(A7)            
00000860: A87A            '.z'            _GetClip                     ; A87A
00000862: 486E FFF8       'Hn..'          PEA      -$0008(A6)          
00000866: A87B            '.{'            _ClipRect                     ; A87B
00000868: 2F0C            '/.'            MOVE.L   A4,-(A7)            
0000086A: A904            '..'            _DrawGrowIcon                     ; A904
0000086C: 2F0B            '/.'            MOVE.L   A3,-(A7)            
0000086E: A879            '.y'            _SetClip                     ; A879
00000870: 2F0B            '/.'            MOVE.L   A3,-(A7)            
00000872: A8D9            '..'            _DisposeRgn                     ; A8D9
00000874: 6004            '`.'            BRA.S    *+$0006             ; 0000087A
00000876: 2F0C            '/.'            MOVE.L   A4,-(A7)            
00000878: A904            '..'            _DrawGrowIcon                     ; A904
0000087A: 2F2E FFF4       '/...'          MOVE.L   -$000C(A6),-(A7)    
0000087E: A873            '.s'            _SetPort                     ; A873
00000880: 4CDF 1800       'L...'          MOVEM.L  (A7)+,A3/A4         
00000884: 4E5E            'N^'            UNLK     A6                  
00000886: 4E75            'Nu'            RTS                          
---
00000888: 8E6D 7944       '.myD'          OR.W     $7944(A5),D7        
0000088C: 7261            'ra'            MOVEQ    #$61,D1             ; 'a'
0000088E: 7747            'wG'            DC.W     $7747               ; ????
00000890: 726F            'ro'            MOVEQ    #$6F,D1             ; 'o'
00000892: 7749            'wI'            DC.W     $7749               ; ????
00000894: 636F            'co'            BLS.S    *+$0071             ; 00000905
00000896: 6E00 0000       'n...'          BGT      *+$0002             ; 00000898


Jump Table 168:
(func extern LookForTraps)
0000089A: 4E56 0000       'NV..'          LINK     A6,#$0000           
0000089E: 48E7 0108       'H...'          MOVEM.L  D7/A4,-(A7)         
000008A2: 3E2D 9B48       '>-.H'          MOVE.W   -$64B8(A5),D7       
000008A6: 6052            '`R'            BRA.S    *+$0054             ; 000008FA
000008A8: 3F2D 9B4A       '?-.J'          MOVE.W   -$64B6(A5),-(A7)    
000008AC: 3F07            '?.'            MOVE.W   D7,-(A7)            
000008AE: 4EBA F7E8       'N...'          JSR      *-$0816             ; GoDir()
000008B2: 3E00            '>.'            MOVE.W   D0,D7               
000008B4: 7040            'p@'            MOVEQ    #$40,D0             ; '@'
000008B6: 2E80            '..'            MOVE.L   D0,(A7)             
000008B8: 2007            ' .'            MOVE.L   D7,D0               
000008BA: 48C0            'H.'            EXT.L    D0                  
000008BC: E988            '..'            LSL.L    #$4,D0              
000008BE: 204D            ' M'            MOVEA.L  A5,A0               
000008C0: D1C0            '..'            ADDA.L   D0,A0               
000008C2: 2F28 C740       '/(.@'          MOVE.L   -$38C0(A0),-(A7)    
000008C6: 4EAD 00EA       'N...'          JSR      $00EA(A5)           ; FlagInList()
000008CA: 2840            '(@'            MOVEA.L  D0,A4               
000008CC: 508F            'P.'            ADDQ.L   #$8,A7              
000008CE: 6026            '`&'            BRA.S    *+$0028             ; 000008F6
000008D0: 3F3C 0032       '?<.2'          MOVE.W   #$0032,-(A7)        
000008D4: 4EBA 1AE6       'N...'          JSR      *+$1AE8             ; rand()
000008D8: B06E 0008       '.n..'          CMP.W    $0008(A6),D0        
000008DC: 548F            'T.'            ADDQ.L   #$2,A7              
000008DE: 6C06            'l.'            BGE.S    *+$0008             ; 000008E6
000008E0: 026C FEFF 000A  '.l....'        ANDI.W   #$FEFF,$000A(A4)    
000008E6: 4878 0040       'Hx.@'          PEA      $0040               
000008EA: 2F2C 0014       '/,..'          MOVE.L   $0014(A4),-(A7)     
000008EE: 4EAD 00EA       'N...'          JSR      $00EA(A5)           ; FlagInList()
000008F2: 2840            '(@'            MOVEA.L  D0,A4               
000008F4: 508F            'P.'            ADDQ.L   #$8,A7              
000008F6: 200C            ' .'            MOVE.L   A4,D0               
000008F8: 66D6            'f.'            BNE.S    *-$0028             ; 000008D0
000008FA: 2007            ' .'            MOVE.L   D7,D0               
000008FC: 48C0            'H.'            EXT.L    D0                  
000008FE: E988            '..'            LSL.L    #$4,D0              
00000900: 204D            ' M'            MOVEA.L  A5,A0               
00000902: D1C0            '..'            ADDA.L   D0,A0               
00000904: 302D 9B4A       '0-.J'          MOVE.W   -$64B6(A5),D0       
00000908: 48C0            'H.'            EXT.L    D0                  
0000090A: C0A8 C738       '...8'          AND.L    -$38C8(A0),D0       
0000090E: 6698            'f.'            BNE.S    *-$0066             ; 000008A8
00000910: 4CDF 1080       'L...'          MOVEM.L  (A7)+,D7/A4         
00000914: 4E5E            'N^'            UNLK     A6                  
00000916: 4E75            'Nu'            RTS                          
---
00000918: 8C4C            '.L'            OR.W     A4,D6               
0000091A: 6F6F            'oo'            BLE.S    *+$0071             ; 0000098B
0000091C: 6B46            'kF'            BMI.S    *+$0048             ; 00000964
0000091E: 6F72            'or'            BLE.S    *+$0074             ; 00000992
00000920: 5472 6170 7300  'Traps.'        ADDQ.W   #$2,($73000000,A2)  
          0000            '..'    


Jump Table 164:
(func extern CreateThing)
00000928: 4E56 0000       'NV..'          LINK     A6,#$0000           
0000092C: 48E7 0308       'H...'          MOVEM.L  D6/D7/A4,-(A7)      
00000930: 3E2E 000C       '>...'          MOVE.W   $000C(A6),D7        
00000934: 286E 0008       '(n..'          MOVEA.L  $0008(A6),A4        
00000938: 082C 0002 000A  '.,....'        BTST     #$02,$000A(A4)      
0000093E: 6700 0114       'g...'          BEQ      *+$0116             ; 00000A54
00000942: 2F3C 0008 0000  '/<....'        MOVE.L   #$00080000,-(A7)    
00000948: 4EBA F918       'N...'          JSR      *-$06E6             ; randdir()
0000094C: 3C00            '<.'            MOVE.W   D0,D6               
0000094E: 588F            'X.'            ADDQ.L   #$4,A7              
00000950: 601C            '`.'            BRA.S    *+$001E             ; 0000096E
00000952: 3F06            '?.'            MOVE.W   D6,-(A7)            
00000954: 4EBA F832       'N..2'          JSR      *-$07CC             ; leftof()
00000958: 3C00            '<.'            MOVE.W   D0,D6               
0000095A: 0C46 0008       '.F..'          CMPI.W   #$0008,D6           
0000095E: 548F            'T.'            ADDQ.L   #$2,A7              
00000960: 660C            'f.'            BNE.S    *+$000E             ; 0000096E
00000962: 2F0C            '/.'            MOVE.L   A4,-(A7)            
00000964: 4EBA 0238       'N..8'          JSR      *+$023A             ; LoseThing()
00000968: 99CC            '..'            SUBA.L   A4,A4               
0000096A: 588F            'X.'            ADDQ.L   #$4,A7              
0000096C: 602A            '`*'            BRA.S    *+$002C             ; 00000998
0000096E: 2007            ' .'            MOVE.L   D7,D0               
00000970: 48C0            'H.'            EXT.L    D0                  
00000972: E988            '..'            LSL.L    #$4,D0              
00000974: 204D            ' M'            MOVEA.L  A5,A0               
00000976: D1C0            '..'            ADDA.L   D0,A0               
00000978: 2006            ' .'            MOVE.L   D6,D0               
0000097A: 48C0            'H.'            EXT.L    D0                  
0000097C: C0A8 C738       '...8'          AND.L    -$38C8(A0),D0       
00000980: 66D0            'f.'            BNE.S    *-$002E             ; 00000952
00000982: 2007            ' .'            MOVE.L   D7,D0               
00000984: 48C0            'H.'            EXT.L    D0                  
00000986: E988            '..'            LSL.L    #$4,D0              
00000988: 204D            ' M'            MOVEA.L  A5,A0               
0000098A: D1C0            '..'            ADDA.L   D0,A0               
0000098C: 3006            '0.'            MOVE.W   D6,D0               
0000098E: E948            '.H'            LSL.W    #$4,D0              
00000990: 48C0            'H.'            EXT.L    D0                  
00000992: C0A8 C738       '...8'          AND.L    -$38C8(A0),D0       
00000996: 66BA            'f.'            BNE.S    *-$0044             ; 00000952
00000998: 200C            ' .'            MOVE.L   A4,D0               
0000099A: 6700 0116       'g...'          BEQ      *+$0118             ; 00000AB2
0000099E: 2006            ' .'            MOVE.L   D6,D0               
000009A0: 48C0            'H.'            EXT.L    D0                  
000009A2: 81AC 0008       '....'          OR.L     D0,$0008(A4)        
000009A6: 3006            '0.'            MOVE.W   D6,D0               
000009A8: E948            '.H'            LSL.W    #$4,D0              
000009AA: 2207            '".'            MOVE.L   D7,D1               
000009AC: 48C1            'H.'            EXT.L    D1                  
000009AE: E989            '..'            LSL.L    #$4,D1              
000009B0: 48C0            'H.'            EXT.L    D0                  
000009B2: 204D            ' M'            MOVEA.L  A5,A0               
000009B4: D1C1            '..'            ADDA.L   D1,A0               
000009B6: 81A8 C738       '...8'          OR.L     D0,-$38C8(A0)       
000009BA: 3F3C 0004       '?<..'          MOVE.W   #$0004,-(A7)        
000009BE: 2F3C 0000 168C  '/<....'        MOVE.L   #$0000168C,-(A7)    
000009C4: 703C            'p<'            MOVEQ    #$3C,D0             ; '<'
000009C6: C1D4            '..'            MULS.W   (A4),D0             
000009C8: 204D            ' M'            MOVEA.L  A5,A0               
000009CA: D1C0            '..'            ADDA.L   D0,A0               
000009CC: 2F28 EA44       '/(.D'          MOVE.L   -$15BC(A0),-(A7)    
000009D0: 4EBA 15AA       'N...'          JSR      *+$15AC             ; strncmp()
000009D4: 4A40            'J@'            TST.W    D0                  
000009D6: 4FEF 000A       'O...'          LEA      $000A(A7),A7        
000009DA: 6610            'f.'            BNE.S    *+$0012             ; 000009EC
000009DC: 3F07            '?.'            MOVE.W   D7,-(A7)            
000009DE: 4EBA 028A       'N...'          JSR      *+$028C             ; randmess()
000009E2: 2940 000C       ')@..'          MOVE.L   D0,$000C(A4)        
000009E6: 548F            'T.'            ADDQ.L   #$2,A7              
000009E8: 6000 00A0       '`...'          BRA      *+$00A2             ; 00000A8A
000009EC: 3F3C 0004       '?<..'          MOVE.W   #$0004,-(A7)        
000009F0: 2F3C 0000 1692  '/<....'        MOVE.L   #$00001692,-(A7)    
000009F6: 703C            'p<'            MOVEQ    #$3C,D0             ; '<'
000009F8: C1D4            '..'            MULS.W   (A4),D0             
000009FA: 204D            ' M'            MOVEA.L  A5,A0               
000009FC: D1C0            '..'            ADDA.L   D0,A0               
000009FE: 2F28 EA44       '/(.D'          MOVE.L   -$15BC(A0),-(A7)    
00000A02: 4EBA 1578       'N..x'          JSR      *+$157A             ; strncmp()
00000A06: 4A40            'J@'            TST.W    D0                  
00000A08: 4FEF 000A       'O...'          LEA      $000A(A7),A7        
00000A0C: 660A            'f.'            BNE.S    *+$000C             ; 00000A18
00000A0E: 297C 0000 1698  ')|....'        MOVE.L   #$00001698,$000C(A4) 
          000C            '..'    
00000A16: 6072            '`r'            BRA.S    *+$0074             ; 00000A8A
00000A18: 3F3C 0004       '?<..'          MOVE.W   #$0004,-(A7)        
00000A1C: 2F3C 0000 16B2  '/<....'        MOVE.L   #$000016B2,-(A7)    
00000A22: 703C            'p<'            MOVEQ    #$3C,D0             ; '<'
00000A24: C1D4            '..'            MULS.W   (A4),D0             
00000A26: 204D            ' M'            MOVEA.L  A5,A0               
00000A28: D1C0            '..'            ADDA.L   D0,A0               
00000A2A: 2F28 EA44       '/(.D'          MOVE.L   -$15BC(A0),-(A7)    
00000A2E: 4EBA 154C       'N..L'          JSR      *+$154E             ; strncmp()
00000A32: 4A40            'J@'            TST.W    D0                  
00000A34: 4FEF 000A       'O...'          LEA      $000A(A7),A7        
00000A38: 6610            'f.'            BNE.S    *+$0012             ; 00000A4A
00000A3A: 3F2D EA26       '?-.&'          MOVE.W   -$15DA(A5),-(A7)    
00000A3E: 4EBA 197C       'N..|'          JSR      *+$197E             ; rand()
00000A42: 3940 0002       '9@..'          MOVE.W   D0,$0002(A4)        
00000A46: 548F            'T.'            ADDQ.L   #$2,A7              
00000A48: 6040            '`@'            BRA.S    *+$0042             ; 00000A8A
00000A4A: 297C 0000 16B8  ')|....'        MOVE.L   #$000016B8,$000C(A4) 
          000C            '..'    
00000A52: 6036            '`6'            BRA.S    *+$0038             ; 00000A8A
00000A54: 082C 0006 000B  '.,....'        BTST     #$06,$000B(A4)      
00000A5A: 672E            'g.'            BEQ.S    *+$0030             ; 00000A8A
00000A5C: 4878 0040       'Hx.@'          PEA      $0040               
00000A60: 2007            ' .'            MOVE.L   D7,D0               
00000A62: 48C0            'H.'            EXT.L    D0                  
00000A64: E988            '..'            LSL.L    #$4,D0              
00000A66: 204D            ' M'            MOVEA.L  A5,A0               
00000A68: D1C0            '..'            ADDA.L   D0,A0               
00000A6A: 2F28 C740       '/(.@'          MOVE.L   -$38C0(A0),-(A7)    
00000A6E: 4EAD 00EA       'N...'          JSR      $00EA(A5)           ; FlagInList()
00000A72: 4A80            'J.'            TST.L    D0                  
00000A74: 508F            'P.'            ADDQ.L   #$8,A7              
00000A76: 6712            'g.'            BEQ.S    *+$0014             ; 00000A8A
00000A78: 5247            'RG'            ADDQ.W   #$1,D7              
00000A7A: 302D 968C       '0-..'          MOVE.W   -$6974(A5),D0       
00000A7E: C1ED 968E       '....'          MULS.W   -$6972(A5),D0       
00000A82: B047            '.G'            CMP.W    D7,D0               
00000A84: 66D6            'f.'            BNE.S    *-$0028             ; 00000A5C
00000A86: 7E00            '~.'            MOVEQ    #$00,D7             
00000A88: 60D2            '`.'            BRA.S    *-$002C             ; 00000A5C
00000A8A: 2F0C            '/.'            MOVE.L   A4,-(A7)            
00000A8C: 2007            ' .'            MOVE.L   D7,D0               
00000A8E: 48C0            'H.'            EXT.L    D0                  
00000A90: E988            '..'            LSL.L    #$4,D0              
00000A92: 204D            ' M'            MOVEA.L  A5,A0               
00000A94: D1C0            '..'            ADDA.L   D0,A0               
00000A96: 4868 C740       'Hh.@'          PEA      -$38C0(A0)          
00000A9A: 4EAD 00DA       'N...'          JSR      $00DA(A5)           ; AddThing()
00000A9E: 082C 0004 0009  '.,....'        BTST     #$04,$0009(A4)      
00000AA4: 508F            'P.'            ADDQ.L   #$8,A7              
00000AA6: 670A            'g.'            BEQ.S    *+$000C             ; 00000AB2
00000AA8: 3F07            '?.'            MOVE.W   D7,-(A7)            
00000AAA: 2F0C            '/.'            MOVE.L   A4,-(A7)            
00000AAC: 4EAD 01F2       'N...'          JSR      $01F2(A5)           ; InitAnimal()
00000AB0: 5C8F            '\.'            ADDQ.L   #$6,A7              
00000AB2: 4CDF 10C0       'L...'          MOVEM.L  (A7)+,D6/D7/A4      
00000AB6: 4E5E            'N^'            UNLK     A6                  
00000AB8: 4E75            'Nu'            RTS                          
---
00000ABA: 8B43 7265       '.Cre'          PACK     D3,D5,#$7265        
00000ABE: 6174            'at'            BSR.S    *+$0076             ; 00000B34
00000AC0: 6554            'eT'            BCS.S    *+$0056             ; 00000B16
00000AC2: 6869            'hi'            BVC.S    *+$006B             ; 00000B2D
00000AC4: 6E67            'ng'            BGT.S    *+$0069             ; 00000B2D
00000AC6: 0000


Jump Table 166:
(func extern MakeThing)
00000AC8: 4E56 0000       'NV..'          LINK     A6,#$0000           
00000ACC: 2F07            '/.'            MOVE.L   D7,-(A7)            
00000ACE: 4EBA 006C       'N..l'          JSR      *+$006E             ; code9-anon0()
00000AD2: 3E00            '>.'            MOVE.W   D0,D7               
00000AD4: 4A40            'J@'            TST.W    D0                  
00000AD6: 6C04            'l.'            BGE.S    *+$0006             ; 00000ADC
00000AD8: 7000            'p.'            MOVEQ    #$00,D0             
00000ADA: 604E            '`N'            BRA.S    *+$0050             ; 00000B2A
00000ADC: 701C            'p.'            MOVEQ    #$1C,D0             
00000ADE: C1C7            '..'            MULS.W   D7,D0               
00000AE0: 204D            ' M'            MOVEA.L  A5,A0               
00000AE2: D1C0            '..'            ADDA.L   D0,A0               
00000AE4: 316E 0008 9B78  '1n...x'        MOVE.W   $0008(A6),-$6488(A0) 
00000AEA: 701C            'p.'            MOVEQ    #$1C,D0             
00000AEC: C1C7            '..'            MULS.W   D7,D0               
00000AEE: 204D            ' M'            MOVEA.L  A5,A0               
00000AF0: D1C0            '..'            ADDA.L   D0,A0               
00000AF2: 316E 000A 9B7A  '1n...z'        MOVE.W   $000A(A6),-$6486(A0) 
00000AF8: 701C            'p.'            MOVEQ    #$1C,D0             
00000AFA: C1C7            '..'            MULS.W   D7,D0               
00000AFC: 204D            ' M'            MOVEA.L  A5,A0               
00000AFE: D1C0            '..'            ADDA.L   D0,A0               
00000B00: 116E 000D 9B7E  '.n...~'        MOVE.B   $000D(A6),-$6482(A0) 
00000B06: 703C            'p<'            MOVEQ    #$3C,D0             ; '<'
00000B08: C1EE 0008       '....'          MULS.W   $0008(A6),D0        
00000B0C: 204D            ' M'            MOVEA.L  A5,A0               
00000B0E: D1C0            '..'            ADDA.L   D0,A0               
00000B10: 701C            'p.'            MOVEQ    #$1C,D0             
00000B12: C1C7            '..'            MULS.W   D7,D0               
00000B14: 2228 EA40       '"(.@'          MOVE.L   -$15C0(A0),D1       
00000B18: 204D            ' M'            MOVEA.L  A5,A0               
00000B1A: D1C0            '..'            ADDA.L   D0,A0               
00000B1C: 83A8 9B80       '....'          OR.L     D1,-$6480(A0)       
00000B20: 701C            'p.'            MOVEQ    #$1C,D0             
00000B22: C1C7            '..'            MULS.W   D7,D0               
00000B24: 41ED 9B78       'A..x'          LEA      -$6488(A5),A0       
00000B28: D088            '..'            ADD.L    A0,D0               
00000B2A: 2E1F            '..'            MOVE.L   (A7)+,D7            
00000B2C: 4E5E            'N^'            UNLK     A6                  
00000B2E: 4E75            'Nu'            RTS                          
---
00000B30: 894D 616B       '.Mak'          PACK     -(A5),-(A4),#$616B  
00000B34: 6554            'eT'            BCS.S    *+$0056             ; 00000B8A
00000B36: 6869            'hi'            BVC.S    *+$006B             ; 00000BA1
00000B38: 6E67            'ng'            BGT.S    *+$0069             ; 00000BA1
00000B3A: 0000


(func intern code9-anon0)
00000B3C: 2F07            '/.'            MOVE.L   D7,-(A7)            
00000B3E: 7E00            '~.'            MOVEQ    #$00,D7             
00000B40: 6002            '`.'            BRA.S    *+$0004             ; 00000B44
00000B42: 5247            'RG'            ADDQ.W   #$1,D7              
00000B44: 0C47 0190       '.G..'          CMPI.W   #$0190,D7           
00000B48: 6C10            'l.'            BGE.S    *+$0012             ; 00000B5A
00000B4A: 701C            'p.'            MOVEQ    #$1C,D0             
00000B4C: C1C7            '..'            MULS.W   D7,D0               
00000B4E: 204D            ' M'            MOVEA.L  A5,A0               
00000B50: D1C0            '..'            ADDA.L   D0,A0               
00000B52: 0828 0005 9B82  '.(....'        BTST     #$05,-$647E(A0)     
00000B58: 66E8            'f.'            BNE.S    *-$0016             ; 00000B42
00000B5A: 0C47 0190       '.G..'          CMPI.W   #$0190,D7           
00000B5E: 6604            'f.'            BNE.S    *+$0006             ; 00000B64
00000B60: 70FF            'p.'            MOVEQ    #$FF,D0             
00000B62: 6036            '`6'            BRA.S    *+$0038             ; 00000B9A
00000B64: 701C            'p.'            MOVEQ    #$1C,D0             
00000B66: C1C7            '..'            MULS.W   D7,D0               
00000B68: 204D            ' M'            MOVEA.L  A5,A0               
00000B6A: D1C0            '..'            ADDA.L   D0,A0               
00000B6C: 217C 0000 2000  '!|.. .'        MOVE.L   #$00002000,-$6480(A0) 
          9B80            '..'    
00000B74: 701C            'p.'            MOVEQ    #$1C,D0             
00000B76: C1C7            '..'            MULS.W   D7,D0               
00000B78: 204D            ' M'            MOVEA.L  A5,A0               
00000B7A: D1C0            '..'            ADDA.L   D0,A0               
00000B7C: 42A8 9B88       'B...'          CLR.L    -$6478(A0)          
00000B80: 701C            'p.'            MOVEQ    #$1C,D0             
00000B82: C1C7            '..'            MULS.W   D7,D0               
00000B84: 204D            ' M'            MOVEA.L  A5,A0               
00000B86: D1C0            '..'            ADDA.L   D0,A0               
00000B88: 42A8 9B8C       'B...'          CLR.L    -$6474(A0)          
00000B8C: 701C            'p.'            MOVEQ    #$1C,D0             
00000B8E: C1C7            '..'            MULS.W   D7,D0               
00000B90: 204D            ' M'            MOVEA.L  A5,A0               
00000B92: D1C0            '..'            ADDA.L   D0,A0               
00000B94: 42A8 9B90       'B...'          CLR.L    -$6470(A0)          
00000B98: 3007            '0.'            MOVE.W   D7,D0               
00000B9A: 2E1F            '..'            MOVE.L   (A7)+,D7            
00000B9C: 4E75            'Nu'            RTS                          


Jump Table 165:
(func extern LoseThing)
00000B9E: 4E56 0000       'NV..'          LINK     A6,#$0000           
00000BA2: 4AAE 0008       'J...'          TST.L    $0008(A6)           
00000BA6: 6708            'g.'            BEQ.S    *+$000A             ; 00000BB0
00000BA8: 206E 0008       ' n..'          MOVEA.L  $0008(A6),A0        
00000BAC: 42A8 0008       'B...'          CLR.L    $0008(A0)           
00000BB0: 4E5E            'N^'            UNLK     A6                  
00000BB2: 4E75            'Nu'            RTS                          
---
00000BB4: 894C 6F73       '.Los'          PACK     -(A4),-(A4),#$6F73  
00000BB8: 6554            'eT'            BCS.S    *+$0056             ; 00000C0E
00000BBA: 6869            'hi'            BVC.S    *+$006B             ; 00000C25
00000BBC: 6E67            'ng'            BGT.S    *+$0069             ; 00000C25
00000BBE: 0000


Jump Table 167:
(func extern code9-anon1)
00000BC0: 48E7 0F00       'H...'          MOVEM.L  D4-D7,-(A7)         
00000BC4: 7E00            '~.'            MOVEQ    #$00,D7             
00000BC6: 7C00            '|.'            MOVEQ    #$00,D6             
00000BC8: 7800            'x.'            MOVEQ    #$00,D4             
00000BCA: 6032            '`2'            BRA.S    *+$0034             ; 00000BFE
00000BCC: 703C            'p<'            MOVEQ    #$3C,D0             ; '<'
00000BCE: C1C4            '..'            MULS.W   D4,D0               
00000BD0: 204D            ' M'            MOVEA.L  A5,A0               
00000BD2: D1C0            '..'            ADDA.L   D0,A0               
00000BD4: 302D 968A       '0-..'          MOVE.W   -$6976(A5),D0       
00000BD8: B068 EA3C       '.h.<'          CMP.W    -$15C4(A0),D0       
00000BDC: 6D1E            'm.'            BLT.S    *+$0020             ; 00000BFC
00000BDE: 703C            'p<'            MOVEQ    #$3C,D0             ; '<'
00000BE0: C1C4            '..'            MULS.W   D4,D0               
00000BE2: 204D            ' M'            MOVEA.L  A5,A0               
00000BE4: D1C0            '..'            ADDA.L   D0,A0               
00000BE6: 302D 968A       '0-..'          MOVE.W   -$6976(A5),D0       
00000BEA: B068 EA3E       '.h.>'          CMP.W    -$15C2(A0),D0       
00000BEE: 6E0C            'n.'            BGT.S    *+$000E             ; 00000BFC
00000BF0: 703C            'p<'            MOVEQ    #$3C,D0             ; '<'
00000BF2: C1C4            '..'            MULS.W   D4,D0               
00000BF4: 204D            ' M'            MOVEA.L  A5,A0               
00000BF6: D1C0            '..'            ADDA.L   D0,A0               
00000BF8: DE68 EA30       '.h.0'          ADD.W    -$15D0(A0),D7       
00000BFC: 5244            'RD'            ADDQ.W   #$1,D4              
00000BFE: 703C            'p<'            MOVEQ    #$3C,D0             ; '<'
00000C00: C1C4            '..'            MULS.W   D4,D0               
00000C02: 204D            ' M'            MOVEA.L  A5,A0               
00000C04: D1C0            '..'            ADDA.L   D0,A0               
00000C06: 4AA8 EA44       'J..D'          TST.L    -$15BC(A0)          
00000C0A: 66C0            'f.'            BNE.S    *-$003E             ; 00000BCC
00000C0C: 3F07            '?.'            MOVE.W   D7,-(A7)            
00000C0E: 4EBA 17AC       'N...'          JSR      *+$17AE             ; rand()
00000C12: 3A00            ':.'            MOVE.W   D0,D5               
00000C14: 7800            'x.'            MOVEQ    #$00,D4             
00000C16: 548F            'T.'            ADDQ.L   #$2,A7              
00000C18: 603A            '`:'            BRA.S    *+$003C             ; 00000C54
00000C1A: 703C            'p<'            MOVEQ    #$3C,D0             ; '<'
00000C1C: C1C4            '..'            MULS.W   D4,D0               
00000C1E: 204D            ' M'            MOVEA.L  A5,A0               
00000C20: D1C0            '..'            ADDA.L   D0,A0               
00000C22: 302D 968A       '0-..'          MOVE.W   -$6976(A5),D0       
00000C26: B068 EA3C       '.h.<'          CMP.W    -$15C4(A0),D0       
00000C2A: 6D26            'm&'            BLT.S    *+$0028             ; 00000C52
00000C2C: 703C            'p<'            MOVEQ    #$3C,D0             ; '<'
00000C2E: C1C4            '..'            MULS.W   D4,D0               
00000C30: 204D            ' M'            MOVEA.L  A5,A0               
00000C32: D1C0            '..'            ADDA.L   D0,A0               
00000C34: 302D 968A       '0-..'          MOVE.W   -$6976(A5),D0       
00000C38: B068 EA3E       '.h.>'          CMP.W    -$15C2(A0),D0       
00000C3C: 6E14            'n.'            BGT.S    *+$0016             ; 00000C52
00000C3E: 703C            'p<'            MOVEQ    #$3C,D0             ; '<'
00000C40: C1C4            '..'            MULS.W   D4,D0               
00000C42: 204D            ' M'            MOVEA.L  A5,A0               
00000C44: D1C0            '..'            ADDA.L   D0,A0               
00000C46: DC68 EA30       '.h.0'          ADD.W    -$15D0(A0),D6       
00000C4A: BA46            '.F'            CMP.W    D6,D5               
00000C4C: 6C04            'l.'            BGE.S    *+$0006             ; 00000C52
00000C4E: 3004            '0.'            MOVE.W   D4,D0               
00000C50: 6012            '`.'            BRA.S    *+$0014             ; 00000C64
00000C52: 5244            'RD'            ADDQ.W   #$1,D4              
00000C54: 703C            'p<'            MOVEQ    #$3C,D0             ; '<'
00000C56: C1C4            '..'            MULS.W   D4,D0               
00000C58: 204D            ' M'            MOVEA.L  A5,A0               
00000C5A: D1C0            '..'            ADDA.L   D0,A0               
00000C5C: 4AA8 EA44       'J..D'          TST.L    -$15BC(A0)          
00000C60: 66B8            'f.'            BNE.S    *-$0046             ; 00000C1A
00000C62: 7000            'p.'            MOVEQ    #$00,D0             
00000C64: 4CDF 00F0       'L...'          MOVEM.L  (A7)+,D4-D7         
00000C68: 4E75            'Nu'            RTS                          


(func intern randmess)
00000C6A: 4E56 0000       'NV..'          LINK     A6,#$0000           
00000C6E: 3F3C 000A       '?<..'          MOVE.W   #$000A,-(A7)        
00000C72: 4EBA 1748       'N..H'          JSR      *+$174A             ; rand()
00000C76: 4A40            'J@'            TST.W    D0                  
00000C78: 548F            'T.'            ADDQ.L   #$2,A7              
00000C7A: 674E            'gN'            BEQ.S    *+$0050             ; 00000CCA
00000C7C: 3F3C 0005       '?<..'          MOVE.W   #$0005,-(A7)        
00000C80: 4EBA 173A       'N..:'          JSR      *+$173C             ; rand()
00000C84: 4A40            'J@'            TST.W    D0                  
00000C86: 548F            'T.'            ADDQ.L   #$2,A7              
00000C88: 6620            'f '            BNE.S    *+$0022             ; 00000CAA
00000C8A: 302E 0008       '0...'          MOVE.W   $0008(A6),D0        
00000C8E: 48C0            'H.'            EXT.L    D0                  
00000C90: E988            '..'            LSL.L    #$4,D0              
00000C92: 204D            ' M'            MOVEA.L  A5,A0               
00000C94: D1C0            '..'            ADDA.L   D0,A0               
00000C96: 0828 0006 C73A  '.(...:'        BTST     #$06,-$38C6(A0)     
00000C9C: 6706            'g.'            BEQ.S    *+$0008             ; 00000CA4
00000C9E: 202D F92E       ' -..'          MOVE.L   -$06D2(A5),D0       
00000CA2: 603A            '`:'            BRA.S    *+$003C             ; 00000CDE
00000CA4: 202D F92A       ' -.*'          MOVE.L   -$06D6(A5),D0       
00000CA8: 6034            '`4'            BRA.S    *+$0036             ; 00000CDE
00000CAA: 302E 0008       '0...'          MOVE.W   $0008(A6),D0        
00000CAE: 48C0            'H.'            EXT.L    D0                  
00000CB0: E988            '..'            LSL.L    #$4,D0              
00000CB2: 204D            ' M'            MOVEA.L  A5,A0               
00000CB4: D1C0            '..'            ADDA.L   D0,A0               
00000CB6: 0828 0006 C73A  '.(...:'        BTST     #$06,-$38C6(A0)     
00000CBC: 6706            'g.'            BEQ.S    *+$0008             ; 00000CC4
00000CBE: 202D F92A       ' -.*'          MOVE.L   -$06D6(A5),D0       
00000CC2: 601A            '`.'            BRA.S    *+$001C             ; 00000CDE
00000CC4: 202D F92E       ' -..'          MOVE.L   -$06D2(A5),D0       
00000CC8: 6014            '`.'            BRA.S    *+$0016             ; 00000CDE
00000CCA: 4878 0006       'Hx..'          PEA      $0006               
00000CCE: 4EBA 16EC       'N...'          JSR      *+$16EE             ; rand()
00000CD2: 204D            ' M'            MOVEA.L  A5,A0               
00000CD4: 48C0            'H.'            EXT.L    D0                  
00000CD6: E588            '..'            LSL.L    #$2,D0              
00000CD8: D1C0            '..'            ADDA.L   D0,A0               
00000CDA: 2028 F932       ' (.2'          MOVE.L   -$06CE(A0),D0       
00000CDE: 4E5E            'N^'            UNLK     A6                  
00000CE0: 4E75            'Nu'            RTS                          
---
00000CE2: 8872            '.r'            DC.W     $8872               ; ????
00000CE4: 616E            'an'            BSR.S    *+$0070             ; 00000D54
00000CE6: 646D            'dm'            BCC.S    *+$006F             ; 00000D55
00000CE8: 6573            'es'            BCS.S    *+$0075             ; 00000D5D
00000CEA: 7300            's.'            DC.W     $7300               ; ????
00000CEC: 0000


Jump Table 124:
(func extern code9-anon2)
00000CEE: 2F0C            '/.'            MOVE.L   A4,-(A7)            
00000CF0: 286D 9894       '(m..'          MOVEA.L  -$676C(A5),A4       
00000CF4: 2054            ' T'            MOVEA.L  (A4),A0             
00000CF6: 3028 005E       '0(.^'          MOVE.W   $005E(A0),D0        
00000CFA: D0C0            '..'            ADDA.W   D0,A0               
00000CFC: 3B70 0060 F94A  ';p.`.J'        MOVE.W   $60(A0,D0.W),-$06B6(A5) 
00000D02: 2F0C            '/.'            MOVE.L   A4,-(A7)            
00000D04: A9D9            '..'            _TEDeactivate                     ; A9D9
00000D06: 285F            '(_'            MOVEA.L  (A7)+,A4            
00000D08: 4E75            'Nu'            RTS                          


Jump Table 125:
(func extern code9-anon3)
00000D0A: 2F0C            '/.'            MOVE.L   A4,-(A7)            
00000D0C: 286D 9894       '(m..'          MOVEA.L  -$676C(A5),A4       
00000D10: 2054            ' T'            MOVEA.L  (A4),A0             
00000D12: 316D F94A 0020  '1m.J. '        MOVE.W   -$06B6(A5),$0020(A0) 
00000D18: 2054            ' T'            MOVEA.L  (A4),A0             
00000D1A: 317C 7FFF 0022  '1|..."'        MOVE.W   #$7FFF,$0022(A0)    
00000D20: 2F0C            '/.'            MOVE.L   A4,-(A7)            
00000D22: A9D8            '..'            _TEActivate                     ; A9D8
00000D24: 285F            '(_'            MOVEA.L  (A7)+,A4            
00000D26: 4E75            'Nu'            RTS                          

Jump Table 126:
(func extern News)
00000D28: 4E56 0000       'NV..'          LINK     A6,#$0000           
00000D2C: 3F2E 001A       '?...'          MOVE.W   $001A(A6),-(A7)     
00000D30: 3F2E 0018       '?...'          MOVE.W   $0018(A6),-(A7)     
00000D34: 3F2E 0016       '?...'          MOVE.W   $0016(A6),-(A7)     
00000D38: 3F2E 0014       '?...'          MOVE.W   $0014(A6),-(A7)     
00000D3C: 3F2E 0012       '?...'          MOVE.W   $0012(A6),-(A7)     
00000D40: 3F2E 0010       '?...'          MOVE.W   $0010(A6),-(A7)     
00000D44: 3F2E 000E       '?...'          MOVE.W   $000E(A6),-(A7)     
00000D48: 3F2E 000C       '?...'          MOVE.W   $000C(A6),-(A7)     
00000D4C: 2F2E 0008       '/...'          MOVE.L   $0008(A6),-(A7)     
00000D50: 486D 97F6       'Hm..'          PEA      -$680A(A5)          
00000D54: 4EBA 000E       'N...'          JSR      *+$0010             ; Display()
00000D58: 4E5E            'N^'            UNLK     A6                  
00000D5A: 4E75            'Nu'            RTS                          
---
00000D5C: 844E            '.N'            OR.W     A6,D2               
00000D5E: 6577            'ew'            BCS.S    *+$0079             ; 00000DD7
00000D60: 7300            's.'            DC.W     $7300               ; ????
00000D62: 0000

(func intern Display)
00000D64: 4E56 0000       'NV..'          LINK     A6,#$0000           
00000D68: 48E7 0708       'H...'          MOVEM.L  D5-D7/A4,-(A7)      
00000D6C: 286E 0008       '(n..'          MOVEA.L  $0008(A6),A4        
00000D70: 206C 009E       ' l..'          MOVEA.L  $009E(A4),A0        
00000D74: 2050            ' P'            MOVEA.L  (A0),A0             
00000D76: 226C 009E       '"l..'          MOVEA.L  $009E(A4),A1        
00000D7A: 2251            '"Q'            MOVEA.L  (A1),A1             
00000D7C: 3E29 000C       '>)..'          MOVE.W   $000C(A1),D7        
00000D80: 48C7            'H.'            EXT.L    D7                  
00000D82: 8FE8 0018       '....'          DIVS.W   $0018(A0),D7  
00000D86: 41ED 97F6       'A...'          LEA      -$680A(A5),A0       
00000D8A: B1CC            '..'            CMPA.L   A4,A0               
00000D8C: 6600 0142       'f..B'          BNE      *+$0144             ; 00000ED0
00000D90: 2F2C 009E       '/,..'          MOVE.L   $009E(A4),-(A7)     
00000D94: A9D9            '..'            _TEDeactivate                     ; A9D9
00000D96: 206C 009E       ' l..'          MOVEA.L  $009E(A4),A0        
00000D9A: 2050            ' P'            MOVEA.L  (A0),A0             
00000D9C: 3A28 005E       ':(.^'          MOVE.W   $005E(A0),D5        
00000DA0: 206C 009E       ' l..'          MOVEA.L  $009E(A4),A0        
00000DA4: 2050            ' P'            MOVEA.L  (A0),A0             
00000DA6: D0C5            '..'            ADDA.W   D5,A0               
00000DA8: 226C 009E       '"l..'          MOVEA.L  $009E(A4),A1        
00000DAC: 2251            '"Q'            MOVEA.L  (A1),A1             
00000DAE: 3030 5060       '00P`'          MOVE.W   $60(A0,D5.W),D0     
00000DB2: 3340 0022       '3@."'          MOVE.W   D0,$0022(A1)        
00000DB6: 206C 009E       ' l..'          MOVEA.L  $009E(A4),A0        
00000DBA: 2050            ' P'            MOVEA.L  (A0),A0             
00000DBC: 3140 0020       '1@. '          MOVE.W   D0,$0020(A0)        
00000DC0: 3F2E 001E       '?...'          MOVE.W   $001E(A6),-(A7)     
00000DC4: 3F2E 001C       '?...'          MOVE.W   $001C(A6),-(A7)     
00000DC8: 3F2E 001A       '?...'          MOVE.W   $001A(A6),-(A7)     
00000DCC: 3F2E 0018       '?...'          MOVE.W   $0018(A6),-(A7)     
00000DD0: 3F2E 0016       '?...'          MOVE.W   $0016(A6),-(A7)     
00000DD4: 3F2E 0014       '?...'          MOVE.W   $0014(A6),-(A7)     
00000DD8: 3F2E 0012       '?...'          MOVE.W   $0012(A6),-(A7)     
00000DDC: 3F2E 0010       '?...'          MOVE.W   $0010(A6),-(A7)     
00000DE0: 2F2E 000C       '/...'          MOVE.L   $000C(A6),-(A7)     
00000DE4: 2F2C 009E       '/,..'          MOVE.L   $009E(A4),-(A7)     
00000DE8: 4EBA 138A       'N...'          JSR      *+$138C             ; tprintf()
00000DEC: 206C 009E       ' l..'          MOVEA.L  $009E(A4),A0        
00000DF0: 2050            ' P'            MOVEA.L  (A0),A0             
00000DF2: 0C68 0014 005E  '.h...^'        CMPI.W   #$0014,$005E(A0)    
00000DF8: 4FEF 0018       'O...'          LEA      $0018(A7),A7        
00000DFC: 6F78            'ox'            BLE.S    *+$007A             ; 00000E76
00000DFE: 206C 009E       ' l..'          MOVEA.L  $009E(A4),A0        
00000E02: 2050            ' P'            MOVEA.L  (A0),A0             
00000E04: 4268 0020       'Bh. '          CLR.W    $0020(A0)           
00000E08: 206C 009E       ' l..'          MOVEA.L  $009E(A4),A0        
00000E0C: 226C 009E       '"l..'          MOVEA.L  $009E(A4),A1        
00000E10: 2251            '"Q'            MOVEA.L  (A1),A1             
00000E12: 3029 005E       '0).^'          MOVE.W   $005E(A1),D0        
00000E16: 9045            '.E'            SUB.W    D5,D0               
00000E18: 2050            ' P'            MOVEA.L  (A0),A0             
00000E1A: D0C0            '..'            ADDA.W   D0,A0               
00000E1C: 226C 009E       '"l..'          MOVEA.L  $009E(A4),A1        
00000E20: 2251            '"Q'            MOVEA.L  (A1),A1             
00000E22: 3370 0060 0022  '3p.`."'        MOVE.W   $60(A0,D0.W),$0022(A1) 
00000E28: 206C 009E       ' l..'          MOVEA.L  $009E(A4),A0        
00000E2C: 2050            ' P'            MOVEA.L  (A0),A0             
00000E2E: 3028 0022       '0(."'          MOVE.W   $0022(A0),D0        
00000E32: 916D F94A       '.m.J'          SUB.W    D0,-$06B6(A5)       
00000E36: 206C 009E       ' l..'          MOVEA.L  $009E(A4),A0        
00000E3A: 2050            ' P'            MOVEA.L  (A0),A0             
00000E3C: 4A68 0022       'Jh."'          TST.W    $0022(A0)           
00000E40: 6F06            'o.'            BLE.S    *+$0008             ; 00000E48
00000E42: 2F2C 009E       '/,..'          MOVE.L   $009E(A4),-(A7)     
00000E46: A9D7            '..'            _TEDelete                     ; A9D7
00000E48: 206C 009E       ' l..'          MOVEA.L  $009E(A4),A0        
00000E4C: 226C 009E       '"l..'          MOVEA.L  $009E(A4),A1        
00000E50: 2251            '"Q'            MOVEA.L  (A1),A1             
00000E52: 3269 005E       '2i.^'          MOVEA.W  $005E(A1),A1        
00000E56: D3C9            '..'            ADDA.L   A1,A1               
00000E58: D3D0            '..'            ADDA.L   (A0),A1             
00000E5A: 206C 009E       ' l..'          MOVEA.L  $009E(A4),A0        
00000E5E: 2050            ' P'            MOVEA.L  (A0),A0             
00000E60: 3029 0060       '0).`'          MOVE.W   $0060(A1),D0        
00000E64: 3140 0022       '1@."'          MOVE.W   D0,$0022(A0)        
00000E68: 206C 009E       ' l..'          MOVEA.L  $009E(A4),A0        
00000E6C: 2050            ' P'            MOVEA.L  (A0),A0             
00000E6E: 3140 0020       '1@. '          MOVE.W   D0,$0020(A0)        
00000E72: 6000 00A0       '`...'          BRA      *+$00A2             ; 00000F14
00000E76: 206C 009E       ' l..'          MOVEA.L  $009E(A4),A0        
00000E7A: 2050            ' P'            MOVEA.L  (A0),A0             
00000E7C: BE68 005E       '.h.^'          CMP.W    $005E(A0),D7        
00000E80: 6C00 0092       'l...'          BGE      *+$0094             ; 00000F14
00000E84: 4267            'Bg'            CLR.W    -(A7)               
00000E86: 2F2C 00A2       '/,..'          MOVE.L   $00A2(A4),-(A7)     
00000E8A: A960            '.`'            _GetCtlValue                     ; A960
00000E8C: 206C 009E       ' l..'          MOVEA.L  $009E(A4),A0        
00000E90: 2050            ' P'            MOVEA.L  (A0),A0             
00000E92: 226C 009E       '"l..'          MOVEA.L  $009E(A4),A1        
00000E96: 2251            '"Q'            MOVEA.L  (A1),A1             
00000E98: 3C29 005E       '<).^'          MOVE.W   $005E(A1),D6        
00000E9C: 9C5F            '._'            SUB.W    (A7)+,D6            
00000E9E: 9C47            '.G'            SUB.W    D7,D6               
00000EA0: 4446            'DF'            NEG.W    D6                  
00000EA2: CDE8 0018       '....'          MULS.W   $0018(A0),D6        
00000EA6: 4A46            'JF'            TST.W    D6                  
00000EA8: 676A            'gj'            BEQ.S    *+$006C             ; 00000F14
00000EAA: 4267            'Bg'            CLR.W    -(A7)               
00000EAC: 3F06            '?.'            MOVE.W   D6,-(A7)            
00000EAE: 2F2C 009E       '/,..'          MOVE.L   $009E(A4),-(A7)     
00000EB2: A9DD            '..'            _TEScroll                     ; A9DD
00000EB4: 2F0C            '/.'            MOVE.L   A4,-(A7)            
00000EB6: 4EAD 00C2       'N...'          JSR      $00C2(A5)           ; mySetCtlMax()
00000EBA: 2EAC 00A2       '....'          MOVE.L   $00A2(A4),(A7)      
00000EBE: 206C 009E       ' l..'          MOVEA.L  $009E(A4),A0        
00000EC2: 2050            ' P'            MOVEA.L  (A0),A0             
00000EC4: 3028 005E       '0(.^'          MOVE.W   $005E(A0),D0        
00000EC8: 9047            '.G'            SUB.W    D7,D0               
00000ECA: 3F00            '?.'            MOVE.W   D0,-(A7)            
00000ECC: A963            '.c'            _SetCtlValue                     ; A963
00000ECE: 6044            '`D'            BRA.S    *+$0046             ; 00000F14
00000ED0: 3F2E 001E       '?...'          MOVE.W   $001E(A6),-(A7)     
00000ED4: 3F2E 001C       '?...'          MOVE.W   $001C(A6),-(A7)     
00000ED8: 3F2E 001A       '?...'          MOVE.W   $001A(A6),-(A7)     
00000EDC: 3F2E 0018       '?...'          MOVE.W   $0018(A6),-(A7)     
00000EE0: 3F2E 0016       '?...'          MOVE.W   $0016(A6),-(A7)     
00000EE4: 3F2E 0014       '?...'          MOVE.W   $0014(A6),-(A7)     
00000EE8: 3F2E 0012       '?...'          MOVE.W   $0012(A6),-(A7)     
00000EEC: 3F2E 0010       '?...'          MOVE.W   $0010(A6),-(A7)     
00000EF0: 2F2E 000C       '/...'          MOVE.L   $000C(A6),-(A7)     
00000EF4: 2F2C 009E       '/,..'          MOVE.L   $009E(A4),-(A7)     
00000EF8: 4EBA 127A       'N..z'          JSR      *+$127C             ; tprintf()
00000EFC: 206C 009E       ' l..'          MOVEA.L  $009E(A4),A0        
00000F00: 2050            ' P'            MOVEA.L  (A0),A0             
00000F02: BE68 005E       '.h.^'          CMP.W    $005E(A0),D7        
00000F06: 4FEF 0018       'O...'          LEA      $0018(A7),A7        
00000F0A: 6C08            'l.'            BGE.S    *+$000A             ; 00000F14
00000F0C: 2F0C            '/.'            MOVE.L   A4,-(A7)            
00000F0E: 4EAD 00C2       'N...'          JSR      $00C2(A5)           ; mySetCtlMax()
00000F12: 588F            'X.'            ADDQ.L   #$4,A7              
00000F14: 4CDF 10E0       'L...'          MOVEM.L  (A7)+,D5-D7/A4      
00000F18: 4E5E            'N^'            UNLK     A6                  
00000F1A: 4E75            'Nu'            RTS                          
---
00000F1C: 8744 6973       '.Dis'          PACK     D4,D3,#$6973        
00000F20: 706C            'pl'            MOVEQ    #$6C,D0             ; 'l'
00000F22: 6179            'ay'            BSR.S    *+$007B             ; 00000F9D
00000F24: 0000


Jump Table 127:
(func extern Nameit)
00000F26: 4E56 0000       'NV..'          LINK     A6,#$0000           
00000F2A: 48E7 0018       'H...'          MOVEM.L  A3/A4,-(A7)         
00000F2E: 286E 0008       '(n..'          MOVEA.L  $0008(A6),A4        
00000F32: 266E 000C       '&n..'          MOVEA.L  $000C(A6),A3        
00000F36: 082B 0004 0009  '.+....'        BTST     #$04,$0009(A3)      
00000F3C: 6718            'g.'            BEQ.S    *+$001A             ; 00000F56
00000F3E: 4A2B 0006       'J+..'          TST.B    $0006(A3)           
00000F42: 6612            'f.'            BNE.S    *+$0014             ; 00000F56
00000F44: 2F3C 0000 177E  '/<...~'        MOVE.L   #$0000177E,-(A7)    
00000F4A: 2F0C            '/.'            MOVE.L   A4,-(A7)            
00000F4C: 4EBA FE16       'N...'          JSR      *-$01E8             ; Display()
00000F50: 508F            'P.'            ADDQ.L   #$8,A7              
00000F52: 6000 0096       '`...'          BRA      *+$0098             ; 00000FEA
00000F56: 082B 0004 0009  '.+....'        BTST     #$04,$0009(A3)      
00000F5C: 6718            'g.'            BEQ.S    *+$001A             ; 00000F76
00000F5E: 0C2B 0002 0006  '.+....'        CMPI.B   #$02,$0006(A3)      
00000F64: 6610            'f.'            BNE.S    *+$0012             ; 00000F76
00000F66: 2F3C 0000 178A  '/<....'        MOVE.L   #$0000178A,-(A7)    
00000F6C: 2F0C            '/.'            MOVE.L   A4,-(A7)            
00000F6E: 4EBA FDF4       'N...'          JSR      *-$020A             ; Display()
00000F72: 508F            'P.'            ADDQ.L   #$8,A7              
00000F74: 6074            '`t'            BRA.S    *+$0076             ; 00000FEA
00000F76: 082B 0006 000B  '.+....'        BTST     #$06,$000B(A3)      
00000F7C: 6716            'g.'            BEQ.S    *+$0018             ; 00000F94
00000F7E: 4A2B 0006       'J+..'          TST.B    $0006(A3)           
00000F82: 6710            'g.'            BEQ.S    *+$0012             ; 00000F94
00000F84: 2F3C 0000 1794  '/<....'        MOVE.L   #$00001794,-(A7)    
00000F8A: 2F0C            '/.'            MOVE.L   A4,-(A7)            
00000F8C: 4EBA FDD6       'N...'          JSR      *-$0228             ; Display()
00000F90: 508F            'P.'            ADDQ.L   #$8,A7              
00000F92: 6056            '`V'            BRA.S    *+$0058             ; 00000FEA
00000F94: 4A2E 0011       'J...'          TST.B    $0011(A6)           
00000F98: 6608            'f.'            BNE.S    *+$000A             ; 00000FA2
00000F9A: 082B 0006 000A  '.+....'        BTST     #$06,$000A(A3)      
00000FA0: 6634            'f4'            BNE.S    *+$0036             ; 00000FD6
00000FA2: 0C6B 0001 0002  '.k....'        CMPI.W   #$0001,$0002(A3)    
00000FA8: 660E            'f.'            BNE.S    *+$0010             ; 00000FB8
00000FAA: 703C            'p<'            MOVEQ    #$3C,D0             ; '<'
00000FAC: C1D3            '..'            MULS.W   (A3),D0             
00000FAE: 204D            ' M'            MOVEA.L  A5,A0               
00000FB0: D1C0            '..'            ADDA.L   D0,A0               
00000FB2: 2028 EA4C       ' (.L'          MOVE.L   -$15B4(A0),D0       
00000FB6: 600A            '`.'            BRA.S    *+$000C             ; 00000FC2
00000FB8: 3F2B 0002       '?+..'          MOVE.W   $0002(A3),-(A7)     
00000FBC: 4EBA 0086       'N...'          JSR      *+$0088             ; saynumber()
00000FC0: 548F            'T.'            ADDQ.L   #$2,A7              
00000FC2: 2F00            '/.'            MOVE.L   D0,-(A7)            
00000FC4: 2F3C 0000 179E  '/<....'        MOVE.L   #$0000179E,-(A7)    
00000FCA: 2F0C            '/.'            MOVE.L   A4,-(A7)            
00000FCC: 4EBA FD96       'N...'          JSR      *-$0268             ; Display()
00000FD0: 4FEF 000C       'O...'          LEA      $000C(A7),A7        
00000FD4: 6014            '`.'            BRA.S    *+$0016             ; 00000FEA
00000FD6: 3F2B 0002       '?+..'          MOVE.W   $0002(A3),-(A7)     
00000FDA: 2F3C 0000 17A2  '/<....'        MOVE.L   #$000017A2,-(A7)    
00000FE0: 2F0C            '/.'            MOVE.L   A4,-(A7)            
00000FE2: 4EBA FD80       'N...'          JSR      *-$027E             ; Display()
00000FE6: 4FEF 000A       'O...'          LEA      $000A(A7),A7        
00000FEA: 082B 0006 0009  '.+....'        BTST     #$06,$0009(A3)      
00000FF0: 670E            'g.'            BEQ.S    *+$0010             ; 00001000
00000FF2: 2F3C 0000 17A6  '/<....'        MOVE.L   #$000017A6,-(A7)    
00000FF8: 2F0C            '/.'            MOVE.L   A4,-(A7)            
00000FFA: 4EBA FD68       'N..h'          JSR      *-$0296             ; Display()
00000FFE: 508F            'P.'            ADDQ.L   #$8,A7              
00001000: 0C6B 0001 0002  '.k....'        CMPI.W   #$0001,$0002(A3)    
00001006: 6608            'f.'            BNE.S    *+$000A             ; 00001010
00001008: 203C 0000 17AE  ' <....'        MOVE.L   #$000017AE,D0       
0000100E: 600C            '`.'            BRA.S    *+$000E             ; 0000101C
00001010: 703C            'p<'            MOVEQ    #$3C,D0             ; '<'
00001012: C1D3            '..'            MULS.W   (A3),D0             
00001014: 204D            ' M'            MOVEA.L  A5,A0               
00001016: D1C0            '..'            ADDA.L   D0,A0               
00001018: 2028 EA48       ' (.H'          MOVE.L   -$15B8(A0),D0       
0000101C: 2F00            '/.'            MOVE.L   D0,-(A7)            
0000101E: 703C            'p<'            MOVEQ    #$3C,D0             ; '<'
00001020: C1D3            '..'            MULS.W   (A3),D0             
00001022: 204D            ' M'            MOVEA.L  A5,A0               
00001024: D1C0            '..'            ADDA.L   D0,A0               
00001026: 2F28 EA44       '/(.D'          MOVE.L   -$15BC(A0),-(A7)    
0000102A: 2F0C            '/.'            MOVE.L   A4,-(A7)            
0000102C: 4EBA FD36       'N..6'          JSR      *-$02C8             ; Display()
00001030: 4CEE 1800 FFF8  'L.....'        MOVEM.L  -$0008(A6),A3/A4    
00001036: 4E5E            'N^'            UNLK     A6                  
00001038: 4E75            'Nu'            RTS                          
---
0000103A: 864E            '.N'            OR.W     A6,D3               
0000103C: 616D            'am'            BSR.S    *+$006F             ; 000010AB
0000103E: 6569            'ei'            BCS.S    *+$006B             ; 000010A9
00001040: 7400            't.'            MOVEQ    #$00,D2             
00001042: 0000


(func intern saynumber)
00001044: 4E56 0000       'NV..'          LINK     A6,#$0000           
00001048: 2F07            '/.'            MOVE.L   D7,-(A7)            
0000104A: 3E2E 0008       '>...'          MOVE.W   $0008(A6),D7        
0000104E: 422D F9C4       'B-..'          CLR.B    -$063C(A5)          
00001052: 4A47            'JG'            TST.W    D7                  
00001054: 6C0A            'l.'            BGE.S    *+$000C             ; 00001060
00001056: 203C 0000 17B0  ' <....'        MOVE.L   #$000017B0,D0       
0000105C: 6000 0106       '`...'          BRA      *+$0108             ; 00001164
00001060: 4A47            'JG'            TST.W    D7                  
00001062: 660A            'f.'            BNE.S    *+$000C             ; 0000106E
00001064: 203C 0000 17C2  ' <....'        MOVE.L   #$000017C2,D0       
0000106A: 6000 00F8       '`...'          BRA      *+$00FA             ; 00001164
0000106E: 2007            ' .'            MOVE.L   D7,D0               
00001070: 48C0            'H.'            EXT.L    D0                  
00001072: 81FC 03E8       '....'          DIVS.W   #$03E8,D0           
00001076: 670A            'g.'            BEQ.S    *+$000C             ; 00001082
00001078: 203C 0000 17C6  ' <....'        MOVE.L   #$000017C6,D0       
0000107E: 6000 00E4       '`...'          BRA      *+$00E6             ; 00001164
00001082: 2007            ' .'            MOVE.L   D7,D0               
00001084: 48C0            'H.'            EXT.L    D0                  
00001086: 81FC 0064       '...d'          DIVS.W   #$0064,D0           
0000108A: 674A            'gJ'            BEQ.S    *+$004C             ; 000010D6
0000108C: 2007            ' .'            MOVE.L   D7,D0               
0000108E: 48C0            'H.'            EXT.L    D0                  
00001090: 81FC 0064       '...d'          DIVS.W   #$0064,D0           
00001094: 204D            ' M'            MOVEA.L  A5,A0               
00001096: 48C0            'H.'            EXT.L    D0                  
00001098: E588            '..'            LSL.L    #$2,D0              
0000109A: D1C0            '..'            ADDA.L   D0,A0               
0000109C: 2F28 F94C       '/(.L'          MOVE.L   -$06B4(A0),-(A7)    
000010A0: 486D F9C4       'Hm..'          PEA      -$063C(A5)          
000010A4: 4EBA 0E54       'N..T'          JSR      *+$0E56             ; strcat()
000010A8: 2EBC 0000 17D8  '......'        MOVE.L   #$000017D8,(A7)     
000010AE: 486D F9C4       'Hm..'          PEA      -$063C(A5)          
000010B2: 4EBA 0E46       'N..F'          JSR      *+$0E48             ; strcat()
000010B6: 48C7            'H.'            EXT.L    D7                  
000010B8: 8FFC 0064       '...d'          DIVS.W   #$0064,D7           
000010BC: 4847            'HG'            SWAP     D7                  
000010BE: 4A47            'JG'            TST.W    D7                  
000010C0: 4FEF 000C       'O...'          LEA      $000C(A7),A7        
000010C4: 6710            'g.'            BEQ.S    *+$0012             ; 000010D6
000010C6: 2F3C 0000 17E2  '/<....'        MOVE.L   #$000017E2,-(A7)    
000010CC: 486D F9C4       'Hm..'          PEA      -$063C(A5)          
000010D0: 4EBA 0E28       'N..('          JSR      *+$0E2A             ; strcat()
000010D4: 508F            'P.'            ADDQ.L   #$8,A7              
000010D6: 0C47 0014       '.G..'          CMPI.W   #$0014,D7           
000010DA: 6C22            'l"'            BGE.S    *+$0024             ; 000010FE
000010DC: 4A47            'JG'            TST.W    D7                  
000010DE: 6F1E            'o.'            BLE.S    *+$0020             ; 000010FE
000010E0: 204D            ' M'            MOVEA.L  A5,A0               
000010E2: 2007            ' .'            MOVE.L   D7,D0               
000010E4: 48C0            'H.'            EXT.L    D0                  
000010E6: E588            '..'            LSL.L    #$2,D0              
000010E8: D1C0            '..'            ADDA.L   D0,A0               
000010EA: 2F28 F94C       '/(.L'          MOVE.L   -$06B4(A0),-(A7)    
000010EE: 486D F9C4       'Hm..'          PEA      -$063C(A5)          
000010F2: 4EBA 0E06       'N...'          JSR      *+$0E08             ; strcat()
000010F6: 41ED F9C4       'A...'          LEA      -$063C(A5),A0       
000010FA: 2008            ' .'            MOVE.L   A0,D0               
000010FC: 6066            '`f'            BRA.S    *+$0068             ; 00001164
000010FE: 2007            ' .'            MOVE.L   D7,D0               
00001100: 48C0            'H.'            EXT.L    D0                  
00001102: 81FC 000A       '....'          DIVS.W   #$000A,D0           
00001106: 673A            'g:'            BEQ.S    *+$003C             ; 00001142
00001108: 2007            ' .'            MOVE.L   D7,D0               
0000110A: 48C0            'H.'            EXT.L    D0                  
0000110C: 81FC 000A       '....'          DIVS.W   #$000A,D0           
00001110: 204D            ' M'            MOVEA.L  A5,A0               
00001112: 48C0            'H.'            EXT.L    D0                  
00001114: E588            '..'            LSL.L    #$2,D0              
00001116: D1C0            '..'            ADDA.L   D0,A0               
00001118: 2F28 F99C       '/(..'          MOVE.L   -$0664(A0),-(A7)    
0000111C: 486D F9C4       'Hm..'          PEA      -$063C(A5)          
00001120: 4EBA 0DD8       'N...'          JSR      *+$0DDA             ; strcat()
00001124: 48C7            'H.'            EXT.L    D7                  
00001126: 8FFC 000A       '....'          DIVS.W   #$000A,D7           
0000112A: 4847            'HG'            SWAP     D7                  
0000112C: 4A47            'JG'            TST.W    D7                  
0000112E: 508F            'P.'            ADDQ.L   #$8,A7              
00001130: 6710            'g.'            BEQ.S    *+$0012             ; 00001142
00001132: 2F3C 0000 17E4  '/<....'        MOVE.L   #$000017E4,-(A7)    
00001138: 486D F9C4       'Hm..'          PEA      -$063C(A5)          
0000113C: 4EBA 0DBC       'N...'          JSR      *+$0DBE             ; strcat()
00001140: 508F            'P.'            ADDQ.L   #$8,A7              
00001142: 4A47            'JG'            TST.W    D7                  
00001144: 6718            'g.'            BEQ.S    *+$001A             ; 0000115E
00001146: 204D            ' M'            MOVEA.L  A5,A0               
00001148: 2007            ' .'            MOVE.L   D7,D0               
0000114A: 48C0            'H.'            EXT.L    D0                  
0000114C: E588            '..'            LSL.L    #$2,D0              
0000114E: D1C0            '..'            ADDA.L   D0,A0               
00001150: 2F28 F94C       '/(.L'          MOVE.L   -$06B4(A0),-(A7)    
00001154: 486D F9C4       'Hm..'          PEA      -$063C(A5)          
00001158: 4EBA 0DA0       'N...'          JSR      *+$0DA2             ; strcat()
0000115C: 508F            'P.'            ADDQ.L   #$8,A7              
0000115E: 41ED F9C4       'A...'          LEA      -$063C(A5),A0       
00001162: 2008            ' .'            MOVE.L   A0,D0               
00001164: 2E2E FFFC       '....'          MOVE.L   -$0004(A6),D7       
00001168: 4E5E            'N^'            UNLK     A6                  
0000116A: 4E75            'Nu'            RTS                          
---
0000116C: 8973 6179 6E75  '.saynu'        OR.W     D4,([$6E756D62,A3]) 
          6D62            'mb'    
00001174: 6572            'er'            BCS.S    *+$0074             ; 000011E8
00001176: 0000


Jump Table 128:
(func extern burnoil)
00001178: 4E56 0000       'NV..'          LINK     A6,#$0000           
0000117C: 2F0C            '/.'            MOVE.L   A4,-(A7)            
0000117E: 206E 000C       ' n..'          MOVEA.L  $000C(A6),A0        
00001182: 2868 0010       '(h..'          MOVEA.L  $0010(A0),A4        
00001186: 536C 0002       'Sl..'          SUBQ.W   #$1,$0002(A4)       
0000118A: 4A6C 0002       'Jl..'          TST.W    $0002(A4)           
0000118E: 661E            'f.'            BNE.S    *+$0020             ; 000011AE
00001190: 2F3C 0000 18B8  '/<....'        MOVE.L   #$000018B8,-(A7)    
00001196: 4EBA FB90       'N...'          JSR      *-$046E             ; News()
0000119A: 422D 9699       'B-..'          CLR.B    -$6967(A5)          
0000119E: 3EAD 9B4A       '>..J'          MOVE.W   -$64B6(A5),(A7)     
000011A2: 3F2D 9B48       '?-.H'          MOVE.W   -$64B8(A5),-(A7)    
000011A6: 4EAD 0132       'N..2'          JSR      $0132(A5)           ; view()
000011AA: 5C8F            '\.'            ADDQ.L   #$6,A7              
000011AC: 6018            '`.'            BRA.S    *+$001A             ; 000011C6
000011AE: 3F3C 0096       '?<..'          MOVE.W   #$0096,-(A7)        
000011B2: 2F2E 000C       '/...'          MOVE.L   $000C(A6),-(A7)     
000011B6: 486D 041A       'Hm..'          PEA      $041A(A5)           ; &burnoil()
000011BA: 2F2E 0008       '/...'          MOVE.L   $0008(A6),-(A7)     
000011BE: 4EAD 010A       'N...'          JSR      $010A(A5)           ; AddRAEvent()
000011C2: 4FEF 000E       'O...'          LEA      $000E(A7),A7        
000011C6: 4EBA 08BE       'N...'          JSR      *+$08C0             ; code9-anon6()
000011CA: 4267            'Bg'            CLR.W    -(A7)               
000011CC: 4EBA 03D2       'N...'          JSR      *+$03D4             ; HeroStatus()
000011D0: 7000            'p.'            MOVEQ    #$00,D0             
000011D2: 286E FFFC       '(n..'          MOVEA.L  -$0004(A6),A4       
000011D6: 4E5E            'N^'            UNLK     A6                  
000011D8: 4E75            'Nu'            RTS                          
---
000011DA: 8762            '.b'            OR.W     D3,-(A2)            
000011DC: 7572            'ur'            DC.W     $7572               ; ????
000011DE: 6E6F            'no'            BGT.S    *+$0071             ; 0000124F
000011E0: 696C            'il'            BVS.S    *+$006E             ; 0000124E
000011E2: 0000


Jump Table 129:
(func extern oil)
000011E4: 4E56 0000       'NV..'          LINK     A6,#$0000           
000011E8: 2F0C            '/.'            MOVE.L   A4,-(A7)          
000011EA: 2F3C 0000 18DE  '/<....'        MOVE.L   #$000018DE,-(A7)    
000011F0: 4EAD 00F2       'N...'          JSR      $00F2(A5)           ; TypeNum()
000011F4: 3E80            '>.'            MOVE.W   D0,(A7)             
000011F6: 2F2D 9672       '/-.r'          MOVE.L   -$698E(A5),-(A7)    
000011FA: 4EAD 00D2       'N...'          JSR      $00D2(A5)           ; TypeInList()
000011FE: 2840            '(@'            MOVEA.L  D0,A4               
00001200: 200C            ' .'            MOVE.L   A4,D0               
00001202: 508F            'P.'            ADDQ.L   #$8,A7              
00001204: 661E            'f.'            BNE.S    *+$0020             ; 00001224
00001206: 2F3C 0000 18E4  '/<....'        MOVE.L   #$000018E4,-(A7)    
0000120C: 2F3C 0000 18E6  '/<....'        MOVE.L   #$000018E6,-(A7)    
00001212: 2F3C 0000 18E8  '/<....'        MOVE.L   #$000018E8,-(A7)    
00001218: 2F3C 0000 18EA  '/<....'        MOVE.L   #$000018EA,-(A7)    
0000121E: 4EBA 11FE       'N...'          JSR      *+$1200             ; TellUser()
00001222: 6012            '`.'            BRA.S    *+$0014             ; 00001236
00001224: 3F3C 0010       '?<..'          MOVE.W   #$0010,-(A7)        
00001228: 2F2E 0008       '/...'          MOVE.L   $0008(A6),-(A7)     
0000122C: 2F0C            '/.'            MOVE.L   A4,-(A7)            
0000122E: 4EBA 00EC       'N...'          JSR      *+$00EE             ; PutIn()
00001232: 4EAD 01CA       'N...'          JSR      $01CA(A5)           ; code2-anon1()
00001236: 286E FFFC       '(n..'          MOVEA.L  -$0004(A6),A4       
0000123A: 4E5E            'N^'            UNLK     A6                  
0000123C: 4E75            'Nu'            RTS                          
---
0000123E: 836F 696C       '.oil'          OR.W     D1,$696C(A7)        
00001242: 0000


Jump Table 130:
(func extern throwoil)
00001244: 4E56 0000       'NV..'          LINK     A6,#$0000           
00001248: 2F3C 0000 190E  '/<....'        MOVE.L   #$0000190E,-(A7)    
0000124E: 4EBA FAD8       'N...'          JSR      *-$0526             ; News()
00001252: 206E 0008       ' n..'          MOVEA.L  $0008(A6),A0        
00001256: 2050            ' P'            MOVEA.L  (A0),A0             
00001258: 4268 0002       'Bh..'          CLR.W    $0002(A0)           
0000125C: 4E5E            'N^'            UNLK     A6                  
0000125E: 4E75            'Nu'            RTS                          
---
00001260: 8874 6872       '.thr'          OR.W     $72(A4,D6.L),D4     
00001264: 6F77            'ow'            BLE.S    *+$0079             ; 000012DD
00001266: 6F69            'oi'            BLE.S    *+$006B             ; 000012D1
00001268: 6C00 0000       'l...'          BGE      *+$0002             ; 0000126A


Jump Table 131:
(func extern OutlineButton)
0000126C: 4E56 FFEE       'NV..'          LINK     A6,#$FFEE           
00001270: 486E FFEE       'Hn..'          PEA      -$0012(A6)          
00001274: A874            '.t'            _GetPort                     ; A874
00001276: 2F2E 0008       '/...'          MOVE.L   $0008(A6),-(A7)     
0000127A: 3F3C 0001       '?<..'          MOVE.W   #$0001,-(A7)        
0000127E: 486E FFFA       'Hn..'          PEA      -$0006(A6)          
00001282: 486E FFFC       'Hn..'          PEA      -$0004(A6)          
00001286: 486E FFF2       'Hn..'          PEA      -$000E(A6)          
0000128A: A98D            '..'            _GetDItem                     ; A98D
0000128C: 2F2E 0008       '/...'          MOVE.L   $0008(A6),-(A7)     
00001290: A873            '.s'            _SetPort                     ; A873
00001292: 2F3C 0003 0003  '/<....'        MOVE.L   #$00030003,-(A7)    
00001298: A89B            '..'            _PenSize                     ; A89B
0000129A: 486E FFF2       'Hn..'          PEA      -$000E(A6)          
0000129E: 2F3C FFFC FFFC  '/<....'        MOVE.L   #$FFFCFFFC,-(A7)    
000012A4: A8A9            '..'            _InsetRect                     ; A8A9
000012A6: 486E FFF2       'Hn..'          PEA      -$000E(A6)          
000012AA: 2F3C 0010 0010  '/<....'        MOVE.L   #$00100010,-(A7)    
000012B0: A8B0            '..'            _FrameRoundRect                     ; A8B0
000012B2: 2F3C 0001 0001  '/<....'        MOVE.L   #$00010001,-(A7)    
000012B8: A89B            '..'            _PenSize                     ; A89B
000012BA: 2F2E FFEE       '/...'          MOVE.L   -$0012(A6),-(A7)    
000012BE: A873            '.s'            _SetPort                     ; A873
000012C0: 4E5E            'N^'            UNLK     A6                  
000012C2: 4E75            'Nu'            RTS                          
---
000012C4: 8D4F 7574       '.Out'          PACK     -(A7),-(A6),#$7574  
000012C8: 6C69            'li'            BGE.S    *+$006B             ; 00001333
000012CA: 6E65            'ne'            BGT.S    *+$0067             ; 00001331
000012CC: 4275 7474       'Butt'          CLR.W    $74(A5,D7.W*4)      
000012D0: 6F6E            'on'            BLE.S    *+$0070             ; 00001340
000012D2: 0000


Jump Table 132:
(func extern poison)
000012D4: 4E56 0000       'NV..'          LINK     A6,#$0000           
000012D8: 3F3C FFFF       '?<..'          MOVE.W   #$FFFF,-(A7)        
000012DC: 4EBA 0830       'N..0'          JSR      *+$0832             ; AddHealth()
000012E0: 3EBC 0064       '>..d'          MOVE.W   #$0064,(A7)         
000012E4: 4EBA 10D6       'N...'          JSR      *+$10D8             ; rand()
000012E8: 4A40            'J@'            TST.W    D0                  
000012EA: 548F            'T.'            ADDQ.L   #$2,A7              
000012EC: 671E            'g.'            BEQ.S    *+$0020             ; 0000130C
000012EE: 3F3C 004B       '?<.K'          MOVE.W   #$004B,-(A7)        
000012F2: 4EBA 10C8       'N...'          JSR      *+$10CA             ; rand()
000012F6: 7270            'rp'            MOVEQ    #$70,D1             ; 'p'
000012F8: 9240            '.@'            SUB.W    D0,D1               
000012FA: 3E81            '>.'            MOVE.W   D1,(A7)             
000012FC: 42A7            'B.'            CLR.L    -(A7)               
000012FE: 486D 043A       'Hm.:'          PEA      $043A(A5)           ; &poison()
00001302: 42A7            'B.'            CLR.L    -(A7)               
00001304: 4EAD 010A       'N...'          JSR      $010A(A5)           ; AddRAEvent()
00001308: 4FEF 000E       'O...'          LEA      $000E(A7),A7        
0000130C: 7000            'p.'            MOVEQ    #$00,D0             
0000130E: 4E5E            'N^'            UNLK     A6                  
00001310: 4E75            'Nu'            RTS                          
---
00001312: 8670 6F69 736F  '.poiso'        OR.W     ([$736F,A0]),D3     
00001318: 6E00 0000       'n...'          BGT      *+$0002             ; 0000131A


Jump Table 133:
(func extern PutIn)
0000131C: 4E56 0000       'NV..'          LINK     A6,#$0000           
00001320: 48E7 0738       'H..8'          MOVEM.L  D5-D7/A2-A4,-(A7)   
00001324: 3E2E 0010       '>...'          MOVE.W   $0010(A6),D7        
00001328: 286E 0008       '(n..'          MOVEA.L  $0008(A6),A4        
0000132C: 266E 000C       '&n..'          MOVEA.L  $000C(A6),A3        
00001330: 41ED 97F6       'A...'          LEA      -$680A(A5),A0       
00001334: 2A08            '*.'            MOVE.L   A0,D5               
00001336: 4AAC 0010       'J...'          TST.L    $0010(A4)           
0000133A: 6752            'gR'            BEQ.S    *+$0054             ; 0000138E
0000133C: 206C 0010       ' l..'          MOVEA.L  $0010(A4),A0        
00001340: 3028 0002       '0(..'          MOVE.W   $0002(A0),D0        
00001344: D06B 0002       '.k..'          ADD.W    $0002(A3),D0        
00001348: BE40            '.@'            CMP.W    D0,D7               
0000134A: 6D22            'm"'            BLT.S    *+$0024             ; 0000136E
0000134C: 3C2B 0002       '<+..'          MOVE.W   $0002(A3),D6        
00001350: 206C 0010       ' l..'          MOVEA.L  $0010(A4),A0        
00001354: DD68 0002       '.h..'          ADD.W    D6,$0002(A0)        
00001358: 3F3C 0001       '?<..'          MOVE.W   #$0001,-(A7)        
0000135C: 2F0B            '/.'            MOVE.L   A3,-(A7)            
0000135E: 4EAD 024A       'N..J'          JSR      $024A(A5)           ; LetGoOf()
00001362: 2E80            '..'            MOVE.L   D0,(A7)             
00001364: 4EBA F838       'N..8'          JSR      *-$07C6             ; LoseThing()
00001368: 5C8F            '\.'            ADDQ.L   #$6,A7              
0000136A: 6000 0092       '`...'          BRA      *+$0094             ; 000013FE
0000136E: 206C 0010       ' l..'          MOVEA.L  $0010(A4),A0        
00001372: 3C07            '<.'            MOVE.W   D7,D6               
00001374: 9C68 0002       '.h..'          SUB.W    $0002(A0),D6        
00001378: 9D6B 0002       '.k..'          SUB.W    D6,$0002(A3)        
0000137C: 206C 0010       ' l..'          MOVEA.L  $0010(A4),A0        
00001380: 3147 0002       '1G..'          MOVE.W   D7,$0002(A0)        
00001384: 2F0B            '/.'            MOVE.L   A3,-(A7)            
00001386: 4EAD 0092       'N...'          JSR      $0092(A5)           ; NewInven()
0000138A: 588F            'X.'            ADDQ.L   #$4,A7              
0000138C: 6070            '`p'            BRA.S    *+$0072             ; 000013FE
0000138E: BE6B 0002       '.k..'          CMP.W    $0002(A3),D7        
00001392: 6D1C            'm.'            BLT.S    *+$001E             ; 000013B0
00001394: 3F3C 0001       '?<..'          MOVE.W   #$0001,-(A7)        
00001398: 2F0B            '/.'            MOVE.L   A3,-(A7)            
0000139A: 4EAD 024A       'N..J'          JSR      $024A(A5)           ; LetGoOf()
0000139E: 2940 0010       ')@..'          MOVE.L   D0,$0010(A4)        
000013A2: 006B 8000 000A  '.k....'        ORI.W    #$8000,$000A(A3)    
000013A8: 274C 0010       ''L..'          MOVE.L   A4,$0010(A3)        
000013AC: 5C8F            '\.'            ADDQ.L   #$6,A7              
000013AE: 604E            '`N'            BRA.S    *+$0050             ; 000013FE
000013B0: 102B 0006       '.+..'          MOVE.B   $0006(A3),D0        
000013B4: 4880            'H.'            EXT.W    D0                  
000013B6: 3F00            '?.'            MOVE.W   D0,-(A7)            
000013B8: 3F07            '?.'            MOVE.W   D7,-(A7)            
000013BA: 3F13            '?.'            MOVE.W   (A3),-(A7)          
000013BC: 4EBA F70A       'N...'          JSR      *-$08F4             ; MakeThing()
000013C0: 2440            '$@'            MOVEA.L  D0,A2               
000013C2: 200A            ' .'            MOVE.L   A2,D0               
000013C4: 5C8F            '\.'            ADDQ.L   #$6,A7              
000013C6: 671C            'g.'            BEQ.S    *+$001E             ; 000013E4
000013C8: 006A 8000 000A  '.j....'        ORI.W    #$8000,$000A(A2)    
000013CE: 9F6B 0002       '.k..'          SUB.W    D7,$0002(A3)        
000013D2: 294A 0010       ')J..'          MOVE.L   A2,$0010(A4)        
000013D6: 254C 0010       '%L..'          MOVE.L   A4,$0010(A2)        
000013DA: 2F0B            '/.'            MOVE.L   A3,-(A7)            
000013DC: 4EAD 0092       'N...'          JSR      $0092(A5)           ; NewInven()
000013E0: 588F            'X.'            ADDQ.L   #$4,A7              
000013E2: 601A            '`.'            BRA.S    *+$001C             ; 000013FE
000013E4: 3F3C 0001       '?<..'          MOVE.W   #$0001,-(A7)        
000013E8: 2F0B            '/.'            MOVE.L   A3,-(A7)            
000013EA: 4EAD 024A       'N..J'          JSR      $024A(A5)           ; LetGoOf()
000013EE: 2940 0010       ')@..'          MOVE.L   D0,$0010(A4)        
000013F2: 006B 8000 000A  '.k....'        ORI.W    #$8000,$000A(A3)    
000013F8: 274C 0010       ''L..'          MOVE.L   A4,$0010(A3)        
000013FC: 5C8F            '\.'            ADDQ.L   #$6,A7              
000013FE: 2F3C 0000 1952  '/<...R'        MOVE.L   #$00001952,-(A7)    
00001404: 4EBA F922       'N.."'          JSR      *-$06DC             ; News()
00001408: 3EBC 0001       '>...'          MOVE.W   #$0001,(A7)         
0000140C: 2F0C            '/.'            MOVE.L   A4,-(A7)            
0000140E: 2F05            '/.'            MOVE.L   D5,-(A7)            
00001410: 4EBA FB14       'N...'          JSR      *-$04EA             ; Nameit()
00001414: 2EBC 0000 1960  '.....`'        MOVE.L   #$00001960,(A7)     
0000141A: 4EBA F90C       'N...'          JSR      *-$06F2             ; News()
0000141E: 3EBC 0001       '>...'          MOVE.W   #$0001,(A7)         
00001422: 2F2C 0010       '/,..'          MOVE.L   $0010(A4),-(A7)     
00001426: 2F05            '/.'            MOVE.L   D5,-(A7)            
00001428: 4EBA FAFC       'N...'          JSR      *-$0502             ; Nameit()
0000142C: 4A46            'JF'            TST.W    D6                  
0000142E: 4FEF 0014       'O...'          LEA      $0014(A7),A7        
00001432: 660C            'f.'            BNE.S    *+$000E             ; 00001440
00001434: 2F3C 0000 196E  '/<...n'        MOVE.L   #$0000196E,-(A7)    
0000143A: 4EBA F8EC       'N...'          JSR      *-$0712             ; News()
0000143E: 588F            'X.'            ADDQ.L   #$4,A7              
00001440: 2F3C 0000 1986  '/<....'        MOVE.L   #$00001986,-(A7)    
00001446: 4EBA F8E0       'N...'          JSR      *-$071E             ; News()
0000144A: 4CEE 1CE0 FFE8  'L.....'        MOVEM.L  -$0018(A6),D5-D7/A2-A4 
00001450: 4E5E            'N^'            UNLK     A6                  
00001452: 4E75            'Nu'            RTS                          
---
00001454: 8550            '.P'            OR.W     D2,(A0)             
00001456: 7574            'ut'            DC.W     $7574               ; ????
00001458: 496E            'In'            DC.W     $496E               ; ????
0000145A: 0000

Jump Table 134:
(func extern code9-anon4)
0000145C: 2F07            '/.'            MOVE.L   D7,-(A7)            
0000145E: 3E2D 9682       '>-..'          MOVE.W   -$697E(A5),D7       
00001462: 48C7            'H.'            EXT.L    D7                  
00001464: 8FFC 0010       '....'          DIVS.W   #$0010,D7           
00001468: 48C7            'H.'            EXT.L    D7                  
0000146A: 8FFC 000A       '....'          DIVS.W   #$000A,D7           
0000146E: 5247            'RG'            ADDQ.W   #$1,D7              
00001470: 700A            'p.'            MOVEQ    #$0A,D0             
00001472: 9047            '.G'            SUB.W    D7,D0               
00001474: 5240            'R@'            ADDQ.W   #$1,D0              
00001476: 3F00            '?.'            MOVE.W   D0,-(A7)            
00001478: 2F3C 0000 198A  '/<....'        MOVE.L   #$0000198A,-(A7)    
0000147E: 4EBA EE3C       'N..<'          JSR      *-$11C2             ; GetAmount()
00001482: 3E80            '>.'            MOVE.W   D0,(A7)             
00001484: 4EBA 0008       'N...'          JSR      *+$000A             ; Speed()
00001488: 5C8F            '\.'            ADDQ.L   #$6,A7              
0000148A: 2E1F            '..'            MOVE.L   (A7)+,D7            
0000148C: 4E75            'Nu'            RTS                          


Jump Table 135:
(func extern Speed)
0000148E: 4E56 0000       'NV..'          LINK     A6,#$0000           
00001492: 48E7 0700       'H...'          MOVEM.L  D5-D7,-(A7)         
00001496: 3E2E 0008       '>...'          MOVE.W   $0008(A6),D7        
0000149A: 3A2D 9682       ':-..'          MOVE.W   -$697E(A5),D5       
0000149E: 48C5            'H.'            EXT.L    D5                  
000014A0: 8BFC 0010       '....'          DIVS.W   #$0010,D5           
000014A4: 48C5            'H.'            EXT.L    D5                  
000014A6: 8BFC 000A       '....'          DIVS.W   #$000A,D5           
000014AA: 5245            'RE'            ADDQ.W   #$1,D5              
000014AC: 4A47            'JG'            TST.W    D7                  
000014AE: 6700 00B6       'g...'          BEQ      *+$00B8             ; 00001566
000014B2: 4A47            'JG'            TST.W    D7                  
000014B4: 6C20            'l '            BGE.S    *+$0022             ; 000014D6
000014B6: 2F3C 0000 1994  '/<....'        MOVE.L   #$00001994,-(A7)    
000014BC: 2F3C 0000 1996  '/<....'        MOVE.L   #$00001996,-(A7)    
000014C2: 2F3C 0000 1998  '/<....'        MOVE.L   #$00001998,-(A7)    
000014C8: 2F3C 0000 199A  '/<....'        MOVE.L   #$0000199A,-(A7)    
000014CE: 4EBA 0F4E       'N..N'          JSR      *+$0F50             ; TellUser()
000014D2: 6000 0092       '`...'          BRA      *+$0094             ; 00001566
000014D6: 0C47 000A       '.G..'          CMPI.W   #$000A,D7           
000014DA: 6F28            'o('            BLE.S    *+$002A             ; 00001504
000014DC: 2F3C 0000 19AC  '/<....'        MOVE.L   #$000019AC,-(A7)    
000014E2: 2F3C 0000 19AE  '/<....'        MOVE.L   #$000019AE,-(A7)    
000014E8: 4878 000A       'Hx..'          PEA      $000A               
000014EC: 4EBA 0E2C       'N..,'          JSR      *+$0E2E             ; Pi2d()
000014F0: 2E80            '..'            MOVE.L   D0,(A7)             
000014F2: 2F3C 0000 19B0  '/<....'        MOVE.L   #$000019B0,-(A7)    
000014F8: 4EBA 0F24       'N..$'          JSR      *+$0F26             ; TellUser()
000014FC: 7E0A            '~.'            MOVEQ    #$0A,D7             
000014FE: 4FEF 0010       'O...'          LEA      $0010(A7),A7        
00001502: 603A            '`:'            BRA.S    *+$003C             ; 0000153E
00001504: 700A            'p.'            MOVEQ    #$0A,D0             
00001506: 9045            '.E'            SUB.W    D5,D0               
00001508: 5240            'R@'            ADDQ.W   #$1,D0              
0000150A: B047            '.G'            CMP.W    D7,D0               
0000150C: 6C30            'l0'            BGE.S    *+$0032             ; 0000153E
0000150E: 2F3C 0000 19D8  '/<....'        MOVE.L   #$000019D8,-(A7)    
00001514: 2F3C 0000 19DA  '/<....'        MOVE.L   #$000019DA,-(A7)    
0000151A: 700A            'p.'            MOVEQ    #$0A,D0             
0000151C: 9045            '.E'            SUB.W    D5,D0               
0000151E: 3040            '0@'            MOVEA.W  D0,A0               
00001520: 4868 0001       'Hh..'          PEA      $0001(A0)           
00001524: 4EBA 0DF4       'N...'          JSR      *+$0DF6             ; Pi2d()
00001528: 2E80            '..'            MOVE.L   D0,(A7)             
0000152A: 2F3C 0000 19DC  '/<....'        MOVE.L   #$000019DC,-(A7)    
00001530: 4EBA 0EEC       'N...'          JSR      *+$0EEE             ; TellUser()
00001534: 7E0A            '~.'            MOVEQ    #$0A,D7             
00001536: 9E45            '.E'            SUB.W    D5,D7               
00001538: 5247            'RG'            ADDQ.W   #$1,D7              
0000153A: 4FEF 0010       'O...'          LEA      $0010(A7),A7        
0000153E: 3C2D 9684       '<-..'          MOVE.W   -$697C(A5),D6       
00001542: 700A            'p.'            MOVEQ    #$0A,D0             
00001544: 9047            '.G'            SUB.W    D7,D0               
00001546: 5240            'R@'            ADDQ.W   #$1,D0              
00001548: 3B40 9684       ';@..'          MOVE.W   D0,-$697C(A5)       
0000154C: 4267            'Bg'            CLR.W    -(A7)               
0000154E: 4EBA 0050       'N..P'          JSR      *+$0052             ; HeroStatus()
00001552: BC6D 9684       '.m..'          CMP.W    -$697C(A5),D6       
00001556: 548F            'T.'            ADDQ.L   #$2,A7              
00001558: 6C08            'l.'            BGE.S    *+$000A             ; 00001562
0000155A: 4267            'Bg'            CLR.W    -(A7)               
0000155C: 4EAD 013A       'N..:'          JSR      $013A(A5)           ; MapMe()
00001560: 548F            'T.'            ADDQ.L   #$2,A7              
00001562: 4EBA 0014       'N...'          JSR      *+$0016             ; code9-anon5()
00001566: 4CEE 00E0 FFF4  'L.....'        MOVEM.L  -$000C(A6),D5-D7    
0000156C: 4E5E            'N^'            UNLK     A6                  
0000156E: 4E75            'Nu'            RTS                          
---
00001570: 8553            '.S'            OR.W     D2,(A3)             
00001572: 7065            'pe'            MOVEQ    #$65,D0             ; 'e'
00001574: 6564            'ed'            BCS.S    *+$0066             ; 000015DA
00001576: 0000


Jump Table 136:
(func extern code9-anon5)
00001578: 0C6D 0006 9684  '.m....'        CMPI.W   #$0006,-$697C(A5)   
0000157E: 6D14            'm.'            BLT.S    *+$0016             ; 00001594
00001580: 0C6D 0008 9684  '.m....'        CMPI.W   #$0008,-$697C(A5)   
00001586: 6C0C            'l.'            BGE.S    *+$000E             ; 00001594
00001588: 2F2D 9B58       '/-.X'          MOVE.L   -$64A8(A5),-(A7)    
0000158C: 3F3C 0002       '?<..'          MOVE.W   #$0002,-(A7)        
00001590: A939            '.9'            _EnableItem                     ; A939
00001592: 600A            '`.'            BRA.S    *+$000C             ; 0000159E
00001594: 2F2D 9B58       '/-.X'          MOVE.L   -$64A8(A5),-(A7)    
00001598: 3F3C 0002       '?<..'          MOVE.W   #$0002,-(A7)        
0000159C: A93A            '.:'            _DisableItem                     ; A93A
0000159E: 4E75            'Nu'            RTS                          


Jump Table 137:
(func extern HeroStatus)
000015A0: 4E56 FFEE       'NV..'          LINK     A6,#$FFEE           
000015A4: 2F07            '/.'            MOVE.L   D7,-(A7)            
000015A6: 1E2E 0009       '....'          MOVE.B   $0009(A6),D7        
000015AA: 42AE FFF8       'B...'          CLR.L    -$0008(A6)          
000015AE: 486E FFFC       'Hn..'          PEA      -$0004(A6)          
000015B2: A874            '.t'            _GetPort                     ; A874
000015B4: 2F2D E960       '/-.`'          MOVE.L   -$16A0(A5),-(A7)    
000015B8: A873            '.s'            _SetPort                     ; A873
000015BA: 4A07            'J.'            TST.B    D7                  
000015BC: 660A            'f.'            BNE.S    *+$000C             ; 000015C8
000015BE: 202D 9676       ' -.v'          MOVE.L   -$698A(A5),D0       
000015C2: B0AD FA34       '...4'          CMP.L    -$05CC(A5),D0       
000015C6: 6726            'g&'            BEQ.S    *+$0028             ; 000015EE
000015C8: 2F2D E960       '/-.`'          MOVE.L   -$16A0(A5),-(A7)    
000015CC: 3F3C 0001       '?<..'          MOVE.W   #$0001,-(A7)        
000015D0: 486E FFEE       'Hn..'          PEA      -$0012(A6)          
000015D4: 486E FFF8       'Hn..'          PEA      -$0008(A6)          
000015D8: 486E FFF0       'Hn..'          PEA      -$0010(A6)          
000015DC: A98D            '..'            _GetDItem                     ; A98D
000015DE: 2F2E FFF8       '/...'          MOVE.L   -$0008(A6),-(A7)    
000015E2: 2F2D 9676       '/-.v'          MOVE.L   -$698A(A5),-(A7)    
000015E6: 4EBA 0D32       'N..2'          JSR      *+$0D34             ; Pi2d()
000015EA: 2E80            '..'            MOVE.L   D0,(A7)             
000015EC: A98F            '..'            _SetIText                     ; A98F
000015EE: 4A07            'J.'            TST.B    D7                  
000015F0: 660A            'f.'            BNE.S    *+$000C             ; 000015FC
000015F2: 202D 967E       ' -.~'          MOVE.L   -$6982(A5),D0       
000015F6: B0AD FA2C       '...,'          CMP.L    -$05D4(A5),D0       
000015FA: 6726            'g&'            BEQ.S    *+$0028             ; 00001622
000015FC: 2F2D E960       '/-.`'          MOVE.L   -$16A0(A5),-(A7)    
00001600: 3F3C 0002       '?<..'          MOVE.W   #$0002,-(A7)        
00001604: 486E FFEE       'Hn..'          PEA      -$0012(A6)          
00001608: 486E FFF8       'Hn..'          PEA      -$0008(A6)          
0000160C: 486E FFF0       'Hn..'          PEA      -$0010(A6)          
00001610: A98D            '..'            _GetDItem                     ; A98D
00001612: 2F2E FFF8       '/...'          MOVE.L   -$0008(A6),-(A7)    
00001616: 2F2D 967E       '/-.~'          MOVE.L   -$6982(A5),-(A7)    
0000161A: 4EBA 0CFE       'N...'          JSR      *+$0D00             ; Pi2d()
0000161E: 2E80            '..'            MOVE.L   D0,(A7)             
00001620: A98F            '..'            _SetIText                     ; A98F
00001622: 4A07            'J.'            TST.B    D7                  
00001624: 660A            'f.'            BNE.S    *+$000C             ; 00001630
00001626: 302D 9686       '0-..'          MOVE.W   -$697A(A5),D0       
0000162A: B06D FA2A       '.m.*'          CMP.W    -$05D6(A5),D0       
0000162E: 6730            'g0'            BEQ.S    *+$0032             ; 00001660
00001630: 2F2D E960       '/-.`'          MOVE.L   -$16A0(A5),-(A7)    
00001634: 3F3C 0003       '?<..'          MOVE.W   #$0003,-(A7)        
00001638: 486E FFEE       'Hn..'          PEA      -$0012(A6)          
0000163C: 486E FFF8       'Hn..'          PEA      -$0008(A6)          
00001640: 486E FFF0       'Hn..'          PEA      -$0010(A6)          
00001644: A98D            '..'            _GetDItem                     ; A98D
00001646: 7000            'p.'            MOVEQ    #$00,D0             
00001648: 1007            '..'            MOVE.B   D7,D0               
0000164A: 3F00            '?.'            MOVE.W   D0,-(A7)            
0000164C: 3F3C 0064       '?<.d'          MOVE.W   #$0064,-(A7)        
00001650: 3F2D 9686       '?-..'          MOVE.W   -$697A(A5),-(A7)    
00001654: 486E FFF0       'Hn..'          PEA      -$0010(A6)          
00001658: 4EBA 02A2       'N...'          JSR      *+$02A4             ; Thermometer()
0000165C: 4FEF 000A       'O...'          LEA      $000A(A7),A7        
00001660: 4A07            'J.'            TST.B    D7                  
00001662: 660A            'f.'            BNE.S    *+$000C             ; 0000166E
00001664: 302D 9688       '0-..'          MOVE.W   -$6978(A5),D0       
00001668: B06D FA28       '.m.('          CMP.W    -$05D8(A5),D0       
0000166C: 6730            'g0'            BEQ.S    *+$0032             ; 0000169E
0000166E: 2F2D E960       '/-.`'          MOVE.L   -$16A0(A5),-(A7)    
00001672: 3F3C 0004       '?<..'          MOVE.W   #$0004,-(A7)        
00001676: 486E FFEE       'Hn..'          PEA      -$0012(A6)          
0000167A: 486E FFF8       'Hn..'          PEA      -$0008(A6)          
0000167E: 486E FFF0       'Hn..'          PEA      -$0010(A6)          
00001682: A98D            '..'            _GetDItem                     ; A98D
00001684: 7000            'p.'            MOVEQ    #$00,D0             
00001686: 1007            '..'            MOVE.B   D7,D0               
00001688: 3F00            '?.'            MOVE.W   D0,-(A7)            
0000168A: 3F3C 0010       '?<..'          MOVE.W   #$0010,-(A7)        
0000168E: 3F2D 9688       '?-..'          MOVE.W   -$6978(A5),-(A7)    
00001692: 486E FFF0       'Hn..'          PEA      -$0010(A6)          
00001696: 4EBA 0264       'N..d'          JSR      *+$0266             ; Thermometer()
0000169A: 4FEF 000A       'O...'          LEA      $000A(A7),A7        
0000169E: 4A07            'J.'            TST.B    D7                  
000016A0: 660A            'f.'            BNE.S    *+$000C             ; 000016AC
000016A2: 302D 9684       '0-..'          MOVE.W   -$697C(A5),D0       
000016A6: B06D FA32       '.m.2'          CMP.W    -$05CE(A5),D0       
000016AA: 672E            'g.'            BEQ.S    *+$0030             ; 000016DA
000016AC: 2F2D E960       '/-.`'          MOVE.L   -$16A0(A5),-(A7)    
000016B0: 3F3C 0005       '?<..'          MOVE.W   #$0005,-(A7)        
000016B4: 486E FFEE       'Hn..'          PEA      -$0012(A6)          
000016B8: 486E FFF8       'Hn..'          PEA      -$0008(A6)          
000016BC: 486E FFF0       'Hn..'          PEA      -$0010(A6)          
000016C0: A98D            '..'            _GetDItem                     ; A98D
000016C2: 2F2E FFF8       '/...'          MOVE.L   -$0008(A6),-(A7)    
000016C6: 700A            'p.'            MOVEQ    #$0A,D0             
000016C8: 906D 9684       '.m..'          SUB.W    -$697C(A5),D0       
000016CC: 3040            '0@'            MOVEA.W  D0,A0               
000016CE: 4868 0001       'Hh..'          PEA      $0001(A0)           
000016D2: 4EBA 0C46       'N..F'          JSR      *+$0C48             ; Pi2d()
000016D6: 2E80            '..'            MOVE.L   D0,(A7)             
000016D8: A98F            '..'            _SetIText                     ; A98F
000016DA: 4A07            'J.'            TST.B    D7                  
000016DC: 6610            'f.'            BNE.S    *+$0012             ; 000016EE
000016DE: 302D 9682       '0-..'          MOVE.W   -$697E(A5),D0       
000016E2: 48C0            'H.'            EXT.L    D0                  
000016E4: 81FC 0010       '....'          DIVS.W   #$0010,D0           
000016E8: B06D FA30       '.m.0'          CMP.W    -$05D0(A5),D0       
000016EC: 6730            'g0'            BEQ.S    *+$0032             ; 0000171E
000016EE: 2F2D E960       '/-.`'          MOVE.L   -$16A0(A5),-(A7)    
000016F2: 3F3C 0006       '?<..'          MOVE.W   #$0006,-(A7)        
000016F6: 486E FFEE       'Hn..'          PEA      -$0012(A6)          
000016FA: 486E FFF8       'Hn..'          PEA      -$0008(A6)          
000016FE: 486E FFF0       'Hn..'          PEA      -$0010(A6)          
00001702: A98D            '..'            _GetDItem                     ; A98D
00001704: 7000            'p.'            MOVEQ    #$00,D0             
00001706: 1007            '..'            MOVE.B   D7,D0               
00001708: 3F00            '?.'            MOVE.W   D0,-(A7)            
0000170A: 3F3C 0640       '?<.@'          MOVE.W   #$0640,-(A7)        
0000170E: 3F2D 9682       '?-..'          MOVE.W   -$697E(A5),-(A7)    
00001712: 486E FFF0       'Hn..'          PEA      -$0010(A6)          
00001716: 4EBA 01E4       'N...'          JSR      *+$01E6             ; Thermometer()
0000171A: 4FEF 000A       'O...'          LEA      $000A(A7),A7        
0000171E: 2F2E FFFC       '/...'          MOVE.L   -$0004(A6),-(A7)    
00001722: A873            '.s'            _SetPort                     ; A873
00001724: 3B6D 9688 FA28  ';m...('        MOVE.W   -$6978(A5),-$05D8(A5) 
0000172A: 3B6D 9686 FA2A  ';m...*'        MOVE.W   -$697A(A5),-$05D6(A5) 
00001730: 2B6D 967E FA2C  '+m.~.,'        MOVE.L   -$6982(A5),-$05D4(A5) 
00001736: 302D 9682       '0-..'          MOVE.W   -$697E(A5),D0       
0000173A: 48C0            'H.'            EXT.L    D0                  
0000173C: 81FC 0010       '....'          DIVS.W   #$0010,D0           
00001740: 3B40 FA30       ';@.0'          MOVE.W   D0,-$05D0(A5)       
00001744: 3B6D 9684 FA32  ';m...2'        MOVE.W   -$697C(A5),-$05CE(A5) 
0000174A: 2B6D 9676 FA34  '+m.v.4'        MOVE.L   -$698A(A5),-$05CC(A5) 
00001750: 2E1F            '..'            MOVE.L   (A7)+,D7            
00001752: 4E5E            'N^'            UNLK     A6                  
00001754: 4E75            'Nu'            RTS                          
---
00001756: 8A48            '.H'            OR.W     A0,D5               
00001758: 6572            'er'            BCS.S    *+$0074             ; 000017CC
0000175A: 6F53            'oS'            BLE.S    *+$0055             ; 000017AF
0000175C: 7461            'ta'            MOVEQ    #$61,D2             ; 'a'
0000175E: 7475            'tu'            MOVEQ    #$75,D2             ; 'u'
00001760: 7300            's.'            DC.W     $7300               ; ????
00001762: 0000


Jump Table 138:
(func extern UpdateTherm)
00001764: 4E56 FFF2       'NV..'          LINK     A6,#$FFF2           
00001768: 42AE FFFC       'B...'          CLR.L    -$0004(A6)          
0000176C: 302E 0008       '0...'          MOVE.W   $0008(A6),D0        
00001770: 6B00 00A4       'k...'          BMI      *+$00A6             ; 00001816
00001774: 5B40            '[@'            SUBQ.W   #$5,D0              
00001776: 6700 009E       'g...'          BEQ      *+$00A0             ; 00001816
0000177A: 6A0A            'j.'            BPL.S    *+$000C             ; 00001786
0000177C: 5440            'T@'            ADDQ.W   #$2,D0              
0000177E: 670E            'g.'            BEQ.S    *+$0010             ; 0000178E
00001780: 6A3A            'j:'            BPL.S    *+$003C             ; 000017BC
00001782: 6000 0092       '`...'          BRA      *+$0094             ; 00001816
00001786: 5540            'U@'            SUBQ.W   #$2,D0              
00001788: 6A00 008C       'j...'          BPL      *+$008E             ; 00001816
0000178C: 605C            '`\'            BRA.S    *+$005E             ; 000017EA
0000178E: 2F2D E960       '/-.`'          MOVE.L   -$16A0(A5),-(A7)    
00001792: 3F3C 0003       '?<..'          MOVE.W   #$0003,-(A7)        
00001796: 486E FFF2       'Hn..'          PEA      -$000E(A6)          
0000179A: 486E FFFC       'Hn..'          PEA      -$0004(A6)          
0000179E: 486E FFF4       'Hn..'          PEA      -$000C(A6)          
000017A2: A98D            '..'            _GetDItem                     ; A98D
000017A4: 2F3C 0064 0001  '/<.d..'        MOVE.L   #$00640001,-(A7)    
000017AA: 3F2D 9686       '?-..'          MOVE.W   -$697A(A5),-(A7)    
000017AE: 486E FFF4       'Hn..'          PEA      -$000C(A6)          
000017B2: 4EBA 0148       'N..H'          JSR      *+$014A             ; Thermometer()
000017B6: 4FEF 000A       'O...'          LEA      $000A(A7),A7        
000017BA: 605A            '`Z'            BRA.S    *+$005C             ; 00001816
000017BC: 2F2D E960       '/-.`'          MOVE.L   -$16A0(A5),-(A7)    
000017C0: 3F3C 0004       '?<..'          MOVE.W   #$0004,-(A7)        
000017C4: 486E FFF2       'Hn..'          PEA      -$000E(A6)          
000017C8: 486E FFFC       'Hn..'          PEA      -$0004(A6)          
000017CC: 486E FFF4       'Hn..'          PEA      -$000C(A6)          
000017D0: A98D            '..'            _GetDItem                     ; A98D
000017D2: 2F3C 0010 0001  '/<....'        MOVE.L   #$00100001,-(A7)    
000017D8: 3F2D 9688       '?-..'          MOVE.W   -$6978(A5),-(A7)    
000017DC: 486E FFF4       'Hn..'          PEA      -$000C(A6)          
000017E0: 4EBA 011A       'N...'          JSR      *+$011C             ; Thermometer()
000017E4: 4FEF 000A       'O...'          LEA      $000A(A7),A7        
000017E8: 602C            '`,'            BRA.S    *+$002E             ; 00001816
000017EA: 2F2D E960       '/-.`'          MOVE.L   -$16A0(A5),-(A7)    
000017EE: 3F3C 0006       '?<..'          MOVE.W   #$0006,-(A7)        
000017F2: 486E FFF2       'Hn..'          PEA      -$000E(A6)          
000017F6: 486E FFFC       'Hn..'          PEA      -$0004(A6)          
000017FA: 486E FFF4       'Hn..'          PEA      -$000C(A6)          
000017FE: A98D            '..'            _GetDItem                     ; A98D
00001800: 2F3C 063F 0001  '/<.?..'        MOVE.L   #$063F0001,-(A7)    
00001806: 3F2D 9682       '?-..'          MOVE.W   -$697E(A5),-(A7)    
0000180A: 486E FFF4       'Hn..'          PEA      -$000C(A6)          
0000180E: 4EBA 00EC       'N...'          JSR      *+$00EE             ; Thermometer()
00001812: 4FEF 000A       'O...'          LEA      $000A(A7),A7        
00001816: 4E5E            'N^'            UNLK     A6                  
00001818: 205F            ' _'            MOVEA.L  (A7)+,A0            
0000181A: 5C8F            '\.'            ADDQ.L   #$6,A7              
0000181C: 4ED0            'N.'            JMP      (A0)    
---            
0000181E: 8B55            '.U'            OR.W     D5,(A5)             
00001820: 7064            'pd'            MOVEQ    #$64,D0             ; 'd'
00001822: 6174            'at'            BSR.S    *+$0076             ; 00001898
00001824: 6554            'eT'            BCS.S    *+$0056             ; 0000187A
00001826: 6865            'he'            BVC.S    *+$0067             ; 0000188D
00001828: 726D            'rm'            MOVEQ    #$6D,D1             ; 'm'
0000182A: 0000


Jump Table 139:
(func extern InitStatus)
0000182C: 4E56 FFF2       'NV..'          LINK     A6,#$FFF2           
00001830: 42AE FFFC       'B...'          CLR.L    -$0004(A6)          
00001834: 2F2D E960       '/-.`'          MOVE.L   -$16A0(A5),-(A7)    
00001838: 3F3C 0003       '?<..'          MOVE.W   #$0003,-(A7)        
0000183C: 486E FFF2       'Hn..'          PEA      -$000E(A6)          
00001840: 486E FFFC       'Hn..'          PEA      -$0004(A6)          
00001844: 486E FFF4       'Hn..'          PEA      -$000C(A6)          
00001848: A98D            '..'            _GetDItem                     ; A98D
0000184A: 2F2D E960       '/-.`'          MOVE.L   -$16A0(A5),-(A7)    
0000184E: 3F3C 0003       '?<..'          MOVE.W   #$0003,-(A7)        
00001852: 3F2E FFF2       '?...'          MOVE.W   -$000E(A6),-(A7)    
00001856: 486D 046A       'Hm.j'          PEA      $046A(A5)           ; &UpdateTherm()
0000185A: 486E FFF4       'Hn..'          PEA      -$000C(A6)          
0000185E: A98E            '..'            _SetDItem                     ; A98E
00001860: 2F2D E960       '/-.`'          MOVE.L   -$16A0(A5),-(A7)    
00001864: 3F3C 0004       '?<..'          MOVE.W   #$0004,-(A7)        
00001868: 486E FFF2       'Hn..'          PEA      -$000E(A6)          
0000186C: 486E FFFC       'Hn..'          PEA      -$0004(A6)          
00001870: 486E FFF4       'Hn..'          PEA      -$000C(A6)          
00001874: A98D            '..'            _GetDItem                     ; A98D
00001876: 2F2D E960       '/-.`'          MOVE.L   -$16A0(A5),-(A7)    
0000187A: 3F3C 0004       '?<..'          MOVE.W   #$0004,-(A7)        
0000187E: 3F2E FFF2       '?...'          MOVE.W   -$000E(A6),-(A7)    
00001882: 486D 046A       'Hm.j'          PEA      $046A(A5)           ; &UpdateTherm()
00001886: 486E FFF4       'Hn..'          PEA      -$000C(A6)          
0000188A: A98E            '..'            _SetDItem                     ; A98E
0000188C: 2F2D E960       '/-.`'          MOVE.L   -$16A0(A5),-(A7)    
00001890: 3F3C 0006       '?<..'          MOVE.W   #$0006,-(A7)        
00001894: 486E FFF2       'Hn..'          PEA      -$000E(A6)          
00001898: 486E FFFC       'Hn..'          PEA      -$0004(A6)          
0000189C: 486E FFF4       'Hn..'          PEA      -$000C(A6)          
000018A0: A98D            '..'            _GetDItem                     ; A98D
000018A2: 2F2D E960       '/-.`'          MOVE.L   -$16A0(A5),-(A7)    
000018A6: 3F3C 0006       '?<..'          MOVE.W   #$0006,-(A7)        
000018AA: 3F2E FFF2       '?...'          MOVE.W   -$000E(A6),-(A7)    
000018AE: 486D 046A       'Hm.j'          PEA      $046A(A5)           ; &UpdateTherm()
000018B2: 486E FFF4       'Hn..'          PEA      -$000C(A6)          
000018B6: A98E            '..'            _SetDItem                     ; A98E
000018B8: 2F2D E960       '/-.`'          MOVE.L   -$16A0(A5),-(A7)    
000018BC: 3F3C 000D       '?<..'          MOVE.W   #$000D,-(A7)        
000018C0: 486E FFF2       'Hn..'          PEA      -$000E(A6)          
000018C4: 486E FFFC       'Hn..'          PEA      -$0004(A6)          
000018C8: 486E FFF4       'Hn..'          PEA      -$000C(A6)          
000018CC: A98D            '..'            _GetDItem                     ; A98D
000018CE: 2F2D E960       '/-.`'          MOVE.L   -$16A0(A5),-(A7)    
000018D2: 3F3C 000D       '?<..'          MOVE.W   #$000D,-(A7)        
000018D6: 3F2E FFF2       '?...'          MOVE.W   -$000E(A6),-(A7)    
000018DA: 486D 047A       'Hm.z'          PEA      $047A(A5)           ; &UpdateCompass()
000018DE: 486E FFF4       'Hn..'          PEA      -$000C(A6)          
000018E2: A98E            '..'            _SetDItem                     ; A98E
000018E4: 2F2D E960       '/-.`'          MOVE.L   -$16A0(A5),-(A7)    
000018E8: A915            '..'            _ShowWindow                     ; A915
000018EA: 4E5E            'N^'            UNLK     A6                  
000018EC: 4E75            'Nu'            RTS                          
---
000018EE: 8A49            '.I'            OR.W     A1,D5               
000018F0: 6E69            'ni'            BGT.S    *+$006B             ; 0000195B
000018F2: 7453            'tS'            MOVEQ    #$53,D2             ; 'S'
000018F4: 7461            'ta'            MOVEQ    #$61,D2             ; 'a'
000018F6: 7475            'tu'            MOVEQ    #$75,D2             ; 'u'
000018F8: 7300            's.'            DC.W     $7300               ; ????
000018FA: 0000


(func intern Thermometer)
000018FC: 4E56 FFF8       'NV..'          LINK     A6,#$FFF8           
00001900: 4A2E 0011       'J...'          TST.B    $0011(A6)           
00001904: 6706            'g.'            BEQ.S    *+$0008             ; 0000190C
00001906: 2F2E 0008       '/...'          MOVE.L   $0008(A6),-(A7)     
0000190A: A8A1            '..'            _FrameRect                     ; A8A1
0000190C: 206E 0008       ' n..'          MOVEA.L  $0008(A6),A0        
00001910: 2D50 FFF8       '-P..'          MOVE.L   (A0),-$0008(A6)     
00001914: 2D68 0004 FFFC  '-h....'        MOVE.L   $0004(A0),-$0004(A6) 
0000191A: 486E FFF8       'Hn..'          PEA      -$0008(A6)          
0000191E: 2F3C 0001 0001  '/<....'        MOVE.L   #$00010001,-(A7)    
00001924: A8A9            '..'            _InsetRect                     ; A8A9
00001926: 306E 000E       '0n..'          MOVEA.W  $000E(A6),A0        
0000192A: 2F08            '/.'            MOVE.L   A0,-(A7)            
0000192C: 302E FFFE       '0...'          MOVE.W   -$0002(A6),D0       
00001930: 906E FFFA       '.n..'          SUB.W    -$0006(A6),D0       
00001934: C1EE 000C       '....'          MULS.W   $000C(A6),D0        
00001938: 2F00            '/.'            MOVE.L   D0,-(A7)            
0000193A: 4EAD 005A       'N..Z'          JSR      $005A(A5)           ; code1-anon22()
0000193E: D06E FFFA       '.n..'          ADD.W    -$0006(A6),D0       
00001942: 3D40 FFFE       '=@..'          MOVE.W   D0,-$0002(A6)       
00001946: 486E FFF8       'Hn..'          PEA      -$0008(A6)          
0000194A: 486D 964E       'Hm.N'          PEA      -$69B2(A5)          
0000194E: A8A5            '..'            _FillRect                     ; A8A5
00001950: 4A6E 000C       'Jn..'          TST.W    $000C(A6)           
00001954: 672E            'g.'            BEQ.S    *+$0030             ; 00001984
00001956: 302E 000C       '0...'          MOVE.W   $000C(A6),D0        
0000195A: B06E 000E       '.n..'          CMP.W    $000E(A6),D0        
0000195E: 6724            'g$'            BEQ.S    *+$0026             ; 00001984
00001960: 486E FFF8       'Hn..'          PEA      -$0008(A6)          
00001964: 4878 FFFF       'Hx..'          PEA      $FFFF               
00001968: A8A9            '..'            _InsetRect                     ; A8A9
0000196A: 536E FFFE       'Sn..'          SUBQ.W   #$1,-$0002(A6)      
0000196E: 486E FFF8       'Hn..'          PEA      -$0008(A6)          
00001972: A8A1            '..'            _FrameRect                     ; A8A1
00001974: 526E FFFE       'Rn..'          ADDQ.W   #$1,-$0002(A6)      
00001978: 486E FFF8       'Hn..'          PEA      -$0008(A6)          
0000197C: 2F3C 0001 0001  '/<....'        MOVE.L   #$00010001,-(A7)    
00001982: A8A9            '..'            _InsetRect                     ; A8A9
00001984: 3D6E FFFE FFFA  '=n....'        MOVE.W   -$0002(A6),-$0006(A6) 
0000198A: 206E 0008       ' n..'          MOVEA.L  $0008(A6),A0        
0000198E: 70FF            'p.'            MOVEQ    #$FF,D0             
00001990: D068 0006       '.h..'          ADD.W    $0006(A0),D0        
00001994: 3D40 FFFE       '=@..'          MOVE.W   D0,-$0002(A6)       
00001998: 486E FFF8       'Hn..'          PEA      -$0008(A6)          
0000199C: 486D 965E       'Hm.^'          PEA      -$69A2(A5)          
000019A0: A8A5            '..'            _FillRect                     ; A8A5
000019A2: 4E5E            'N^'            UNLK     A6                  
000019A4: 4E75            'Nu'            RTS                          
---
000019A6: 8B54            '.T'            OR.W     D5,(A4)             
000019A8: 6865            'he'            BVC.S    *+$0067             ; 00001A0F
000019AA: 726D            'rm'            MOVEQ    #$6D,D1             ; 'm'
000019AC: 6F6D            'om'            BLE.S    *+$006F             ; 00001A1B
000019AE: 6574            'et'            BCS.S    *+$0076             ; 00001A24
000019B0: 6572            'er'            BCS.S    *+$0074             ; 00001A24
000019B2: 0000


Jump Table 140:
(func extern UpdateCompass)
000019B4: 4E56 0000       'NV..'          LINK     A6,#$0000           
000019B8: 4EBA 001A       'N...'          JSR      *+$001C             ; Compass()
000019BC: 4E5E            'N^'            UNLK     A6                  
000019BE: 205F            ' _'            MOVEA.L  (A7)+,A0            
000019C0: 5C8F            '\.'            ADDQ.L   #$6,A7              
000019C2: 4ED0            'N.'            JMP      (A0)                
---
000019C4: 8D55            '.U'            OR.W     D6,(A5)             
000019C6: 7064            'pd'            MOVEQ    #$64,D0             ; 'd'
000019C8: 6174            'at'            BSR.S    *+$0076             ; 00001A3E
000019CA: 6543            'eC'            BCS.S    *+$0045             ; 00001A0F
000019CC: 6F6D            'om'            BLE.S    *+$006F             ; 00001A3B
000019CE: 7061            'pa'            MOVEQ    #$61,D0             ; 'a'
000019D0: 7373            'ss'            DC.W     $7373               ; ????
000019D2: 0000 


Jump Table 141:
(func extern Compass)
000019D4: 4E56 FFFA       'NV..'          LINK     A6,#$FFFA           
000019D8: 48E7 0108       'H...'          MOVEM.L  D7/A4,-(A7)         
000019DC: 4AAD FA38       'J..8'          TST.L    -$05C8(A5)          
000019E0: 6616            'f.'            BNE.S    *+$0018             ; 000019F8
000019E2: 2F2D E960       '/-.`'          MOVE.L   -$16A0(A5),-(A7)    
000019E6: 3F3C 000D       '?<..'          MOVE.W   #$000D,-(A7)        
000019EA: 486E FFFA       'Hn..'          PEA      -$0006(A6)          
000019EE: 486D FA38       'Hm.8'          PEA      -$05C8(A5)          
000019F2: 486D FA3C       'Hm.<'          PEA      -$05C4(A5)          
000019F6: A98D            '..'            _GetDItem                     ; A98D
000019F8: 486E FFFC       'Hn..'          PEA      -$0004(A6)          
000019FC: A874            '.t'            _GetPort                     ; A874
000019FE: 2F2D E960       '/-.`'          MOVE.L   -$16A0(A5),-(A7)    
00001A02: A873            '.s'            _SetPort                     ; A873
00001A04: 4A2D 969E       'J-..'          TST.B    -$6962(A5)          
00001A08: 6748            'gH'            BEQ.S    *+$004A             ; 00001A52
00001A0A: 302D 9B4A       '0-.J'          MOVE.W   -$64B6(A5),D0       
00001A0E: 0C40 0008       '.@..'          CMPI.W   #$0008,D0           
00001A12: 6222            'b"'            BHI.S    *+$0024             ; 00001A36
00001A14: 43FA 005E       'C..^'          LEA      *+$0060,A1          ; 00001A74
00001A18: D040            '.@'            ADD.W    D0,D0               
00001A1A: D2F1 0000       '....'          ADDA.W   $00(A1,D0.W),A1     
00001A1E: 4ED1            'N.'            JMP      (A1)                ; switch jump
00001A20: 3E3C 2710       '><'.'          MOVE.W   #$2710,D7           
00001A24: 6010            '`.'            BRA.S    *+$0012             ; 00001A36
00001A26: 3E3C 2711       '><'.'          MOVE.W   #$2711,D7           
00001A2A: 600A            '`.'            BRA.S    *+$000C             ; 00001A36
00001A2C: 3E3C 2712       '><'.'          MOVE.W   #$2712,D7           
00001A30: 6004            '`.'            BRA.S    *+$0006             ; 00001A36
00001A32: 3E3C 2713       '><'.'          MOVE.W   #$2713,D7           
00001A36: 42A7            'B.'            CLR.L    -(A7)               
00001A38: 2F3C 5049 4354  '/<PICT'        MOVE.L   #$50494354,-(A7)    ; 'PICT'
00001A3E: 3F07            '?.'            MOVE.W   D7,-(A7)            
00001A40: A9A0            '..'            _GetResource                     ; A9A0
00001A42: 285F            '(_'            MOVEA.L  (A7)+,A4            
00001A44: 200C            ' .'            MOVE.L   A4,D0               
00001A46: 6714            'g.'            BEQ.S    *+$0016             ; 00001A5C
00001A48: 2F0C            '/.'            MOVE.L   A4,-(A7)            
00001A4A: 486D FA3C       'Hm.<'          PEA      -$05C4(A5)          
00001A4E: A8F6            '..'            _DrawPicture                     ; A8F6
00001A50: 600A            '`.'            BRA.S    *+$000C             ; 00001A5C
00001A52: 486D FA3C       'Hm.<'          PEA      -$05C4(A5)          
00001A56: 486D 965E       'Hm.^'          PEA      -$69A2(A5)          
00001A5A: A8A5            '..'            _FillRect                     ; A8A5
00001A5C: 2F2E FFFC       '/...'          MOVE.L   -$0004(A6),-(A7)    
00001A60: A873            '.s'            _SetPort                     ; A873
00001A62: 4CDF 1080       'L...'          MOVEM.L  (A7)+,D7/A4         
00001A66: 4E5E            'N^'            UNLK     A6                  
00001A68: 4E75            'Nu'            RTS                          
---
00001A6A: 8743 6F6D       '.Com'          PACK     D3,D3,#$6F6D        
00001A6E: 7061            'pa'            MOVEQ    #$61,D0             ; 'a'
00001A70: 7373            'ss'            DC.W     $7373               ; ????
00001A72: 0012 
00001A74: FFC2           '..'             DC.W     $FFC2               ; ????
00001A76: FFAC            '..'            DC.W     $FFAC               ; ????
00001A78: FFB8            '..'            DC.W     $FFB8               ; ????
00001A7A: FFC2            '..'            DC.W     $FFC2               ; ????
00001A7C: FFBE            '..'            DC.W     $FFBE               ; ????
00001A7E: FFC2            '..'            DC.W     $FFC2               ; ????
00001A80: FFC2            '..'            DC.W     $FFC2               ; ????
00001A82: FFC2            '..'            DC.W     $FFC2               ; ????
00001A84: FFB2            '..'            DC.W     $FFB2               ; ????


Jump Table 142:
(func extern code9-anon6)
00001A86: 48E7 0308       'H...'          MOVEM.L  D6/D7/A4,-(A7)      
00001A8A: 7E00            '~.'            MOVEQ    #$00,D7             
00001A8C: 286D 9672       '(m.r'          MOVEA.L  -$698E(A5),A4       
00001A90: 604A            '`J'            BRA.S    *+$004C             ; 00001ADC
00001A92: 082C 0000 0009  '.,....'        BTST     #$00,$0009(A4)      
00001A98: 673E            'g>'            BEQ.S    *+$0040             ; 00001AD8
00001A9A: 703C            'p<'            MOVEQ    #$3C,D0             ; '<'
00001A9C: C1D4            '..'            MULS.W   (A4),D0             
00001A9E: 204D            ' M'            MOVEA.L  A5,A0               
00001AA0: D1C0            '..'            ADDA.L   D0,A0               
00001AA2: 3028 EA36       '0(.6'          MOVE.W   -$15CA(A0),D0       
00001AA6: C1EC 0002       '....'          MULS.W   $0002(A4),D0        
00001AAA: DE40            '.@'            ADD.W    D0,D7               
00001AAC: 4AAC 0010       'J...'          TST.L    $0010(A4)           
00001AB0: 6726            'g&'            BEQ.S    *+$0028             ; 00001AD8
00001AB2: 206C 0010       ' l..'          MOVEA.L  $0010(A4),A0        
00001AB6: 0828 0000 0009  '.(....'        BTST     #$00,$0009(A0)      
00001ABC: 671A            'g.'            BEQ.S    *+$001C             ; 00001AD8
00001ABE: 206C 0010       ' l..'          MOVEA.L  $0010(A4),A0        
00001AC2: 226C 0010       '"l..'          MOVEA.L  $0010(A4),A1        
00001AC6: 703C            'p<'            MOVEQ    #$3C,D0             ; '<'
00001AC8: C1D1            '..'            MULS.W   (A1),D0             
00001ACA: 224D            '"M'            MOVEA.L  A5,A1               
00001ACC: D3C0            '..'            ADDA.L   D0,A1               
00001ACE: 3028 0002       '0(..'          MOVE.W   $0002(A0),D0        
00001AD2: C1E9 EA36       '...6'          MULS.W   -$15CA(A1),D0       
00001AD6: DE40            '.@'            ADD.W    D0,D7               
00001AD8: 286C 0014       '(l..'          MOVEA.L  $0014(A4),A4        
00001ADC: 200C            ' .'            MOVE.L   A4,D0               
00001ADE: 66B2            'f.'            BNE.S    *-$004C             ; 00001A92
00001AE0: 3B47 9682       ';G..'          MOVE.W   D7,-$697E(A5)       
00001AE4: 3C2D 9682       '<-..'          MOVE.W   -$697E(A5),D6       
00001AE8: 48C6            'H.'            EXT.L    D6                  
00001AEA: 8DFC 0010       '....'          DIVS.W   #$0010,D6           
00001AEE: 48C6            'H.'            EXT.L    D6                  
00001AF0: 8DFC 000A       '....'          DIVS.W   #$000A,D6           
00001AF4: 5246            'RF'            ADDQ.W   #$1,D6              
00001AF6: BC6D 9684       '.m..'          CMP.W    -$697C(A5),D6       
00001AFA: 6F04            'o.'            BLE.S    *+$0006             ; 00001B00
00001AFC: 3B46 9684       ';F..'          MOVE.W   D6,-$697C(A5)       
00001B00: 4267            'Bg'            CLR.W    -(A7)               
00001B02: 4EBA FA9C       'N...'          JSR      *-$0562             ; HeroStatus()
00001B06: 548F            'T.'            ADDQ.L   #$2,A7              
00001B08: 4CDF 10C0       'L...'          MOVEM.L  (A7)+,D6/D7/A4      
00001B0C: 4E75            'Nu'            RTS                          


Jump Table 143:
(func extern AddHealth)
00001B0E: 4E56 0000       'NV..'          LINK     A6,#$0000           
00001B12: 302E 0008       '0...'          MOVE.W   $0008(A6),D0        
00001B16: D16D 9686       '.m..'          ADD.W    D0,-$697A(A5)       
00001B1A: 0C6D 0064 9686  '.m.d..'        CMPI.W   #$0064,-$697A(A5)   
00001B20: 6F08            'o.'            BLE.S    *+$000A             ; 00001B2A
00001B22: 3B7C 0064 9686  ';|.d..'        MOVE.W   #$0064,-$697A(A5)   
00001B28: 6076            '`v'            BRA.S    *+$0078             ; 00001BA0
00001B2A: 4A6D 9686       'Jm..'          TST.W    -$697A(A5)          
00001B2E: 6E3A            'n:'            BGT.S    *+$003C             ; 00001B6A
00001B30: 426D 9686       'Bm..'          CLR.W    -$697A(A5)          
00001B34: 2F3C 0000 1A0E  '/<....'        MOVE.L   #$00001A0E,-(A7)    
00001B3A: 2F3C 0000 1A10  '/<....'        MOVE.L   #$00001A10,-(A7)    
00001B40: 2F3C 0000 1A12  '/<....'        MOVE.L   #$00001A12,-(A7)    
00001B46: 2F3C 0000 1A14  '/<....'        MOVE.L   #$00001A14,-(A7)    
00001B4C: 4EBA 08D0       'N...'          JSR      *+$08D2             ; TellUser()
00001B50: 4297            'B.'            CLR.L    (A7)                
00001B52: 3F3C 0001       '?<..'          MOVE.W   #$0001,-(A7)        
00001B56: 4EAD 00A2       'N...'          JSR      $00A2(A5)           ; mySetScroll()
00001B5A: 206D 9B70       ' m.p'          MOVEA.L  -$6490(A5),A0       
00001B5E: 2E90            '..'            MOVE.L   (A0),(A7)           
00001B60: A851            '.Q'            _SetCursor                     ; A851
00001B62: A9F4            '..'            _ExitToShell                     ; A9F4
00001B64: 4FEF 000E       'O...'          LEA      $000E(A7),A7        
00001B68: 6036            '`6'            BRA.S    *+$0038             ; 00001BA0
00001B6A: 0C6D 000A 9686  '.m....'        CMPI.W   #$000A,-$697A(A5)   
00001B70: 6C2E            'l.'            BGE.S    *+$0030             ; 00001BA0
00001B72: 302D 9686       '0-..'          MOVE.W   -$697A(A5),D0       
00001B76: 906E 0008       '.n..'          SUB.W    $0008(A6),D0        
00001B7A: 0C40 000A       '.@..'          CMPI.W   #$000A,D0           
00001B7E: 6F20            'o '            BLE.S    *+$0022             ; 00001BA0
00001B80: 2F3C 0000 1A34  '/<...4'        MOVE.L   #$00001A34,-(A7)    
00001B86: 2F3C 0000 1A36  '/<...6'        MOVE.L   #$00001A36,-(A7)    
00001B8C: 2F3C 0000 1A38  '/<...8'        MOVE.L   #$00001A38,-(A7)    
00001B92: 2F3C 0000 1A58  '/<...X'        MOVE.L   #$00001A58,-(A7)    
00001B98: 4EBA 0884       'N...'          JSR      *+$0886             ; TellUser()
00001B9C: 4FEF 0010       'O...'          LEA      $0010(A7),A7        
00001BA0: 4267            'Bg'            CLR.W    -(A7)               
00001BA2: 4EBA F9FC       'N...'          JSR      *-$0602             ; HeroStatus()
00001BA6: 4E5E            'N^'            UNLK     A6                  
00001BA8: 4E75            'Nu'            RTS                          
---
00001BAA: 8941 6464       '.Add'          PACK     D1,D4,#$6464        
00001BAE: 4865            'He'            PEA      -(A5)               
00001BB0: 616C            'al'            BSR.S    *+$006E             ; 00001C1E
00001BB2: 7468            'th'            MOVEQ    #$68,D2             ; 'h'
00001BB4: 0000


Jump Table 144:
(func extern code9-anon7)
00001BB6: 0C6D 0064 9686  '.m.d..'        CMPI.W   #$0064,-$697A(A5)   
00001BBC: 6C0A            'l.'            BGE.S    *+$000C             ; 00001BC8
00001BBE: 3F3C 0001       '?<..'          MOVE.W   #$0001,-(A7)        
00001BC2: 4EBA FF4A       'N..J'          JSR      *-$00B4             ; AddHealth()
00001BC6: 548F            'T.'            ADDQ.L   #$2,A7              
00001BC8: 3F3C 004B       '?<.K'          MOVE.W   #$004B,-(A7)        
00001BCC: 4EBA 07EE       'N...'          JSR      *+$07F0             ; rand()
00001BD0: 7270            'rp'            MOVEQ    #$70,D1             ; 'p'
00001BD2: 9240            '.@'            SUB.W    D0,D1               
00001BD4: 3E81            '>.'            MOVE.W   D1,(A7)             
00001BD6: 42A7            'B.'            CLR.L    -(A7)               
00001BD8: 486D 049A       'Hm..'          PEA      $049A(A5)           ; &code9-anon7()
00001BDC: 42A7            'B.'            CLR.L    -(A7)               
00001BDE: 4EAD 010A       'N...'          JSR      $010A(A5)           ; AddRAEvent()
00001BE2: 7000            'p.'            MOVEQ    #$00,D0             
00001BE4: 4FEF 000E       'O...'          LEA      $000E(A7),A7        
00001BE8: 4E75            'Nu'            RTS                          


Jump Table 145:
(func extern food)
00001BEA: 4E56 0000       'NV..'          LINK     A6,#$0000           
00001BEE: 48E7 0F08       'H...'          MOVEM.L  D4-D7/A4,-(A7)      
00001BF2: 286E 0008       '(n..'          MOVEA.L  $0008(A6),A4        
00001BF6: 0C6D 0010 9688  '.m....'        CMPI.W   #$0010,-$6978(A5)   
00001BFC: 6620            'f '            BNE.S    *+$0022             ; 00001C1E
00001BFE: 2F3C 0000 1A7E  '/<...~'        MOVE.L   #$00001A7E,-(A7)    
00001C04: 2F3C 0000 1A80  '/<....'        MOVE.L   #$00001A80,-(A7)    
00001C0A: 2F3C 0000 1A82  '/<....'        MOVE.L   #$00001A82,-(A7)    
00001C10: 2F3C 0000 1A84  '/<....'        MOVE.L   #$00001A84,-(A7)    
00001C16: 4EBA 0806       'N...'          JSR      *+$0808             ; TellUser()
00001C1A: 6000 0118       '`...'          BRA      *+$011A             ; 00001D34
00001C1E: 703C            'p<'            MOVEQ    #$3C,D0             ; '<'
00001C20: C1D4            '..'            MULS.W   (A4),D0             
00001C22: 204D            ' M'            MOVEA.L  A5,A0               
00001C24: D1C0            '..'            ADDA.L   D0,A0               
00001C26: 3028 EA36       '0(.6'          MOVE.W   -$15CA(A0),D0       
00001C2A: C1EC 0002       '....'          MULS.W   $0002(A4),D0        
00001C2E: 7210            'r.'            MOVEQ    #$10,D1             
00001C30: 926D 9688       '.m..'          SUB.W    -$6978(A5),D1       
00001C34: B240            '.@'            CMP.W    D0,D1               
00001C36: 6F12            'o.'            BLE.S    *+$0014             ; 00001C4A
00001C38: 703C            'p<'            MOVEQ    #$3C,D0             ; '<'
00001C3A: C1D4            '..'            MULS.W   (A4),D0             
00001C3C: 204D            ' M'            MOVEA.L  A5,A0               
00001C3E: D1C0            '..'            ADDA.L   D0,A0               
00001C40: 3028 EA36       '0(.6'          MOVE.W   -$15CA(A0),D0       
00001C44: C1EC 0002       '....'          MULS.W   $0002(A4),D0        
00001C48: 6006            '`.'            BRA.S    *+$0008             ; 00001C50
00001C4A: 7010            'p.'            MOVEQ    #$10,D0             
00001C4C: 906D 9688       '.m..'          SUB.W    -$6978(A5),D0       
00001C50: 3F00            '?.'            MOVE.W   D0,-(A7)            
00001C52: 4EBA E648       'N..H'          JSR      *-$19B6             ; howmuch()
00001C56: 3C00            '<.'            MOVE.W   D0,D6               
00001C58: 4A46            'JF'            TST.W    D6                  
00001C5A: 548F            'T.'            ADDQ.L   #$2,A7              
00001C5C: 6700 00D6       'g...'          BEQ      *+$00D8             ; 00001D34
00001C60: BC6C 0002       '.l..'          CMP.W    $0002(A4),D6        
00001C64: 6F20            'o '            BLE.S    *+$0022             ; 00001C86
00001C66: 2F3C 0000 1AA8  '/<....'        MOVE.L   #$00001AA8,-(A7)    
00001C6C: 2F3C 0000 1AAA  '/<....'        MOVE.L   #$00001AAA,-(A7)    
00001C72: 2F3C 0000 1AAC  '/<....'        MOVE.L   #$00001AAC,-(A7)    
00001C78: 2F3C 0000 1AAE  '/<....'        MOVE.L   #$00001AAE,-(A7)    
00001C7E: 4EBA 079E       'N...'          JSR      *+$07A0             ; TellUser()
00001C82: 6000 00B0       '`...'          BRA      *+$00B2             ; 00001D34
00001C86: 703C            'p<'            MOVEQ    #$3C,D0             ; '<'
00001C88: C1D4            '..'            MULS.W   (A4),D0             
00001C8A: 204D            ' M'            MOVEA.L  A5,A0               
00001C8C: D1C0            '..'            ADDA.L   D0,A0               
00001C8E: 3828 EA36       '8(.6'          MOVE.W   -$15CA(A0),D4       
00001C92: C9EC 0002       '....'          MULS.W   $0002(A4),D4        
00001C96: 7010            'p.'            MOVEQ    #$10,D0             
00001C98: 906D 9688       '.m..'          SUB.W    -$6978(A5),D0       
00001C9C: B046            '.F'            CMP.W    D6,D0               
00001C9E: 6C08            'l.'            BGE.S    *+$000A             ; 00001CA8
00001CA0: 7A10            'z.'            MOVEQ    #$10,D5             
00001CA2: 9A6D 9688       '.m..'          SUB.W    -$6978(A5),D5       
00001CA6: 6002            '`.'            BRA.S    *+$0004             ; 00001CAA
00001CA8: 3A06            ':.'            MOVE.W   D6,D5               
00001CAA: 3F3C 0001       '?<..'          MOVE.W   #$0001,-(A7)        
00001CAE: 3F05            '?.'            MOVE.W   D5,-(A7)            
00001CB0: 4EAD 00FA       'N...'          JSR      $00FA(A5)           ; PassTime()
00001CB4: 3E00            '>.'            MOVE.W   D0,D7               
00001CB6: BA47            '.G'            CMP.W    D7,D5               
00001CB8: 588F            'X.'            ADDQ.L   #$4,A7              
00001CBA: 6710            'g.'            BEQ.S    *+$0012             ; 00001CCC
00001CBC: 3F07            '?.'            MOVE.W   D7,-(A7)            
00001CBE: 2F3C 0000 1ACE  '/<....'        MOVE.L   #$00001ACE,-(A7)    
00001CC4: 4EBA F062       'N..b'          JSR      *-$0F9C             ; News()
00001CC8: 5C8F            '\.'            ADDQ.L   #$6,A7              
00001CCA: 601C            '`.'            BRA.S    *+$001E             ; 00001CE8
00001CCC: BC47            '.G'            CMP.W    D7,D6               
00001CCE: 6718            'g.'            BEQ.S    *+$001A             ; 00001CE8
00001CD0: 3F07            '?.'            MOVE.W   D7,-(A7)            
00001CD2: 2F3C 0000 1B0A  '/<....'        MOVE.L   #$00001B0A,-(A7)    
00001CD8: 4EBA F04E       'N..N'          JSR      *-$0FB0             ; News()
00001CDC: 2EBC 0000 1B32  '.....2'        MOVE.L   #$00001B32,(A7)     
00001CE2: 4EBA F044       'N..D'          JSR      *-$0FBA             ; News()
00001CE6: 5C8F            '\.'            ADDQ.L   #$6,A7              
00001CE8: BE6C 0002       '.l..'          CMP.W    $0002(A4),D7        
00001CEC: 661A            'f.'            BNE.S    *+$001C             ; 00001D08
00001CEE: 2F0C            '/.'            MOVE.L   A4,-(A7)            
00001CF0: 4EAD 008A       'N...'          JSR      $008A(A5)           ; code2-anon5()
00001CF4: 2E8C            '..'            MOVE.L   A4,(A7)             
00001CF6: 486D 9672       'Hm.r'          PEA      -$698E(A5)          
00001CFA: 4EAD 00E2       'N...'          JSR      $00E2(A5)           ; DelThing()
00001CFE: 2E8C            '..'            MOVE.L   A4,(A7)             
00001D00: 4EBA EE9C       'N...'          JSR      *-$1162             ; LoseThing()
00001D04: 508F            'P.'            ADDQ.L   #$8,A7              
00001D06: 601E            '`.'            BRA.S    *+$0020             ; 00001D26
00001D08: 9F6C 0002       '.l..'          SUB.W    D7,$0002(A4)        
00001D0C: 703C            'p<'            MOVEQ    #$3C,D0             ; '<'
00001D0E: C1D4            '..'            MULS.W   (A4),D0             
00001D10: 204D            ' M'            MOVEA.L  A5,A0               
00001D12: D1C0            '..'            ADDA.L   D0,A0               
00001D14: 3028 EA36       '0(.6'          MOVE.W   -$15CA(A0),D0       
00001D18: C1EC 0002       '....'          MULS.W   $0002(A4),D0        
00001D1C: 9840            '.@'            SUB.W    D0,D4               
00001D1E: 2F0C            '/.'            MOVE.L   A4,-(A7)            
00001D20: 4EAD 0092       'N...'          JSR      $0092(A5)           ; NewInven()
00001D24: 588F            'X.'            ADDQ.L   #$4,A7              
00001D26: DF6D 9688       '.m..'          ADD.W    D7,-$6978(A5)       
00001D2A: 4EBA FD5A       'N..Z'          JSR      *-$02A4             ; code9-anon6()
00001D2E: 4267            'Bg'            CLR.W    -(A7)               
00001D30: 4EBA F86E       'N..n'          JSR      *-$0790             ; HeroStatus()
00001D34: 4CEE 10F0 FFEC  'L.....'        MOVEM.L  -$0014(A6),D4-D7/A4 
00001D3A: 4E5E            'N^'            UNLK     A6                  
00001D3C: 4E75            'Nu'            RTS                          
---
00001D3E: 8466            '.f'            OR.W     -(A6),D2            
00001D40: 6F6F            'oo'            BLE.S    *+$0071             ; 00001DB1
00001D42: 6400 0000       'd...'          BCC      *+$0002             ; 00001D44


Jump Table 146:
(func extern digest)
00001D46: 4E56 0000       'NV..'          LINK     A6,#$0000           
00001D4A: 536D 9688       'Sm..'          SUBQ.W   #$1,-$6978(A5)      
00001D4E: 4A6D 9688       'Jm..'          TST.W    -$6978(A5)          
00001D52: 6634            'f4'            BNE.S    *+$0036             ; 00001D88
00001D54: 2F3C 0000 1B5A  '/<...Z'        MOVE.L   #$00001B5A,-(A7)    
00001D5A: 2F3C 0000 1B5C  '/<...\'        MOVE.L   #$00001B5C,-(A7)    
00001D60: 2F3C 0000 1B5E  '/<...^'        MOVE.L   #$00001B5E,-(A7)    
00001D66: 2F3C 0000 1B60  '/<...`'        MOVE.L   #$00001B60,-(A7)    
00001D6C: 4EBA 06B0       'N...'          JSR      *+$06B2             ; TellUser()
00001D70: 4297            'B.'            CLR.L    (A7)                
00001D72: 3F3C 0001       '?<..'          MOVE.W   #$0001,-(A7)        
00001D76: 4EAD 00A2       'N...'          JSR      $00A2(A5)           ; mySetScroll()
00001D7A: 206D 9B70       ' m.p'          MOVEA.L  -$6490(A5),A0       
00001D7E: 2E90            '..'            MOVE.L   (A0),(A7)           
00001D80: A851            '.Q'            _SetCursor                     ; A851
00001D82: A9F4            '..'            _ExitToShell                     ; A9F4
00001D84: 4FEF 000E       'O...'          LEA      $000E(A7),A7        
00001D88: 0C6D 0002 9688  '.m....'        CMPI.W   #$0002,-$6978(A5)   
00001D8E: 6620            'f '            BNE.S    *+$0022             ; 00001DB0
00001D90: 2F3C 0000 1B7A  '/<...z'        MOVE.L   #$00001B7A,-(A7)    
00001D96: 2F3C 0000 1B7C  '/<...|'        MOVE.L   #$00001B7C,-(A7)    
00001D9C: 2F3C 0000 1B7E  '/<...~'        MOVE.L   #$00001B7E,-(A7)    
00001DA2: 2F3C 0000 1B96  '/<....'        MOVE.L   #$00001B96,-(A7)    
00001DA8: 4EBA 0674       'N..t'          JSR      *+$0676             ; TellUser()
00001DAC: 4FEF 0010       'O...'          LEA      $0010(A7),A7        
00001DB0: 4267            'Bg'            CLR.W    -(A7)               
00001DB2: 4EBA F7EC       'N...'          JSR      *-$0812             ; HeroStatus()
00001DB6: 3EBC 00C8       '>...'          MOVE.W   #$00C8,(A7)         
00001DBA: 2F2E 000C       '/...'          MOVE.L   $000C(A6),-(A7)     
00001DBE: 486D 04AA       'Hm..'          PEA      $04AA(A5)           ; &digest()
00001DC2: 2F2E 0008       '/...'          MOVE.L   $0008(A6),-(A7)     
00001DC6: 4EAD 010A       'N...'          JSR      $010A(A5)           ; AddRAEvent()
00001DCA: 7000            'p.'            MOVEQ    #$00,D0             
00001DCC: 4E5E            'N^'            UNLK     A6                  
00001DCE: 4E75            'Nu'            RTS                          
---
00001DD0: 8664            '.d'            OR.W     -(A4),D3            
00001DD2: 6967            'ig'            BVS.S    *+$0069             ; 00001E3B
00001DD4: 6573            'es'            BCS.S    *+$0075             ; 00001E49
00001DD6: 7400            't.'            MOVEQ    #$00,D2             
00001DD8: 0000


Jump Table 147:
(func extern strlen)
00001DDA: 4E56 0000       'NV..'          LINK     A6,#$0000           
00001DDE: 2F07            '/.'            MOVE.L   D7,-(A7)            
00001DE0: 7E00            '~.'            MOVEQ    #$00,D7             
00001DE2: 6002            '`.'            BRA.S    *+$0004             ; 00001DE6
00001DE4: 5247            'RG'            ADDQ.W   #$1,D7              
00001DE6: 206E 0008       ' n..'          MOVEA.L  $0008(A6),A0        
00001DEA: 4A30 7000       'J0p.'          TST.B    $00(A0,D7.W)        
00001DEE: 66F4            'f.'            BNE.S    *-$000A             ; 00001DE4
00001DF0: 3007            '0.'            MOVE.W   D7,D0               
00001DF2: 2E1F            '..'            MOVE.L   (A7)+,D7            
00001DF4: 4E5E            'N^'            UNLK     A6                  
00001DF6: 4E75            'Nu'            RTS                          
---
00001DF8: 8673 7472       '.str'          OR.W     $72(A3,D7.W*4),D3   
00001DFC: 6C65            'le'            BGE.S    *+$0067             ; 00001E63
00001DFE: 6E00 0000       'n...'          BGT      *+$0002             ; 00001E00


Jump Table 148:
(func extern myTEInsert)
00001E02: 4E56 0000       'NV..'          LINK     A6,#$0000           
00001E06: 2F2E 000C       '/...'          MOVE.L   $000C(A6),-(A7)     
00001E0A: 2F2E 000C       '/...'          MOVE.L   $000C(A6),-(A7)     
00001E0E: 4EBA FFCA       'N...'          JSR      *-$0034             ; strlen()
00001E12: 3040            '0@'            MOVEA.W  D0,A0               
00001E14: 2E88            '..'            MOVE.L   A0,(A7)             
00001E16: 2F2E 0008       '/...'          MOVE.L   $0008(A6),-(A7)     
00001E1A: A9DE            '..'            _TEInsert                     ; A9DE
00001E1C: 4E5E            'N^'            UNLK     A6                  
00001E1E: 4E75            'Nu'            RTS                          
---
00001E20: 8A6D 7954       '.myT'          OR.W     $7954(A5),D5        
00001E24: 4549            'EI'            DC.W     $4549               ; ????
00001E26: 6E73            'ns'            BGT.S    *+$0075             ; 00001E9B
00001E28: 6572            'er'            BCS.S    *+$0074             ; 00001E9C
00001E2A: 7400            't.'            MOVEQ    #$00,D2             
00001E2C: 0000


Jump Table 149:
(func extern Pstrcpy)
00001DDA: 4E56 0000       'NV..'          LINK     A6,#$0000           
00001DDE: 2F07            '/.'            MOVE.L   D7,-(A7)            
00001E34: 206E 000C       ' n..'          MOVEA.L  $000C(A6),A0        
00001E38: 7E00            '~.'            MOVEQ    #$00,D7             
00001E3A: 1E10            '..'            MOVE.B   (A0),D7             
00001E3C: 5247            'RG'            ADDQ.W   #$1,D7              
00001E3E: 6014            '`.'            BRA.S    *+$0016             ; 00001E54
00001E40: 206E 000C       ' n..'          MOVEA.L  $000C(A6),A0        
00001E44: 226E 0008       '"n..'          MOVEA.L  $0008(A6),A1        
00001E48: 1290            '..'            MOVE.B   (A0),(A1)           
00001E4A: 52AE 0008       'R...'          ADDQ.L   #$1,$0008(A6)       
00001E4E: 52AE 000C       'R...'          ADDQ.L   #$1,$000C(A6)       
00001E52: 5347            'SG'            SUBQ.W   #$1,D7              
00001E54: 4A47            'JG'            TST.W    D7                  
00001E56: 6EE8            'n.'            BGT.S    *-$0016             ; 00001E40
00001E58: 2E1F            '..'            MOVE.L   (A7)+,D7            
00001E5A: 4E5E            'N^'            UNLK     A6                  
00001E5C: 4E75            'Nu'            RTS                          
---
00001E5E: 8750            '.P'            OR.W     D3,(A0)             
00001E60: 7374            'st'            DC.W     $7374               ; ????
00001E62: 7263            'rc'            MOVEQ    #$63,D1             ; 'c'
00001E64: 7079            'py'            MOVEQ    #$79,D0             ; 'y'
00001E66: 0000


(func intern Pstrcat)
00001E68: 4E56 0000       'NV..'          LINK     A6,#$0000           
00001E6C: 48E7 0118       'H...'          MOVEM.L  D7/A3/A4,-(A7)      
00001E70: 286E 0008       '(n..'          MOVEA.L  $0008(A6),A4        
00001E74: 266E 000C       '&n..'          MOVEA.L  $000C(A6),A3        
00001E78: 7E00            '~.'            MOVEQ    #$00,D7             
00001E7A: 1E14            '..'            MOVE.B   (A4),D7             
00001E7C: 1014            '..'            MOVE.B   (A4),D0             
00001E7E: D013            '..'            ADD.B    (A3),D0             
00001E80: 1880            '..'            MOVE.B   D0,(A4)             
00001E82: 49F4 7001       'I.p.'          LEA      $01(A4,D7.W),A4     
00001E86: 7E00            '~.'            MOVEQ    #$00,D7             
00001E88: 1E13            '..'            MOVE.B   (A3),D7             
00001E8A: 528B            'R.'            ADDQ.L   #$1,A3              
00001E8C: 6008            '`.'            BRA.S    *+$000A             ; 00001E96
00001E8E: 1893            '..'            MOVE.B   (A3),(A4)           
00001E90: 528C            'R.'            ADDQ.L   #$1,A4              
00001E92: 528B            'R.'            ADDQ.L   #$1,A3              
00001E94: 5347            'SG'            SUBQ.W   #$1,D7              
00001E96: 4A47            'JG'            TST.W    D7                  
00001E98: 6EF4            'n.'            BGT.S    *-$000A             ; 00001E8E
00001E9A: 4CDF 1880       'L...'          MOVEM.L  (A7)+,D7/A3/A4      
00001E9E: 4E5E            'N^'            UNLK     A6                  
00001EA0: 4E75            'Nu'            RTS                          
---
00001EA2: 8750            '.P'            OR.W     D3,(A0)             
00001EA4: 7374            'st'            DC.W     $7374               ; ????
00001EA6: 7263            'rc'            MOVEQ    #$63,D1             ; 'c'
00001EA8: 6174            'at'            BSR.S    *+$0076             ; 00001F1E
00001EAA: 0000


Jump Table 150:
(func extern PstrEqual)
00001EAC: 4E56 0000       'NV..'          LINK     A6,#$0000           
00001EB0: 48E7 0118       'H...'          MOVEM.L  D7/A3/A4,-(A7)      
00001EB4: 286E 0008       '(n..'          MOVEA.L  $0008(A6),A4        
00001EB8: 266E 000C       '&n..'          MOVEA.L  $000C(A6),A3        
00001EBC: 1014            '..'            MOVE.B   (A4),D0             
00001EBE: B013            '..'            CMP.B    (A3),D0             
00001EC0: 6704            'g.'            BEQ.S    *+$0006             ; 00001EC6
00001EC2: 7000            'p.'            MOVEQ    #$00,D0             
00001EC4: 6020            '` '            BRA.S    *+$0022             ; 00001EE6
00001EC6: 1E14            '..'            MOVE.B   (A4),D7             
00001EC8: 4887            'H.'            EXT.W    D7                  
00001ECA: 528C            'R.'            ADDQ.L   #$1,A4              
00001ECC: 528B            'R.'            ADDQ.L   #$1,A3              
00001ECE: 6010            '`.'            BRA.S    *+$0012             ; 00001EE0
00001ED0: 1014            '..'            MOVE.B   (A4),D0             
00001ED2: B013            '..'            CMP.B    (A3),D0             
00001ED4: 6704            'g.'            BEQ.S    *+$0006             ; 00001EDA
00001ED6: 7000            'p.'            MOVEQ    #$00,D0             
00001ED8: 600C            '`.'            BRA.S    *+$000E             ; 00001EE6
00001EDA: 528C            'R.'            ADDQ.L   #$1,A4              
00001EDC: 528B            'R.'            ADDQ.L   #$1,A3              
00001EDE: 5347            'SG'            SUBQ.W   #$1,D7              
00001EE0: 4A47            'JG'            TST.W    D7                  
00001EE2: 6EEC            'n.'            BGT.S    *-$0012             ; 00001ED0
00001EE4: 7001            'p.'            MOVEQ    #$01,D0             
00001EE6: 4CDF 1880       'L...'          MOVEM.L  (A7)+,D7/A3/A4      
00001EEA: 4E5E            'N^'            UNLK     A6                  
00001EEC: 4E75            'Nu'            RTS                          
---
00001EEE: 8950            '.P'            OR.W     D4,(A0)             
00001EF0: 7374            'st'            DC.W     $7374               ; ????
00001EF2: 7245            'rE'            MOVEQ    #$45,D1             ; 'E'
00001EF4: 7175            'qu'            DC.W     $7175               ; ????
00001EF6: 616C            'al'            BSR.S    *+$006E             ; 00001F64
00001EF8: 0000


(func intern strcat))
00001EFA: 4E56 0000       'NV..'          LINK     A6,#$0000           
00001EFE: 2F0C            '/.'            MOVE.L   A4,-(A7)            
00001F00: 286E 0008       '(n..'          MOVEA.L  $0008(A6),A4        
00001F04: 6002            '`.'            BRA.S    *+$0004             ; 00001F08
00001F06: 528C            'R.'            ADDQ.L   #$1,A4              
00001F08: 4A14            'J.'            TST.B    (A4)                
00001F0A: 66FA            'f.'            BNE.S    *-$0004             ; 00001F06
00001F0C: 600A            '`.'            BRA.S    *+$000C             ; 00001F18
00001F0E: 206E 000C       ' n..'          MOVEA.L  $000C(A6),A0        
00001F12: 52AE 000C       'R...'          ADDQ.L   #$1,$000C(A6)       
00001F16: 18D0            '..'            MOVE.B   (A0),(A4)+          
00001F18: 206E 000C       ' n..'          MOVEA.L  $000C(A6),A0        
00001F1C: 4A10            'J.'            TST.B    (A0)                
00001F1E: 66EE            'f.'            BNE.S    *-$0010             ; 00001F0E
00001F20: 4214            'B.'            CLR.B    (A4)                
00001F22: 285F            '(_'            MOVEA.L  (A7)+,A4            
00001F24: 4E5E            'N^'            UNLK     A6                  
00001F26: 4E75            'Nu'            RTS                          
---
00001F28: 8673 7472       '.str'          OR.W     $72(A3,D7.W*4),D3   
00001F2C: 6361            'ca'            BLS.S    *+$0063             ; 00001F8F
00001F2E: 7400            't.'            MOVEQ    #$00,D2             
00001F30: 0000

Jump Table 151:
(func extern mystrncat)
00001F32: 4E56 0000       'NV..'          LINK     A6,#$0000           
00001F36: 2F0C            '/.'            MOVE.L   A4,-(A7)            
00001F38: 286E 0008       '(n..'          MOVEA.L  $0008(A6),A4        
00001F3C: 6006            '`.'            BRA.S    *+$0008             ; 00001F44
00001F3E: 528C            'R.'            ADDQ.L   #$1,A4              
00001F40: 536E 0010       'Sn..'          SUBQ.W   #$1,$0010(A6)       
00001F44: 4A14            'J.'            TST.B    (A4)                
00001F46: 66F6            'f.'            BNE.S    *-$0008             ; 00001F3E
00001F48: 600E            '`.'            BRA.S    *+$0010             ; 00001F58
00001F4A: 206E 000C       ' n..'          MOVEA.L  $000C(A6),A0        
00001F4E: 52AE 000C       'R...'          ADDQ.L   #$1,$000C(A6)       
00001F52: 18D0            '..'            MOVE.B   (A0),(A4)+          
00001F54: 536E 0010       'Sn..'          SUBQ.W   #$1,$0010(A6)       
00001F58: 206E 000C       ' n..'          MOVEA.L  $000C(A6),A0        
00001F5C: 4A10            'J.'            TST.B    (A0)                
00001F5E: 6708            'g.'            BEQ.S    *+$000A             ; 00001F68
00001F60: 0C6E 0001 0010  '.n....'        CMPI.W   #$0001,$0010(A6)    
00001F66: 6EE2            'n.'            BGT.S    *-$001C             ; 00001F4A
00001F68: 4214            'B.'            CLR.B    (A4)                
00001F6A: 285F            '(_'            MOVEA.L  (A7)+,A4            
00001F6C: 4E5E            'N^'            UNLK     A6                  
00001F6E: 4E75            'Nu'            RTS                          
---
00001F70: 896D 7973       '.mys'          OR.W     D4,$7973(A5)        
00001F74: 7472            'tr'            MOVEQ    #$72,D2             ; 'r'
00001F76: 6E63            'nc'            BGT.S    *+$0065             ; 00001FDB
00001F78: 6174            'at'            BSR.S    *+$0076             ; 00001FEE
00001F7A: 0000


Jump Table 152:
(func extern strncmp)
00001F7C: 4E56 0000       'NV..'          LINK     A6,#$0000           
00001F80: 6030            '`0'            BRA.S    *+$0032             ; 00001FB2
00001F82: 206E 0008       ' n..'          MOVEA.L  $0008(A6),A0        
00001F86: 226E 000C       '"n..'          MOVEA.L  $000C(A6),A1        
00001F8A: 1010            '..'            MOVE.B   (A0),D0             
00001F8C: B011            '..'            CMP.B    (A1),D0             
00001F8E: 6C04            'l.'            BGE.S    *+$0006             ; 00001F94
00001F90: 70FF            'p.'            MOVEQ    #$FF,D0             
00001F92: 6026            '`&'            BRA.S    *+$0028             ; 00001FBA
00001F94: 206E 0008       ' n..'          MOVEA.L  $0008(A6),A0        
00001F98: 226E 000C       '"n..'          MOVEA.L  $000C(A6),A1        
00001F9C: 1010            '..'            MOVE.B   (A0),D0             
00001F9E: B011            '..'            CMP.B    (A1),D0             
00001FA0: 6F04            'o.'            BLE.S    *+$0006             ; 00001FA6
00001FA2: 7001            'p.'            MOVEQ    #$01,D0             
00001FA4: 6014            '`.'            BRA.S    *+$0016             ; 00001FBA
00001FA6: 52AE 0008       'R...'          ADDQ.L   #$1,$0008(A6)       
00001FAA: 52AE 000C       'R...'          ADDQ.L   #$1,$000C(A6)       
00001FAE: 536E 0010       'Sn..'          SUBQ.W   #$1,$0010(A6)       
00001FB2: 4A6E 0010       'Jn..'          TST.W    $0010(A6)           
00001FB6: 6ECA            'n.'            BGT.S    *-$0034             ; 00001F82
00001FB8: 7000            'p.'            MOVEQ    #$00,D0             
00001FBA: 4E5E            'N^'            UNLK     A6                  
00001FBC: 4E75            'Nu'            RTS                          
---
00001FBE: 8773 7472       '.str'          OR.W     D3,$72(A3,D7.W*4)   
00001FC2: 6E63            'nc'            BGT.S    *+$0065             ; 00002027
00001FC4: 6D70            'mp'            BLT.S    *+$0072             ; 00002036
00001FC6: 0000


(func intern atoi)
00001FC8: 4E56 0000       'NV..'          LINK     A6,#$0000           
00001FCC: 48E7 0308       'H...'          MOVEM.L  D6/D7/A4,-(A7)      
00001FD0: 286E 0008       '(n..'          MOVEA.L  $0008(A6),A4        
00001FD4: 7E00            '~.'            MOVEQ    #$00,D7             
00001FD6: 7C00            '|.'            MOVEQ    #$00,D6             
00001FD8: 6002            '`.'            BRA.S    *+$0004             ; 00001FDC
00001FDA: 528C            'R.'            ADDQ.L   #$1,A4              
00001FDC: 0C14 0020       '... '          CMPI.B   #$20,(A4)           ; ' '
00001FE0: 67F8            'g.'            BEQ.S    *-$0006             ; 00001FDA
00001FE2: 0C14 0009       '....'          CMPI.B   #$09,(A4)           
00001FE6: 67F2            'g.'            BEQ.S    *-$000C             ; 00001FDA
00001FE8: 0C14 002D       '...-'          CMPI.B   #$2D,(A4)           ; '-'
00001FEC: 6606            'f.'            BNE.S    *+$0008             ; 00001FF4
00001FEE: 7E01            '~.'            MOVEQ    #$01,D7             
00001FF0: 528C            'R.'            ADDQ.L   #$1,A4              
00001FF2: 601A            '`.'            BRA.S    *+$001C             ; 0000200E
00001FF4: 0C14 002B       '...+'          CMPI.B   #$2B,(A4)           ; '+'
00001FF8: 6614            'f.'            BNE.S    *+$0016             ; 0000200E
00001FFA: 528C            'R.'            ADDQ.L   #$1,A4              
00001FFC: 6010            '`.'            BRA.S    *+$0012             ; 0000200E
00001FFE: 1014            '..'            MOVE.B   (A4),D0             
00002000: 4880            'H.'            EXT.W    D0                  
00002002: CDFC 000A       '....'          MULS.W   #$000A,D6           
00002006: 0640 FFD0       '.@..'          ADDI.W   #$FFD0,D0           
0000200A: DC40            '.@'            ADD.W    D0,D6               
0000200C: 528C            'R.'            ADDQ.L   #$1,A4              
0000200E: 0C14 0030       '...0'          CMPI.B   #$30,(A4)           ; '0'
00002012: 6D06            'm.'            BLT.S    *+$0008             ; 0000201A
00002014: 0C14 0039       '...9'          CMPI.B   #$39,(A4)           ; '9'
00002018: 6FE4            'o.'            BLE.S    *-$001A             ; 00001FFE
0000201A: 4A07            'J.'            TST.B    D7                  
0000201C: 6702            'g.'            BEQ.S    *+$0004             ; 00002020
0000201E: 4446            'DF'            NEG.W    D6                  
00002020: 3006            '0.'            MOVE.W   D6,D0               
00002022: 4CDF 10C0       'L...'          MOVEM.L  (A7)+,D6/D7/A4      
00002026: 4E5E            'N^'            UNLK     A6                  
00002028: 4E75            'Nu'            RTS                          
---
0000202A: 8461            '.a'            OR.W     -(A1),D2            
0000202C: 746F            'to'            MOVEQ    #$6F,D2             ; 'o'
0000202E: 6900 0000       'i...'          BVS      *+$0002             ; 00002030


Jump Table 153:
(func extern atol)
00002032: 4E56 0000       'NV..'          LINK     A6,#$0000           
00002036: 48E7 0308       'H...'          MOVEM.L  D6/D7/A4,-(A7)      
0000203A: 286E 0008       '(n..'          MOVEA.L  $0008(A6),A4        
0000203E: 7E00            '~.'            MOVEQ    #$00,D7             
00002040: 7C00            '|.'            MOVEQ    #$00,D6             
00002042: 6002            '`.'            BRA.S    *+$0004             ; 00002046
00002044: 528C            'R.'            ADDQ.L   #$1,A4              
00002046: 0C14 0020       '... '          CMPI.B   #$20,(A4)           ; ' '
0000204A: 67F8            'g.'            BEQ.S    *-$0006             ; 00002044
0000204C: 0C14 0009       '....'          CMPI.B   #$09,(A4)           
00002050: 67F2            'g.'            BEQ.S    *-$000C             ; 00002044
00002052: 0C14 002D       '...-'          CMPI.B   #$2D,(A4)           ; '-'
00002056: 6606            'f.'            BNE.S    *+$0008             ; 0000205E
00002058: 7E01            '~.'            MOVEQ    #$01,D7             
0000205A: 528C            'R.'            ADDQ.L   #$1,A4              
0000205C: 6026            '`&'            BRA.S    *+$0028             ; 00002084
0000205E: 0C14 002B       '...+'          CMPI.B   #$2B,(A4)           ; '+'
00002062: 6620            'f '            BNE.S    *+$0022             ; 00002084
00002064: 528C            'R.'            ADDQ.L   #$1,A4              
00002066: 601C            '`.'            BRA.S    *+$001E             ; 00002084
00002068: 1014            '..'            MOVE.B   (A4),D0             
0000206A: 4880            'H.'            EXT.W    D0                  
0000206C: 4878 000A       'Hx..'          PEA      $000A               
00002070: 2F06            '/.'            MOVE.L   D6,-(A7)            
00002072: 2200            '".'            MOVE.L   D0,D1               
00002074: 4EAD 0042       'N..B'          JSR      $0042(A5)           ; code1-anon19()
00002078: C141            '.A'            EXG      D0,D1               
0000207A: 7CD0            '|.'            MOVEQ    #$D0,D6             
0000207C: DC40            '.@'            ADD.W    D0,D6               
0000207E: 48C6            'H.'            EXT.L    D6                  
00002080: DC81            '..'            ADD.L    D1,D6               
00002082: 528C            'R.'            ADDQ.L   #$1,A4              
00002084: 0C14 0030       '...0'          CMPI.B   #$30,(A4)           ; '0'
00002088: 6D06            'm.'            BLT.S    *+$0008             ; 00002090
0000208A: 0C14 0039       '...9'          CMPI.B   #$39,(A4)           ; '9'
0000208E: 6FD8            'o.'            BLE.S    *-$0026             ; 00002068
00002090: 4A07            'J.'            TST.B    D7                  
00002092: 6702            'g.'            BEQ.S    *+$0004             ; 00002096
00002094: 4486            'D.'            NEG.L    D6                  
00002096: 2006            ' .'            MOVE.L   D6,D0               
00002098: 4CDF 10C0       'L...'          MOVEM.L  (A7)+,D6/D7/A4      
0000209C: 4E5E            'N^'            UNLK     A6                  
0000209E: 4E75            'Nu'            RTS                          
---
000020A0: 8461            '.a'            OR.W     -(A1),D2            
000020A2: 746F            'to'            MOVEQ    #$6F,D2             ; 'o'
000020A4: 6C00 0000       'l...'          BGE      *+$0002             ; 000020A6



(func intern c2pstr)
000020A8: 4E56 0000       'NV..'          LINK     A6,#$0000           
000020AC: 48E7 0308       'H...'          MOVEM.L  D6/D7/A4,-(A7)      
000020B0: 7E00            '~.'            MOVEQ    #$00,D7             
000020B2: 286E 0008       '(n..'          MOVEA.L  $0008(A6),A4        
000020B6: 6004            '`.'            BRA.S    *+$0006             ; 000020BC
000020B8: 528C            'R.'            ADDQ.L   #$1,A4              
000020BA: 5247            'RG'            ADDQ.W   #$1,D7              
000020BC: 4A14            'J.'            TST.B    (A4)                
000020BE: 66F8            'f.'            BNE.S    *-$0006             ; 000020B8
000020C0: 3C07            '<.'            MOVE.W   D7,D6               
000020C2: 6008            '`.'            BRA.S    *+$000A             ; 000020CC
000020C4: 18AC FFFF       '....'          MOVE.B   -$0001(A4),(A4)     
000020C8: 538C            'S.'            SUBQ.L   #$1,A4              
000020CA: 5347            'SG'            SUBQ.W   #$1,D7              
000020CC: 4A47            'JG'            TST.W    D7                  
000020CE: 66F4            'f.'            BNE.S    *-$000A             ; 000020C4
000020D0: 1886            '..'            MOVE.B   D6,(A4)             
000020D2: 202E 0008       ' ...'          MOVE.L   $0008(A6),D0        
000020D6: 4CDF 10C0       'L...'          MOVEM.L  (A7)+,D6/D7/A4      
000020DA: 4E5E            'N^'            UNLK     A6                  
000020DC: 4E75            'Nu'            RTS                          
---
000020DE: 8663            '.c'            OR.W     -(A3),D3            
000020E0: 3270            '2p'            DC.W     $3270               ; ????
000020E2: 7374            'st'            DC.W     $7374               ; ????
000020E4: 7200            'r.'            MOVEQ    #$00,D1             
000020E6: 0000


Jump Table 154:
(func extern Talisman)
000020E8: 4E56 0000       'NV..'          LINK     A6,#$0000           
000020EC: 206E 0008       ' n..'          MOVEA.L  $0008(A6),A0        
000020F0: 4A28 0006       'J(..'          TST.B    $0006(A0)           
000020F4: 6640            'f@'            BNE.S    *+$0042             ; 00002136
000020F6: 206E 0008       ' n..'          MOVEA.L  $0008(A6),A0        
000020FA: 117C 0001 0006  '.|....'        MOVE.B   #$01,$0006(A0)      
00002100: 2F3C 0000 1BB4  '/<....'        MOVE.L   #$00001BB4,-(A7)    
00002106: 4EBA EC20       'N.. '          JSR      *-$13DE             ; News()
0000210A: 3EBC 0001       '>...'          MOVE.W   #$0001,(A7)         
0000210E: 2F2E 0008       '/...'          MOVE.L   $0008(A6),-(A7)     
00002112: 486D 97F6       'Hm..'          PEA      -$680A(A5)          
00002116: 4EBA EE0E       'N...'          JSR      *-$11F0             ; Nameit()
0000211A: 2EBC 0000 1BE6  '......'        MOVE.L   #$00001BE6,(A7)     
00002120: 4EBA EC06       'N...'          JSR      *-$13F8             ; News()
00002124: 06AD 0000 03E8  '......'        ADDI.L   #$000003E8,-$698A(A5) 
          9676            '.v'    
0000212C: 4257            'BW'            CLR.W    (A7)                
0000212E: 4EBA F470       'N..p'          JSR      *-$0B8E             ; HeroStatus()
00002132: 4FEF 000C       'O...'          LEA      $000C(A7),A7        
00002136: 4E5E            'N^'            UNLK     A6                  
00002138: 4E75            'Nu'            RTS                          
---
0000213A: 8854            '.T'            OR.W     (A4),D4             
0000213C: 616C            'al'            BSR.S    *+$006E             ; 000021AA
0000213E: 6973            'is'            BVS.S    *+$0075             ; 000021B3
00002140: 6D61            'ma'            BLT.S    *+$0063             ; 000021A3
00002142: 6E00 0000       'n...'          BGT      *+$0002             ; 00002144


Jump Table 155:
(func extern MummyDearest)
00002146: 4E56 0000       'NV..'          LINK     A6,#$0000           
0000214A: 206E 0008       ' n..'          MOVEA.L  $0008(A6),A0        
0000214E: 4A28 0006       'J(..'          TST.B    $0006(A0)           
00002152: 6604            'f.'            BNE.S    *+$0006             ; 00002158
00002154: 4EAD 060A       'N...'          JSR      $060A(A5)           ; code28-anon0()
00002158: 2F2E 0008       '/...'          MOVE.L   $0008(A6),-(A7)     
0000215C: 4EBA FF8A       'N...'          JSR      *-$0074             ; Talisman()
00002160: 4E5E            'N^'            UNLK     A6                  
00002162: 4E75            'Nu'            RTS                          
---
00002164: 8C4D            '.M'            OR.W     A5,D6               
00002166: 756D            'um'            DC.W     $756D               ; ????
00002168: 6D79            'my'            BLT.S    *+$007B             ; 000021E3
0000216A: 4465            'De'            NEG.W    -(A5)               
0000216C: 6172            'ar'            BSR.S    *+$0074             ; 000021E0
0000216E: 6573            'es'            BCS.S    *+$0075             ; 000021E3
00002170: 7400            't.'            MOVEQ    #$00,D2             
00002172: 0000


Jump Table 156:
(func extern tprintf)
00002174: 4E56 0000       'NV..'          LINK     A6,#$0000           
00002178: 48E7 0338       'H..8'          MOVEM.L  D6/D7/A2-A4,-(A7)   
0000217C: 286E 0008       '(n..'          MOVEA.L  $0008(A6),A4        
00002180: 7E00            '~.'            MOVEQ    #$00,D7             
00002182: 45EE 000C       'E...'          LEA      $000C(A6),A2        
00002186: 588A            'X.'            ADDQ.L   #$4,A2              
00002188: 6000 00E0       '`...'          BRA      *+$00E2             ; 0000226A
0000218C: 206E 000C       ' n..'          MOVEA.L  $000C(A6),A0        
00002190: 0C30 0025 7000  '.0.%p.'        CMPI.B   #$25,$00(A0,D7.W)   ; '%'
00002196: 6600 009A       'f...'          BNE      *+$009C             ; 00002232
0000219A: 5247            'RG'            ADDQ.W   #$1,D7              
0000219C: 206E 000C       ' n..'          MOVEA.L  $000C(A6),A0        
000021A0: 1030 7000       '.0p.'          MOVE.B   $00(A0,D7.W),D0     
000021A4: 6B00 008C       'k...'          BMI      *+$008E             ; 00002232
000021A8: 0400 0064       '...d'          SUBI.B   #$64,D0             ; 'd'
000021AC: 6732            'g2'            BEQ.S    *+$0034             ; 000021E0
000021AE: 6A10            'j.'            BPL.S    *+$0012             ; 000021C0
000021B0: 0400 00E8       '....'          SUBI.B   #$E8,D0             
000021B4: 674A            'gJ'            BEQ.S    *+$004C             ; 00002200
000021B6: 6B7A            'kz'            BMI.S    *+$007C             ; 00002232
000021B8: 0400 0017       '....'          SUBI.B   #$17,D0             
000021BC: 6A10            'j.'            BPL.S    *+$0012             ; 000021CE
000021BE: 6072            '`r'            BRA.S    *+$0074             ; 00002232
000021C0: 0400 000F       '....'          SUBI.B   #$0F,D0             
000021C4: 6758            'gX'            BEQ.S    *+$005A             ; 0000221E
000021C6: 6A6A            'jj'            BPL.S    *+$006C             ; 00002232
000021C8: 5E00            '^.'            ADDQ.B   #$7,D0              
000021CA: 6734            'g4'            BEQ.S    *+$0036             ; 00002200
000021CC: 6064            '`d'            BRA.S    *+$0066             ; 00002232
000021CE: 528A            'R.'            ADDQ.L   #$1,A2              
000021D0: 2F0A            '/.'            MOVE.L   A2,-(A7)            
000021D2: 4878 0001       'Hx..'          PEA      $0001               
000021D6: 2F0C            '/.'            MOVE.L   A4,-(A7)            
000021D8: A9DE            '..'            _TEInsert                     ; A9DE
000021DA: 528A            'R.'            ADDQ.L   #$1,A2              
000021DC: 5247            'RG'            ADDQ.W   #$1,D7              
000021DE: 6052            '`R'            BRA.S    *+$0054             ; 00002232
000021E0: 3052            '0R'            MOVEA.W  (A2),A0             
000021E2: 2F08            '/.'            MOVE.L   A0,-(A7)            
000021E4: 4EBA 00A2       'N...'          JSR      *+$00A4             ; i2d()
000021E8: 2640            '&@'            MOVEA.L  D0,A3               
000021EA: 548A            'T.'            ADDQ.L   #$2,A2              
000021EC: 2E8B            '..'            MOVE.L   A3,(A7)             
000021EE: 2F0B            '/.'            MOVE.L   A3,-(A7)            
000021F0: 4EBA FBE8       'N...'          JSR      *-$0416             ; strlen()
000021F4: 3040            '0@'            MOVEA.W  D0,A0               
000021F6: 2E88            '..'            MOVE.L   A0,(A7)             
000021F8: 2F0C            '/.'            MOVE.L   A4,-(A7)            
000021FA: A9DE            '..'            _TEInsert                     ; A9DE
000021FC: 5247            'RG'            ADDQ.W   #$1,D7              
000021FE: 6032            '`2'            BRA.S    *+$0034             ; 00002232
00002200: 2F12            '/.'            MOVE.L   (A2),-(A7)          
00002202: 4EBA 0084       'N...'          JSR      *+$0086             ; i2d()
00002206: 2640            '&@'            MOVEA.L  D0,A3               
00002208: 588A            'X.'            ADDQ.L   #$4,A2              
0000220A: 2E8B            '..'            MOVE.L   A3,(A7)             
0000220C: 2F0B            '/.'            MOVE.L   A3,-(A7)            
0000220E: 4EBA FBCA       'N...'          JSR      *-$0434             ; strlen()
00002212: 3040            '0@'            MOVEA.W  D0,A0               
00002214: 2E88            '..'            MOVE.L   A0,(A7)             
00002216: 2F0C            '/.'            MOVE.L   A4,-(A7)            
00002218: A9DE            '..'            _TEInsert                     ; A9DE
0000221A: 5247            'RG'            ADDQ.W   #$1,D7              
0000221C: 6014            '`.'            BRA.S    *+$0016             ; 00002232
0000221E: 2F12            '/.'            MOVE.L   (A2),-(A7)          
00002220: 2F12            '/.'            MOVE.L   (A2),-(A7)          
00002222: 4EBA FBB6       'N...'          JSR      *-$0448             ; strlen()
00002226: 3040            '0@'            MOVEA.W  D0,A0               
00002228: 2E88            '..'            MOVE.L   A0,(A7)             
0000222A: 2F0C            '/.'            MOVE.L   A4,-(A7)            
0000222C: A9DE            '..'            _TEInsert                     ; A9DE
0000222E: 588A            'X.'            ADDQ.L   #$4,A2              
00002230: 5247            'RG'            ADDQ.W   #$1,D7              
00002232: 3C07            '<.'            MOVE.W   D7,D6               
00002234: 6002            '`.'            BRA.S    *+$0004             ; 00002238
00002236: 5247            'RG'            ADDQ.W   #$1,D7              
00002238: 206E 000C       ' n..'          MOVEA.L  $000C(A6),A0        
0000223C: 4A30 7000       'J0p.'          TST.B    $00(A0,D7.W)        
00002240: 670C            'g.'            BEQ.S    *+$000E             ; 0000224E
00002242: 206E 000C       ' n..'          MOVEA.L  $000C(A6),A0        
00002246: 0C30 0025 7000  '.0.%p.'        CMPI.B   #$25,$00(A0,D7.W)   ; '%'
0000224C: 66E8            'f.'            BNE.S    *-$0016             ; 00002236
0000224E: 3007            '0.'            MOVE.W   D7,D0               
00002250: 9046            '.F'            SUB.W    D6,D0               
00002252: 4A40            'J@'            TST.W    D0                  
00002254: 6F14            'o.'            BLE.S    *+$0016             ; 0000226A
00002256: 206E 000C       ' n..'          MOVEA.L  $000C(A6),A0        
0000225A: 4870 6000       'Hp`.'          PEA      $00(A0,D6.W)        
0000225E: 3007            '0.'            MOVE.W   D7,D0               
00002260: 9046            '.F'            SUB.W    D6,D0               
00002262: 3240            '2@'            MOVEA.W  D0,A1               
00002264: 2F09            '/.'            MOVE.L   A1,-(A7)            
00002266: 2F0C            '/.'            MOVE.L   A4,-(A7)            
00002268: A9DE            '..'            _TEInsert                     ; A9DE
0000226A: 206E 000C       ' n..'          MOVEA.L  $000C(A6),A0        
0000226E: 4A30 7000       'J0p.'          TST.B    $00(A0,D7.W)        
00002272: 6600 FF18       'f...'          BNE      *-$00E6             ; 0000218C
00002276: 4CDF 1CC0       'L...'          MOVEM.L  (A7)+,D6/D7/A2-A4   
0000227A: 4E5E            'N^'            UNLK     A6                  
0000227C: 4E75            'Nu'            RTS                          
---
0000227E: 8774 7072       '.tpr'          OR.W     D3,$72(A4,D7.W)     
00002282: 696E            'in'            BVS.S    *+$0070             ; 000022F2
00002284: 7466            'tf'            MOVEQ    #$66,D2             ; 'f'
00002286: 0000


(func intern i2d)
00002288: 4E56 0000       'NV..'          LINK     A6,#$0000           
0000228C: 48E7 0700       'H...'          MOVEM.L  D5-D7,-(A7)         
00002290: 2E2E 0008       '....'          MOVE.L   $0008(A6),D7        
00002294: 7C0C            '|.'            MOVEQ    #$0C,D6             
00002296: 4A87            'J.'            TST.L    D7                  
00002298: 5DC5            '].'            SLT      D5                  
0000229A: 4405            'D.'            NEG.B    D5                  
0000229C: 4885            'H.'            EXT.W    D5                  
0000229E: 4A45            'JE'            TST.W    D5                  
000022A0: 6702            'g.'            BEQ.S    *+$0004             ; 000022A4
000022A2: 4487            'D.'            NEG.L    D7                  
000022A4: 3006            '0.'            MOVE.W   D6,D0               
000022A6: 5346            'SF'            SUBQ.W   #$1,D6              
000022A8: 204D            ' M'            MOVEA.L  A5,A0               
000022AA: D0C0            '..'            ADDA.W   D0,A0               
000022AC: 4228 FA44       'B(.D'          CLR.B    -$05BC(A0)          
000022B0: 4A87            'J.'            TST.L    D7                  
000022B2: 663A            'f:'            BNE.S    *+$003C             ; 000022EE
000022B4: 204D            ' M'            MOVEA.L  A5,A0               
000022B6: D0C6            '..'            ADDA.W   D6,A0               
000022B8: 117C 0030 FA44  '.|.0.D'        MOVE.B   #$30,-$05BC(A0)     ; '0'
000022BE: 41ED FA44       'A..D'          LEA      -$05BC(A5),A0       
000022C2: D0C6            '..'            ADDA.W   D6,A0               
000022C4: 2008            ' .'            MOVE.L   A0,D0               
000022C6: 6044            '`D'            BRA.S    *+$0046             ; 0000230C
000022C8: 4878 000A       'Hx..'          PEA      $000A               
000022CC: 2F07            '/.'            MOVE.L   D7,-(A7)            
000022CE: 4EAD 0062       'N..b'          JSR      $0062(A5)           ; code1-anon23()
000022D2: 0600 0030       '...0'          ADDI.B   #$30,D0             ; '0'
000022D6: 3206            '2.'            MOVE.W   D6,D1               
000022D8: 5346            'SF'            SUBQ.W   #$1,D6              
000022DA: 204D            ' M'            MOVEA.L  A5,A0               
000022DC: D0C1            '..'            ADDA.W   D1,A0               
000022DE: 1140 FA44       '.@.D'          MOVE.B   D0,-$05BC(A0)       
000022E2: 4878 000A       'Hx..'          PEA      $000A               
000022E6: 2F07            '/.'            MOVE.L   D7,-(A7)            
000022E8: 4EAD 005A       'N..Z'          JSR      $005A(A5)           ; code1-anon22()
000022EC: 2E00            '..'            MOVE.L   D0,D7               
000022EE: 4A87            'J.'            TST.L    D7                  
000022F0: 6ED6            'n.'            BGT.S    *-$0028             ; 000022C8
000022F2: 4A45            'JE'            TST.W    D5                  
000022F4: 670E            'g.'            BEQ.S    *+$0010             ; 00002304
000022F6: 3006            '0.'            MOVE.W   D6,D0               
000022F8: 5346            'SF'            SUBQ.W   #$1,D6              
000022FA: 204D            ' M'            MOVEA.L  A5,A0               
000022FC: D0C0            '..'            ADDA.W   D0,A0               
000022FE: 117C 002D FA44  '.|.-.D'        MOVE.B   #$2D,-$05BC(A0)     ; '-'
00002304: 41ED FA45       'A..E'          LEA      -$05BB(A5),A0       
00002308: D0C6            '..'            ADDA.W   D6,A0               
0000230A: 2008            ' .'            MOVE.L   A0,D0               
0000230C: 4CDF 00E0       'L...'          MOVEM.L  (A7)+,D5-D7         
00002310: 4E5E            'N^'            UNLK     A6                  
00002312: 4E75            'Nu'            RTS                          
---
00002314: 8369 3264       '.i2d'          OR.W     D1,$3264(A1)        
00002318: 0000


Jump Table 157:
(func extern Pi2d)
0000231A: 4E56 0000       'NV..'          LINK     A6,#$0000           
0000231E: 48E7 0700       'H...'          MOVEM.L  D5-D7,-(A7)         
00002322: 2E2E 0008       '....'          MOVE.L   $0008(A6),D7        
00002326: 7C0C            '|.'            MOVEQ    #$0C,D6             
00002328: 4A87            'J.'            TST.L    D7                  
0000232A: 5DC5            '].'            SLT      D5                  
0000232C: 4405            'D.'            NEG.B    D5                  
0000232E: 4885            'H.'            EXT.W    D5                  
00002330: 4A45            'JE'            TST.W    D5                  
00002332: 6702            'g.'            BEQ.S    *+$0004             ; 00002336
00002334: 4487            'D.'            NEG.L    D7                  
00002336: 4A87            'J.'            TST.L    D7                  
00002338: 6648            'fH'            BNE.S    *+$004A             ; 00002382
0000233A: 3006            '0.'            MOVE.W   D6,D0               
0000233C: 5346            'SF'            SUBQ.W   #$1,D6              
0000233E: 204D            ' M'            MOVEA.L  A5,A0               
00002340: D0C0            '..'            ADDA.W   D0,A0               
00002342: 117C 0030 FA51  '.|.0.Q'        MOVE.B   #$30,-$05AF(A0)     ; '0'
00002348: 204D            ' M'            MOVEA.L  A5,A0               
0000234A: D0C6            '..'            ADDA.W   D6,A0               
0000234C: 117C 0001 FA51  '.|...Q'        MOVE.B   #$01,-$05AF(A0)     
00002352: 41ED FA51       'A..Q'          LEA      -$05AF(A5),A0       
00002356: D0C6            '..'            ADDA.W   D6,A0               
00002358: 2008            ' .'            MOVE.L   A0,D0               
0000235A: 6050            '`P'            BRA.S    *+$0052             ; 000023AC
0000235C: 4878 000A       'Hx..'          PEA      $000A               
00002360: 2F07            '/.'            MOVE.L   D7,-(A7)            
00002362: 4EAD 0062       'N..b'          JSR      $0062(A5)           ; code1-anon23()
00002366: 0600 0030       '...0'          ADDI.B   #$30,D0             ; '0'
0000236A: 3206            '2.'            MOVE.W   D6,D1               
0000236C: 5346            'SF'            SUBQ.W   #$1,D6              
0000236E: 204D            ' M'            MOVEA.L  A5,A0               
00002370: D0C1            '..'            ADDA.W   D1,A0               
00002372: 1140 FA51       '.@.Q'          MOVE.B   D0,-$05AF(A0)       
00002376: 4878 000A       'Hx..'          PEA      $000A               
0000237A: 2F07            '/.'            MOVE.L   D7,-(A7)            
0000237C: 4EAD 005A       'N..Z'          JSR      $005A(A5)           ; code1-anon22()
00002380: 2E00            '..'            MOVE.L   D0,D7               
00002382: 4A87            'J.'            TST.L    D7                  
00002384: 6ED6            'n.'            BGT.S    *-$0028             ; 0000235C
00002386: 4A45            'JE'            TST.W    D5                  
00002388: 670E            'g.'            BEQ.S    *+$0010             ; 00002398
0000238A: 3006            '0.'            MOVE.W   D6,D0               
0000238C: 5346            'SF'            SUBQ.W   #$1,D6              
0000238E: 204D            ' M'            MOVEA.L  A5,A0               
00002390: D0C0            '..'            ADDA.W   D0,A0               
00002392: 117C 002D FA51  '.|.-.Q'        MOVE.B   #$2D,-$05AF(A0)     ; '-'
00002398: 700C            'p.'            MOVEQ    #$0C,D0             
0000239A: 9006            '..'            SUB.B    D6,D0               
0000239C: 204D            ' M'            MOVEA.L  A5,A0               
0000239E: D0C6            '..'            ADDA.W   D6,A0               
000023A0: 1140 FA51       '.@.Q'          MOVE.B   D0,-$05AF(A0)       
000023A4: 41ED FA51       'A..Q'          LEA      -$05AF(A5),A0       
000023A8: D0C6            '..'            ADDA.W   D6,A0               
000023AA: 2008            ' .'            MOVE.L   A0,D0               
000023AC: 4CDF 00E0       'L...'          MOVEM.L  (A7)+,D5-D7         
000023B0: 4E5E            'N^'            UNLK     A6                  
000023B2: 4E75            'Nu'            RTS                          
---
000023B4: 8450            '.P'            OR.W     (A0),D2             
000023B6: 6932            'i2'            BVS.S    *+$0034             ; 000023EA
000023B8: 6400 0000       'd...'          BCC      *+$0002             ; 000023BA


Jump Table 158:
(func extern rand)
000023BC: 4E56 0000       'NV..'          LINK     A6,#$0000           
000023C0: 2F07            '/.'            MOVE.L   D7,-(A7)            
000023C2: 4A6E 0008       'Jn..'          TST.W    $0008(A6)           
000023C6: 6604            'f.'            BNE.S    *+$0006             ; 000023CC
000023C8: 7000            'p.'            MOVEQ    #$00,D0             
000023CA: 6016            '`.'            BRA.S    *+$0018             ; 000023E2
000023CC: 4267            'Bg'            CLR.W    -(A7)               
000023CE: A861            '.a'            _Random                      ; A861
000023D0: 3E1F            '>.'            MOVE.W   (A7)+,D7            
000023D2: 4A47            'JG'            TST.W    D7                  
000023D4: 6C02            'l.'            BGE.S    *+$0004             ; 000023D8
000023D6: 4447            'DG'            NEG.W    D7                  
000023D8: 2007            ' .'            MOVE.L   D7,D0               
000023DA: 48C0            'H.'            EXT.L    D0                  
000023DC: 81EE 0008       '....'          DIVS.W   $0008(A6),D0        
000023E0: 4840            'H@'            SWAP     D0                  
000023E2: 2E1F            '..'            MOVE.L   (A7)+,D7            
000023E4: 4E5E            'N^'            UNLK     A6                  
000023E6: 4E75            'Nu'            RTS                          
---
000023E8: 8472            '.r'            DC.W     $8472               ; ????
000023EA: 616E            'an'            BSR.S    *+$0070             ; 0000245A
000023EC: 6400 0000       'd...'          BCC      *+$0002             ; 000023EE


Jump Table 159:
(func extern WaitForClick)
000023F0: 4E56 FFF0       'NV..'          LINK     A6,#$FFF0           
000023F4: 4227            'B''            CLR.B    -(A7)               
000023F6: 3F3C FFFF       '?<..'          MOVE.W   #$FFFF,-(A7)        
000023FA: 486E FFF0       'Hn..'          PEA      -$0010(A6)          
000023FE: A970            '.p'            _GetNextEvent                     ; A970
00002400: 0C6E 0001 FFF0  '.n....'        CMPI.W   #$0001,-$0010(A6)   
00002406: 548F            'T.'            ADDQ.L   #$2,A7              
00002408: 66EA            'f.'            BNE.S    *-$0014             ; 000023F4
0000240A: 4E5E            'N^'            UNLK     A6                  
0000240C: 4E75            'Nu'            RTS                          
---
0000240E: 8C57            '.W'            OR.W     (A7),D6             
00002410: 6169            'ai'            BSR.S    *+$006B             ; 0000247B
00002412: 7446            'tF'            MOVEQ    #$46,D2             ; 'F'
00002414: 6F72            'or'            BLE.S    *+$0074             ; 00002488
00002416: 436C            'Cl'            DC.W     $436C               ; ????
00002418: 6963            'ic'            BVS.S    *+$0065             ; 0000247D
0000241A: 6B00 0000       'k...'          BMI      *+$0002             ; 0000241C


Jump Table 160:
(func extern TellUser)
0000241E: 4E56 0000       'NV..'          LINK     A6,#$0000           
00002422: 2F2E 0008       '/...'          MOVE.L   $0008(A6),-(A7)     
00002426: 2F2E 000C       '/...'          MOVE.L   $000C(A6),-(A7)     
0000242A: 2F2E 0010       '/...'          MOVE.L   $0010(A6),-(A7)     
0000242E: 2F2E 0014       '/...'          MOVE.L   $0014(A6),-(A7)     
00002432: A98B            '..'            _ParamText                     ; A98B
00002434: 4267            'Bg'            CLR.W    -(A7)               
00002436: 3F3C 0103       '?<..'          MOVE.W   #$0103,-(A7)        
0000243A: 42A7            'B.'            CLR.L    -(A7)               
0000243C: A985            '..'            _Alert                       ; A985
0000243E: 4E5E            'N^'            UNLK     A6                  
00002440: 4E75            'Nu'            RTS                          
--
00002442: 8854            '.T'            OR.W     (A4),D4             
00002444: 656C            'el'            BCS.S    *+$006E             ; 000024B2
00002446: 6C55            'lU'            BGE.S    *+$0057             ; 0000249D
00002448: 7365            'se'            DC.W     $7365               ; ????
0000244A: 7200            'r.'            MOVEQ    #$00,D1             
0000244C: 0000


Jump Table 161:
(func extern AskUser)
0000244E: 4E56 0000       'NV..'          LINK     A6,#$0000           
00002452: 2F2E 0008       '/...'          MOVE.L   $0008(A6),-(A7)     
00002456: 2F2E 000C       '/...'          MOVE.L   $000C(A6),-(A7)     
0000245A: 2F2E 0010       '/...'          MOVE.L   $0010(A6),-(A7)     
0000245E: 2F2E 0014       '/...'          MOVE.L   $0014(A6),-(A7)     
00002462: A98B            '..'            _ParamText                     ; A98B
00002464: 4267            'Bg'            CLR.W    -(A7)               
00002466: 3F3C 0104       '?<..'          MOVE.W   #$0104,-(A7)        
0000246A: 42A7            'B.'            CLR.L    -(A7)               
0000246C: A985            '..'            _Alert                       ; A985
0000246E: 0C5F 0001       '._..'          CMPI.W   #$0001,(A7)+        
00002472: 6604            'f.'            BNE.S    *+$0006             ; 00002478
00002474: 7001            'p.'            MOVEQ    #$01,D0             
00002476: 6002            '`.'            BRA.S    *+$0004             ; 0000247A
00002478: 7000            'p.'            MOVEQ    #$00,D0             
0000247A: 4E5E            'N^'            UNLK     A6                  
0000247C: 4E75            'Nu'            RTS                          
---
0000247E: 8741 736B       '.Ask'          PACK     D1,D3,#$736B        
00002482: 5573 6572 0000  'User..'        SUBQ.W   #$2,([$000048E7,A3],$0700) 


Jump Table 162:
(func extern code9-anon8)
00002488: 48E7 0700       'H...'          MOVEM.L  D5-D7,-(A7)         
0000248C: 7C00            '|.'            MOVEQ    #$00,D6             
0000248E: 7A00            'z.'            MOVEQ    #$00,D5             
00002490: 7E01            '~.'            MOVEQ    #$01,D7             
00002492: 601A            '`.'            BRA.S    *+$001C             ; 000024AE
00002494: 302D 9B48       '0-.H'          MOVE.W   -$64B8(A5),D0       
00002498: 48C0            'H.'            EXT.L    D0                  
0000249A: E988            '..'            LSL.L    #$4,D0              
0000249C: 204D            ' M'            MOVEA.L  A5,A0               
0000249E: D1C0            '..'            ADDA.L   D0,A0               
000024A0: 2007            ' .'            MOVE.L   D7,D0               
000024A2: 48C0            'H.'            EXT.L    D0                  
000024A4: C0A8 C738       '...8'          AND.L    -$38C8(A0),D0       
000024A8: 6702            'g.'            BEQ.S    *+$0004             ; 000024AC
000024AA: 5246            'RF'            ADDQ.W   #$1,D6              
000024AC: DE47            '.G'            ADD.W    D7,D7               
000024AE: 0C47 0008       '.G..'          CMPI.W   #$0008,D7           
000024B2: 6FE0            'o.'            BLE.S    *-$001E             ; 00002494
000024B4: 0C46 0001       '.F..'          CMPI.W   #$0001,D6           
000024B8: 6608            'f.'            BNE.S    *+$000A             ; 000024C2
000024BA: 203C 0000 1BEA  ' <....'        MOVE.L   #$00001BEA,D0       
000024C0: 6006            '`.'            BRA.S    *+$0008             ; 000024C8
000024C2: 203C 0000 1BF0  ' <....'        MOVE.L   #$00001BF0,D0       
000024C8: 2F00            '/.'            MOVE.L   D0,-(A7)            
000024CA: 2F3C 0000 1BF2  '/<....'        MOVE.L   #$00001BF2,-(A7)    
000024D0: 4EBA E856       'N..V'          JSR      *-$17A8             ; News()
000024D4: 0C46 0004       '.F..'          CMPI.W   #$0004,D6           
000024D8: 508F            'P.'            ADDQ.L   #$8,A7              
000024DA: 6610            'f.'            BNE.S    *+$0012             ; 000024EC
000024DC: 2F3C 0000 1C00  '/<....'        MOVE.L   #$00001C00,-(A7)    
000024E2: 4EBA E844       'N..D'          JSR      *-$17BA             ; News()
000024E6: 588F            'X.'            ADDQ.L   #$4,A7              
000024E8: 6000 00D4       '`...'          BRA      *+$00D6             ; 000025BE
000024EC: 7E01            '~.'            MOVEQ    #$01,D7             
000024EE: 6000 00C6       '`...'          BRA      *+$00C8             ; 000025B6
000024F2: 302D 9B48       '0-.H'          MOVE.W   -$64B8(A5),D0       
000024F6: 48C0            'H.'            EXT.L    D0                  
000024F8: E988            '..'            LSL.L    #$4,D0              
000024FA: 204D            ' M'            MOVEA.L  A5,A0               
000024FC: D1C0            '..'            ADDA.L   D0,A0               
000024FE: 2007            ' .'            MOVE.L   D7,D0               
00002500: 48C0            'H.'            EXT.L    D0                  
00002502: C0A8 C738       '...8'          AND.L    -$38C8(A0),D0       
00002506: 6700 00AC       'g...'          BEQ      *+$00AE             ; 000025B4
0000250A: BE6D 9B4A       '.m.J'          CMP.W    -$64B6(A5),D7       
0000250E: 660E            'f.'            BNE.S    *+$0010             ; 0000251E
00002510: 2F3C 0000 1C1C  '/<....'        MOVE.L   #$00001C1C,-(A7)    
00002516: 4EBA E810       'N...'          JSR      *-$17EE             ; News()
0000251A: 588F            'X.'            ADDQ.L   #$4,A7              
0000251C: 6044            '`D'            BRA.S    *+$0046             ; 00002562
0000251E: 3F2D 9B4A       '?-.J'          MOVE.W   -$64B6(A5),-(A7)    
00002522: 4EBA DC64       'N..d'          JSR      *-$239A             ; leftof()
00002526: B047            '.G'            CMP.W    D7,D0               
00002528: 548F            'T.'            ADDQ.L   #$2,A7              
0000252A: 660E            'f.'            BNE.S    *+$0010             ; 0000253A
0000252C: 2F3C 0000 1C24  '/<...$'        MOVE.L   #$00001C24,-(A7)    
00002532: 4EBA E7F4       'N...'          JSR      *-$180A             ; News()
00002536: 588F            'X.'            ADDQ.L   #$4,A7              
00002538: 6028            '`('            BRA.S    *+$002A             ; 00002562
0000253A: 3F2D 9B4A       '?-.J'          MOVE.W   -$64B6(A5),-(A7)    
0000253E: 4EBA DC90       'N...'          JSR      *-$236E             ; rightof()
00002542: B047            '.G'            CMP.W    D7,D0               
00002544: 548F            'T.'            ADDQ.L   #$2,A7              
00002546: 660E            'f.'            BNE.S    *+$0010             ; 00002556
00002548: 2F3C 0000 1C2A  '/<...*'        MOVE.L   #$00001C2A,-(A7)    
0000254E: 4EBA E7D8       'N...'          JSR      *-$1826             ; News()
00002552: 588F            'X.'            ADDQ.L   #$4,A7              
00002554: 600C            '`.'            BRA.S    *+$000E             ; 00002562
00002556: 2F3C 0000 1C30  '/<...0'        MOVE.L   #$00001C30,-(A7)    
0000255C: 4EBA E7CA       'N...'          JSR      *-$1834             ; News()
00002560: 588F            'X.'            ADDQ.L   #$4,A7              
00002562: 5245            'RE'            ADDQ.W   #$1,D5              
00002564: BC45            '.E'            CMP.W    D5,D6               
00002566: 660E            'f.'            BNE.S    *+$0010             ; 00002576
00002568: 2F3C 0000 1C3A  '/<...:'        MOVE.L   #$00001C3A,-(A7)    
0000256E: 4EBA E7B8       'N...'          JSR      *-$1846             ; News()
00002572: 588F            'X.'            ADDQ.L   #$4,A7              
00002574: 603E            '`>'            BRA.S    *+$0040             ; 000025B4
00002576: 70FF            'p.'            MOVEQ    #$FF,D0             
00002578: D046            '.F'            ADD.W    D6,D0               
0000257A: B045            '.E'            CMP.W    D5,D0               
0000257C: 6614            'f.'            BNE.S    *+$0016             ; 00002592
0000257E: 0C45 0002       '.E..'          CMPI.W   #$0002,D5           
00002582: 6F0E            'o.'            BLE.S    *+$0010             ; 00002592
00002584: 2F3C 0000 1C5E  '/<...^'        MOVE.L   #$00001C5E,-(A7)    
0000258A: 4EBA E79C       'N...'          JSR      *-$1862             ; News()
0000258E: 588F            'X.'            ADDQ.L   #$4,A7              
00002590: 6022            '`"'            BRA.S    *+$0024             ; 000025B4
00002592: 70FF            'p.'            MOVEQ    #$FF,D0             
00002594: D046            '.F'            ADD.W    D6,D0               
00002596: B045            '.E'            CMP.W    D5,D0               
00002598: 660E            'f.'            BNE.S    *+$0010             ; 000025A8
0000259A: 2F3C 0000 1C64  '/<...d'        MOVE.L   #$00001C64,-(A7)    
000025A0: 4EBA E786       'N...'          JSR      *-$1878             ; News()
000025A4: 588F            'X.'            ADDQ.L   #$4,A7              
000025A6: 600C            '`.'            BRA.S    *+$000E             ; 000025B4
000025A8: 2F3C 0000 1C6A  '/<...j'        MOVE.L   #$00001C6A,-(A7)    
000025AE: 4EBA E778       'N..x'          JSR      *-$1886             ; News()
000025B2: 588F            'X.'            ADDQ.L   #$4,A7              
000025B4: DE47            '.G'            ADD.W    D7,D7               
000025B6: 0C47 0008       '.G..'          CMPI.W   #$0008,D7           
000025BA: 6F00 FF36       'o..6'          BLE      *-$00C8             ; 000024F2
000025BE: 4CDF 00E0       'L...'          MOVEM.L  (A7)+,D5-D7         
000025C2: 4E75            'Nu'            RTS                          


(func intern MenuMs))
000025C4: 4E56 0000       'NV..'          LINK     A6,#$0000           
000025C8: 4267            'Bg'            CLR.W    -(A7)               
000025CA: A938            '.8'            _HiliteMenu                     ; A938
000025CC: 4AAD FA5E       'J..^'          TST.L    -$05A2(A5)          
000025D0: 670C            'g.'            BEQ.S    *+$000E             ; 000025DE
000025D2: 3F3C 0009       '?<..'          MOVE.W   #$0009,-(A7)        
000025D6: A936            '.6'            _DeleteMenu                     ; A936
000025D8: 2F2D FA5E       '/-.^'          MOVE.L   -$05A2(A5),-(A7)    
000025DC: A932            '.2'            _DisposeMenu                     ; A932
000025DE: 42A7            'B.'            CLR.L    -(A7)               
000025E0: 3F3C 0009       '?<..'          MOVE.W   #$0009,-(A7)        
000025E4: 2F2E 0008       '/...'          MOVE.L   $0008(A6),-(A7)     
000025E8: A931            '.1'            _NewMenu                     ; A931
000025EA: 2B5F FA5E       '+_.^'          MOVE.L   (A7)+,-$05A2(A5)    
000025EE: 2F2D FA5E       '/-.^'          MOVE.L   -$05A2(A5),-(A7)    
000025F2: 4267            'Bg'            CLR.W    -(A7)               
000025F4: A935            '.5'            _InsertMenu                     ; A935
000025F6: A937            '.7'            _DrawMenuBar                     ; A937
000025F8: 4E5E            'N^'            UNLK     A6                  
000025FA: 4E75            'Nu'            RTS                          
---
000025FC: 864D            '.M'            OR.W     A5,D3               
000025FE: 656E            'en'            BCS.S    *+$0070             ; 0000266E
00002600: 754D            'uM'            DC.W     $754D               ; ????
00002602: 7300            's.'            DC.W     $7300               ; ????
00002604: 0000


Jump Table 163:
(func extern Beep)
00002606: 4E56 0000       'NV..'          LINK     A6,#$0000           
0000260A: 4A2D 969F       'J-..'          TST.B    -$6961(A5)          
0000260E: 6606            'f.'            BNE.S    *+$0008             ; 00002616
00002610: 3F2E 0008       '?...'          MOVE.W   $0008(A6),-(A7)     
00002614: A9C8            '..'            _SysBeep                     ; A9C8
00002616: 4E5E            'N^'            UNLK     A6                  
00002618: 4E75            'Nu'            RTS                          
---
0000261A: 8442            '.B'            OR.W     D2,D2               
0000261C: 6565            'ee'            BCS.S    *+$0067             ; 00002683
0000261E: 7000            'p.'            MOVEQ    #$00,D0             
00002620: 0000            '..'            DC.W     $0000    
