File: Scarab, Resource 29, Type: CODE
First jump table entry offset = $8620, Jump table entries used = 6
Segment size = $99A [2458]
00000000: 4E56 0000       'NV..'          LINK     A6,#$0000           
00000004: 1B6E 0009 FF3C  '.n...<'        MOVE.B   $0009(A6),-$00C4(A5) 
0000000A: 4E5E            'N^'            UNLK     A6                  
0000000C: 4E75            'Nu'            RTS                          
0000000E: 8849            '.I'            OR.W     A1,D4               
00000010: 6E69            'ni'            BGT.S    *+$006B             ; 0000007B
00000012: 7448            'tH'            MOVEQ    #$48,D2             ; 'H'
00000014: 656C            'el'            BCS.S    *+$006E             ; 00000082
00000016: 7000            'p.'            MOVEQ    #$00,D0             
00000018: 0000 4E56       '..NV'          ORI.B    #$4E56,D0           ; 'V'
0000001C: FEFA            '..'            DC.W     $FEFA               ; ????
0000001E: 48E7 0118       'H...'          MOVEM.L  D7/A3/A4,-(A7)      
00000022: 42A7            'B.'            CLR.L    -(A7)               
00000024: 2F2E 0008       '/...'          MOVE.L   $0008(A6),-(A7)     
00000028: 4267            'Bg'            CLR.W    -(A7)               
0000002A: A9A0            '..'            _GetResource                     ; A9A0
0000002C: 285F            '(_'            MOVEA.L  (A7)+,A4            
0000002E: 200C            ' .'            MOVE.L   A4,D0               
00000030: 6604            'f.'            BNE.S    *+$0006             ; 00000036
00000032: 7000            'p.'            MOVEQ    #$00,D0             
00000034: 6070            '`p'            BRA.S    *+$0072             ; 000000A6
00000036: 42A7            'B.'            CLR.L    -(A7)               
00000038: 2F0C            '/.'            MOVE.L   A4,-(A7)            
0000003A: A9A5            '..'            _SizeRsrc                     ; A9A5
0000003C: 201F            ' .'            MOVE.L   (A7)+,D0            
0000003E: 1D40 FEFA       '.@..'          MOVE.B   D0,-$0106(A6)       
00000042: 7E01            '~.'            MOVEQ    #$01,D7             
00000044: 600E            '`.'            BRA.S    *+$0010             ; 00000054
00000046: 2054            ' T'            MOVEA.L  (A4),A0             
00000048: 224E            '"N'            MOVEA.L  A6,A1               
0000004A: D2C7            '..'            ADDA.W   D7,A1               
0000004C: 1370 70FF FEFA  '.pp...'        MOVE.B   -$01(A0,D7.W),-$0106(A1) 
00000052: 5247            'RG'            ADDQ.W   #$1,D7              
00000054: 7000            'p.'            MOVEQ    #$00,D0             
00000056: 102E FEFA       '....'          MOVE.B   -$0106(A6),D0       
0000005A: B047            '.G'            CMP.W    D7,D0               
0000005C: 6CE8            'l.'            BGE.S    *-$0016             ; 00000046
0000005E: 42A7            'B.'            CLR.L    -(A7)               
00000060: 3F2E 000C       '?...'          MOVE.W   $000C(A6),-(A7)     
00000064: 486E FEFA       'Hn..'          PEA      -$0106(A6)          
00000068: A931            '.1'            _NewMenu                     ; A931
0000006A: 265F            '&_'            MOVEA.L  (A7)+,A3            
0000006C: 200B            ' .'            MOVE.L   A3,D0               
0000006E: 6604            'f.'            BNE.S    *+$0006             ; 00000074
00000070: 7000            'p.'            MOVEQ    #$00,D0             
00000072: 6032            '`2'            BRA.S    *+$0034             ; 000000A6
00000074: 3E3C 03E8       '><..'          MOVE.W   #$03E8,D7           
00000078: 42A7            'B.'            CLR.L    -(A7)               
0000007A: 2F2E 0008       '/...'          MOVE.L   $0008(A6),-(A7)     
0000007E: 3F07            '?.'            MOVE.W   D7,-(A7)            
00000080: A9A0            '..'            _GetResource                     ; A9A0
00000082: 285F            '(_'            MOVEA.L  (A7)+,A4            
00000084: 200C            ' .'            MOVE.L   A4,D0               
00000086: 671C            'g.'            BEQ.S    *+$001E             ; 000000A4
00000088: 2F0C            '/.'            MOVE.L   A4,-(A7)            
0000008A: 486E FFFE       'Hn..'          PEA      -$0002(A6)          
0000008E: 486E FFFA       'Hn..'          PEA      -$0006(A6)          
00000092: 486E FEFA       'Hn..'          PEA      -$0106(A6)          
00000096: A9A8            '..'            _GetResInfo                     ; A9A8
00000098: 2F0B            '/.'            MOVE.L   A3,-(A7)            
0000009A: 486E FEFA       'Hn..'          PEA      -$0106(A6)          
0000009E: A933            '.3'            _AppendMenu                     ; A933
000000A0: 5247            'RG'            ADDQ.W   #$1,D7              
000000A2: 60D4            '`.'            BRA.S    *-$002A             ; 00000078
000000A4: 200B            ' .'            MOVE.L   A3,D0               
000000A6: 4CDF 1880       'L...'          MOVEM.L  (A7)+,D7/A3/A4      
000000AA: 4E5E            'N^'            UNLK     A6                  
000000AC: 4E75            'Nu'            RTS                          
000000AE: 8848            '.H'            OR.W     A0,D4               
000000B0: 656C            'el'            BCS.S    *+$006E             ; 0000011E
000000B2: 704D            'pM'            MOVEQ    #$4D,D0             ; 'M'
000000B4: 656E            'en'            BCS.S    *+$0070             ; 00000124
000000B6: 7500            'u.'            DC.W     $7500               ; ????
000000B8: 0000 4E56       '..NV'          ORI.B    #$4E56,D0           ; 'V'
000000BC: FFE2            '..'            DC.W     $FFE2               ; ????
000000BE: 2F0C            '/.'            MOVE.L   A4,-(A7)            
000000C0: 287C 0000 2B84  '(|..+.'        MOVEA.L  #$00002B84,A4       
000000C6: 0C6E 0001 000C  '.n....'        CMPI.W   #$0001,$000C(A6)    
000000CC: 6C08            'l.'            BGE.S    *+$000A             ; 000000D6
000000CE: 202D FF38       ' -.8'          MOVE.L   -$00C8(A5),D0       
000000D2: 6000 01FC       '`...'          BRA      *+$01FE             ; 000002D0
000000D6: 0CAE 4869 6E74  '..Hint'        CMPI.L   #$48696E74,$0008(A6) ; 'Hint'
          0008            '..'    
000000DE: 6610            'f.'            BNE.S    *+$0012             ; 000000F0
000000E0: 4EBA 07BA       'N...'          JSR      *+$07BC             ; 0000089C
000000E4: 4A40            'J@'            TST.W    D0                  
000000E6: 6608            'f.'            BNE.S    *+$000A             ; 000000F0
000000E8: 202D FF38       ' -.8'          MOVE.L   -$00C8(A5),D0       
000000EC: 6000 01E2       '`...'          BRA      *+$01E4             ; 000002D0
000000F0: 4AAD FF38       'J..8'          TST.L    -$00C8(A5)          
000000F4: 6600 01A4       'f...'          BNE      *+$01A6             ; 0000029A
000000F8: 42A7            'B.'            CLR.L    -(A7)               
000000FA: 2F3C 0000 2BAE  '/<..+.'        MOVE.L   #$00002BAE,-(A7)    
00000100: 4EBA 0756       'N..V'          JSR      *+$0758             ; 00000858
00000104: 548F            'T.'            ADDQ.L   #$2,A7              
00000106: 3E80            '>.'            MOVE.W   D0,(A7)             
00000108: 486D FF46       'Hm.F'          PEA      -$00BA(A5)          
0000010C: 4878 FFFF       'Hx..'          PEA      $FFFF               
00000110: A97C            '.|'            _GetNewDialog                     ; A97C
00000112: 2B5F FF38       '+_.8'          MOVE.L   (A7)+,-$00C8(A5)    
00000116: 4AAD FF38       'J..8'          TST.L    -$00C8(A5)          
0000011A: 6620            'f '            BNE.S    *+$0022             ; 0000013C
0000011C: 2F3C 0000 2BBA  '/<..+.'        MOVE.L   #$00002BBA,-(A7)    
00000122: 2F3C 0000 2BBC  '/<..+.'        MOVE.L   #$00002BBC,-(A7)    
00000128: 2F3C 0000 2BBE  '/<..+.'        MOVE.L   #$00002BBE,-(A7)    
0000012E: 2F0C            '/.'            MOVE.L   A4,-(A7)            
00000130: 4EAD 051A       'N...'          JSR      $051A(A5)           
00000134: 202D FF38       ' -.8'          MOVE.L   -$00C8(A5),D0       
00000138: 6000 0196       '`...'          BRA      *+$0198             ; 000002D0
0000013C: 2F2D FF38       '/-.8'          MOVE.L   -$00C8(A5),-(A7)    
00000140: A873            '.s'            _SetPort                     ; A873
00000142: 2F2D FF38       '/-.8'          MOVE.L   -$00C8(A5),-(A7)    
00000146: 3F3C 0003       '?<..'          MOVE.W   #$0003,-(A7)        
0000014A: 486E FFE2       'Hn..'          PEA      -$001E(A6)          
0000014E: 486E FFEC       'Hn..'          PEA      -$0014(A6)          
00000152: 486E FFE4       'Hn..'          PEA      -$001C(A6)          
00000156: A98D            '..'            _GetDItem                     ; A98D
00000158: 2D6E FFE4 FFF0  '-n....'        MOVE.L   -$001C(A6),-$0010(A6) 
0000015E: 2D6E FFE8 FFF4  '-n....'        MOVE.L   -$0018(A6),-$000C(A6) 
00000164: 2D6E FFE4 FFF8  '-n....'        MOVE.L   -$001C(A6),-$0008(A6) 
0000016A: 2D6E FFE8 FFFC  '-n....'        MOVE.L   -$0018(A6),-$0004(A6) 
00000170: 486E FFF8       'Hn..'          PEA      -$0008(A6)          
00000174: 4878 0004       'Hx..'          PEA      $0004               
00000178: A8A9            '..'            _InsetRect                     ; A8A9
0000017A: 42A7            'B.'            CLR.L    -(A7)               
0000017C: 486E FFF8       'Hn..'          PEA      -$0008(A6)          
00000180: 486E FFF0       'Hn..'          PEA      -$0010(A6)          
00000184: A9D2            '..'            _TENew                       ; A9D2
00000186: 201F            ' .'            MOVE.L   (A7)+,D0            
00000188: 2B40 FFF8       '+@..'          MOVE.L   D0,-$0008(A5)       
0000018C: 6628            'f('            BNE.S    *+$002A             ; 000001B6
0000018E: 2F3C 0000 2BC0  '/<..+.'        MOVE.L   #$00002BC0,-(A7)    
00000194: 2F3C 0000 2BC2  '/<..+.'        MOVE.L   #$00002BC2,-(A7)    
0000019A: 2F3C 0000 2BC4  '/<..+.'        MOVE.L   #$00002BC4,-(A7)    
000001A0: 2F0C            '/.'            MOVE.L   A4,-(A7)            
000001A2: 4EAD 051A       'N...'          JSR      $051A(A5)           
000001A6: 2EAD FF38       '...8'          MOVE.L   -$00C8(A5),(A7)     
000001AA: A982            '..'            _CloseDialog                     ; A982
000001AC: 42AD FF38       'B..8'          CLR.L    -$00C8(A5)          
000001B0: 7000            'p.'            MOVEQ    #$00,D0             
000001B2: 6000 011C       '`...'          BRA      *+$011E             ; 000002D0
000001B6: 2F2D FF38       '/-.8'          MOVE.L   -$00C8(A5),-(A7)    
000001BA: 3F3C 0003       '?<..'          MOVE.W   #$0003,-(A7)        
000001BE: 3F2E FFE2       '?...'          MOVE.W   -$001E(A6),-(A7)    
000001C2: 486D 0642       'Hm.B'          PEA      $0642(A5)           
000001C6: 486E FFE4       'Hn..'          PEA      -$001C(A6)          
000001CA: A98E            '..'            _SetDItem                     ; A98E
000001CC: 2F2D FF38       '/-.8'          MOVE.L   -$00C8(A5),-(A7)    
000001D0: 3F3C 0004       '?<..'          MOVE.W   #$0004,-(A7)        
000001D4: 486E FFE2       'Hn..'          PEA      -$001E(A6)          
000001D8: 486E FFEC       'Hn..'          PEA      -$0014(A6)          
000001DC: 486E FFE4       'Hn..'          PEA      -$001C(A6)          
000001E0: A98D            '..'            _GetDItem                     ; A98D
000001E2: 42A7            'B.'            CLR.L    -(A7)               
000001E4: 2F2D FF38       '/-.8'          MOVE.L   -$00C8(A5),-(A7)    
000001E8: 486E FFE4       'Hn..'          PEA      -$001C(A6)          
000001EC: 2F3C 0000 2BC6  '/<..+.'        MOVE.L   #$00002BC6,-(A7)    
000001F2: 42A7            'B.'            CLR.L    -(A7)               
000001F4: 42A7            'B.'            CLR.L    -(A7)               
000001F6: 3F3C 0010       '?<..'          MOVE.W   #$0010,-(A7)        
000001FA: 42A7            'B.'            CLR.L    -(A7)               
000001FC: A954            '.T'            _NewControl                     ; A954
000001FE: 201F            ' .'            MOVE.L   (A7)+,D0            
00000200: 2B40 FFFC       '+@..'          MOVE.L   D0,-$0004(A5)       
00000204: 662E            'f.'            BNE.S    *+$0030             ; 00000234
00000206: 2F3C 0000 2BC8  '/<..+.'        MOVE.L   #$00002BC8,-(A7)    
0000020C: 2F3C 0000 2BCA  '/<..+.'        MOVE.L   #$00002BCA,-(A7)    
00000212: 2F3C 0000 2BCC  '/<..+.'        MOVE.L   #$00002BCC,-(A7)    
00000218: 2F0C            '/.'            MOVE.L   A4,-(A7)            
0000021A: 4EAD 051A       'N...'          JSR      $051A(A5)           
0000021E: 2EAD FFF8       '....'          MOVE.L   -$0008(A5),(A7)     
00000222: A9CD            '..'            _TEDispose                     ; A9CD
00000224: 2EAD FF38       '...8'          MOVE.L   -$00C8(A5),(A7)     
00000228: A982            '..'            _CloseDialog                     ; A982
0000022A: 42AD FF38       'B..8'          CLR.L    -$00C8(A5)          
0000022E: 7000            'p.'            MOVEQ    #$00,D0             
00000230: 6000 009E       '`...'          BRA      *+$00A0             ; 000002D0
00000234: 2F2D FF38       '/-.8'          MOVE.L   -$00C8(A5),-(A7)    
00000238: 3F3C 0004       '?<..'          MOVE.W   #$0004,-(A7)        
0000023C: 3F2E FFE2       '?...'          MOVE.W   -$001E(A6),-(A7)    
00000240: 486D 066A       'Hm.j'          PEA      $066A(A5)           
00000244: 486E FFE4       'Hn..'          PEA      -$001C(A6)          
00000248: A98E            '..'            _SetDItem                     ; A98E
0000024A: 2F2D FF38       '/-.8'          MOVE.L   -$00C8(A5),-(A7)    
0000024E: 3F3C 0001       '?<..'          MOVE.W   #$0001,-(A7)        
00000252: 486E FFE2       'Hn..'          PEA      -$001E(A6)          
00000256: 486D FFF0       'Hm..'          PEA      -$0010(A5)          
0000025A: 486E FFE4       'Hn..'          PEA      -$001C(A6)          
0000025E: A98D            '..'            _GetDItem                     ; A98D
00000260: 2F2D FF38       '/-.8'          MOVE.L   -$00C8(A5),-(A7)    
00000264: 3F3C 0002       '?<..'          MOVE.W   #$0002,-(A7)        
00000268: 486E FFE2       'Hn..'          PEA      -$001E(A6)          
0000026C: 486D FFF4       'Hm..'          PEA      -$000C(A5)          
00000270: 486E FFE4       'Hn..'          PEA      -$001C(A6)          
00000274: A98D            '..'            _GetDItem                     ; A98D
00000276: 4A2D FF3C       'J-.<'          TST.B    -$00C4(A5)          
0000027A: 6624            'f$'            BNE.S    *+$0026             ; 000002A0
0000027C: 2F2D FF38       '/-.8'          MOVE.L   -$00C8(A5),-(A7)    
00000280: 3F3C 0005       '?<..'          MOVE.W   #$0005,-(A7)        
00000284: 486E FFE2       'Hn..'          PEA      -$001E(A6)          
00000288: 486E FFEC       'Hn..'          PEA      -$0014(A6)          
0000028C: 486E FFE4       'Hn..'          PEA      -$001C(A6)          
00000290: A98D            '..'            _GetDItem                     ; A98D
00000292: 2F2E FFEC       '/...'          MOVE.L   -$0014(A6),-(A7)    
00000296: A958            '.X'            _HideControl                     ; A958
00000298: 6006            '`.'            BRA.S    *+$0008             ; 000002A0
0000029A: 2F2D FF38       '/-.8'          MOVE.L   -$00C8(A5),-(A7)    
0000029E: A873            '.s'            _SetPort                     ; A873
000002A0: 70FF            'p.'            MOVEQ    #$FF,D0             
000002A2: D06E 000C       '.n..'          ADD.W    $000C(A6),D0        
000002A6: 3B40 FF3E       ';@.>'          MOVE.W   D0,-$00C2(A5)       
000002AA: 2B6E 0008 FF40  '+n...@'        MOVE.L   $0008(A6),-$00C0(A5) 
000002B0: 1B7C 0001 FF44  '.|...D'        MOVE.B   #$01,-$00BC(A5)     
000002B6: 2F2D FF38       '/-.8'          MOVE.L   -$00C8(A5),-(A7)    
000002BA: 4267            'Bg'            CLR.W    -(A7)               
000002BC: 4EBA 00DC       'N...'          JSR      *+$00DE             ; 0000039A
000002C0: 2F2D FF38       '/-.8'          MOVE.L   -$00C8(A5),-(A7)    
000002C4: A915            '..'            _ShowWindow                     ; A915
000002C6: 2F2D FF38       '/-.8'          MOVE.L   -$00C8(A5),-(A7)    
000002CA: A91F            '..'            _SelectWindow                     ; A91F
000002CC: 202D FF38       ' -.8'          MOVE.L   -$00C8(A5),D0       
000002D0: 286E FFDE       '(n..'          MOVEA.L  -$0022(A6),A4       
000002D4: 4E5E            'N^'            UNLK     A6                  
000002D6: 4E75            'Nu'            RTS                          
000002D8: 8448            '.H'            OR.W     A0,D2               
000002DA: 656C            'el'            BCS.S    *+$006E             ; 00000348
000002DC: 7000            'p.'            MOVEQ    #$00,D0             
000002DE: 0000 2F2D       '../-'          ORI.B    #$2F2D,D0           ; '-'
000002E2: FF38            '.8'            DC.W     $FF38               ; ????
000002E4: 4267            'Bg'            CLR.W    -(A7)               
000002E6: 4EBA 00B2       'N...'          JSR      *+$00B4             ; 0000039A
000002EA: 4E75            'Nu'            RTS                          
000002EC: 4E56 0000       'NV..'          LINK     A6,#$0000           
000002F0: 302E 0008       '0...'          MOVE.W   $0008(A6),D0        
000002F4: 6766            'gf'            BEQ.S    *+$0068             ; 0000035C
000002F6: 6B64            'kd'            BMI.S    *+$0066             ; 0000035C
000002F8: 5940            'Y@'            SUBQ.W   #$4,D0              
000002FA: 674E            'gN'            BEQ.S    *+$0050             ; 0000034A
000002FC: 6A08            'j.'            BPL.S    *+$000A             ; 00000306
000002FE: 5440            'T@'            ADDQ.W   #$2,D0              
00000300: 6726            'g&'            BEQ.S    *+$0028             ; 00000328
00000302: 6A58            'jX'            BPL.S    *+$005A             ; 0000035C
00000304: 6006            '`.'            BRA.S    *+$0008             ; 0000030C
00000306: 5540            'U@'            SUBQ.W   #$2,D0              
00000308: 6A52            'jR'            BPL.S    *+$0054             ; 0000035C
0000030A: 6038            '`8'            BRA.S    *+$003A             ; 00000344
0000030C: 526D FF3E       'Rm.>'          ADDQ.W   #$1,-$00C2(A5)      
00000310: 1B7C 0001 FF44  '.|...D'        MOVE.B   #$01,-$00BC(A5)     
00000316: 2F2D FF38       '/-.8'          MOVE.L   -$00C8(A5),-(A7)    
0000031A: 3F3C 0001       '?<..'          MOVE.W   #$0001,-(A7)        
0000031E: 4EBA 007A       'N..z'          JSR      *+$007C             ; 0000039A
00000322: 422D FF44       'B-.D'          CLR.B    -$00BC(A5)          
00000326: 603E            '`>'            BRA.S    *+$0040             ; 00000366
00000328: 536D FF3E       'Sm.>'          SUBQ.W   #$1,-$00C2(A5)      
0000032C: 1B7C 0001 FF44  '.|...D'        MOVE.B   #$01,-$00BC(A5)     
00000332: 2F2D FF38       '/-.8'          MOVE.L   -$00C8(A5),-(A7)    
00000336: 3F3C 0002       '?<..'          MOVE.W   #$0002,-(A7)        
0000033A: 4EBA 005E       'N..^'          JSR      *+$0060             ; 0000039A
0000033E: 422D FF44       'B-.D'          CLR.B    -$00BC(A5)          
00000342: 6022            '`"'            BRA.S    *+$0024             ; 00000366
00000344: 4EBA 0036       'N..6'          JSR      *+$0038             ; 0000037C
00000348: 601C            '`.'            BRA.S    *+$001E             ; 00000366
0000034A: 4267            'Bg'            CLR.W    -(A7)               
0000034C: 2F2D FFFC       '/-..'          MOVE.L   -$0004(A5),-(A7)    
00000350: A962            '.b'            _GetMaxCtl                     ; A962
00000352: 4A5F            'J_'            TST.W    (A7)+               
00000354: 6F10            'o.'            BLE.S    *+$0012             ; 00000366
00000356: 4EBA 01AE       'N...'          JSR      *+$01B0             ; 00000506
0000035A: 600A            '`.'            BRA.S    *+$000C             ; 00000366
0000035C: 3F3C 0003       '?<..'          MOVE.W   #$0003,-(A7)        
00000360: 4EAD 0532       'N..2'          JSR      $0532(A5)           
00000364: 548F            'T.'            ADDQ.L   #$2,A7              
00000366: 202D FF38       ' -.8'          MOVE.L   -$00C8(A5),D0       
0000036A: 4E5E            'N^'            UNLK     A6                  
0000036C: 4E75            'Nu'            RTS                          
0000036E: 8B48 656C       '.Hel'          PACK     -(A0),-(A5),#$656C  
00000372: 7042            'pB'            MOVEQ    #$42,D0             ; 'B'
00000374: 7574            'ut'            DC.W     $7574               ; ????
00000376: 746F            'to'            MOVEQ    #$6F,D2             ; 'o'
00000378: 6E73            'ns'            BGT.S    *+$0075             ; 000003ED
0000037A: 0000 2F2D       '../-'          ORI.B    #$2F2D,D0           ; '-'
0000037E: FFFC            '..'            DC.W     $FFFC               ; ????
00000380: A955            '.U'            _DisposeControl                     ; A955
00000382: 2F2D FF38       '/-.8'          MOVE.L   -$00C8(A5),-(A7)    
00000386: A982            '..'            _CloseDialog                     ; A982
00000388: 42AD FF38       'B..8'          CLR.L    -$00C8(A5)          
0000038C: 2F2D FFF8       '/-..'          MOVE.L   -$0008(A5),-(A7)    
00000390: A9CD            '..'            _TEDispose                     ; A9CD
00000392: 1B7C 0001 FF44  '.|...D'        MOVE.B   #$01,-$00BC(A5)     
00000398: 4E75            'Nu'            RTS                          
0000039A: 4E56 FFFC       'NV..'          LINK     A6,#$FFFC           
0000039E: 486E FFFC       'Hn..'          PEA      -$0004(A6)          
000003A2: A874            '.t'            _GetPort                     ; A874
000003A4: 2F2D FF38       '/-.8'          MOVE.L   -$00C8(A5),-(A7)    
000003A8: A873            '.s'            _SetPort                     ; A873
000003AA: 4A2D FF44       'J-.D'          TST.B    -$00BC(A5)          
000003AE: 670A            'g.'            BEQ.S    *+$000C             ; 000003BA
000003B0: 4EBA 002E       'N...'          JSR      *+$0030             ; 000003E0
000003B4: 422D FF44       'B-.D'          CLR.B    -$00BC(A5)          
000003B8: 600E            '`.'            BRA.S    *+$0010             ; 000003C8
000003BA: 206D FF38       ' m.8'          MOVEA.L  -$00C8(A5),A0       
000003BE: 4868 0010       'Hh..'          PEA      $0010(A0)           
000003C2: 2F2D FFF8       '/-..'          MOVE.L   -$0008(A5),-(A7)    
000003C6: A9D3            '..'            _TEUpdate                     ; A9D3
000003C8: 2F2E FFFC       '/...'          MOVE.L   -$0004(A6),-(A7)    
000003CC: A873            '.s'            _SetPort                     ; A873
000003CE: 4E5E            'N^'            UNLK     A6                  
000003D0: 205F            ' _'            MOVEA.L  (A7)+,A0            
000003D2: 5C8F            '\.'            ADDQ.L   #$6,A7              
000003D4: 4ED0            'N.'            JMP      (A0)                
000003D6: 8664            '.d'            OR.W     -(A4),D3            
000003D8: 6F48            'oH'            BLE.S    *+$004A             ; 00000422
000003DA: 656C            'el'            BCS.S    *+$006E             ; 00000448
000003DC: 7000            'p.'            MOVEQ    #$00,D0             
000003DE: 0000 4E56       '..NV'          ORI.B    #$4E56,D0           ; 'V'
000003E2: FDF8            '..'            DC.W     $FDF8               ; ????
000003E4: 48E7 0108       'H...'          MOVEM.L  D7/A4,-(A7)         
000003E8: 42A7            'B.'            CLR.L    -(A7)               
000003EA: 2F2D FF40       '/-.@'          MOVE.L   -$00C0(A5),-(A7)    
000003EE: 302D FF3E       '0-.>'          MOVE.W   -$00C2(A5),D0       
000003F2: 0640 03E8       '.@..'          ADDI.W   #$03E8,D0           
000003F6: 3F00            '?.'            MOVE.W   D0,-(A7)            
000003F8: A9A0            '..'            _GetResource                     ; A9A0
000003FA: 285F            '(_'            MOVEA.L  (A7)+,A4            
000003FC: 200C            ' .'            MOVE.L   A4,D0               
000003FE: 6700 00F2       'g...'          BEQ      *+$00F4             ; 000004F2
00000402: 2F0C            '/.'            MOVE.L   A4,-(A7)            
00000404: 486E FFFC       'Hn..'          PEA      -$0004(A6)          
00000408: 486E FFF8       'Hn..'          PEA      -$0008(A6)          
0000040C: 486E FEF8       'Hn..'          PEA      -$0108(A6)          
00000410: A9A8            '..'            _GetResInfo                     ; A9A8
00000412: 42A7            'B.'            CLR.L    -(A7)               
00000414: 4878 7FFF       'Hx..'          PEA      $7FFF               
00000418: 2F2D FFF8       '/-..'          MOVE.L   -$0008(A5),-(A7)    
0000041C: A9D1            '..'            _TESetSelect                     ; A9D1
0000041E: 2F2D FFF8       '/-..'          MOVE.L   -$0008(A5),-(A7)    
00000422: A9D7            '..'            _TEDelete                     ; A9D7
00000424: 206D FFF8       ' m..'          MOVEA.L  -$0008(A5),A0       
00000428: 2050            ' P'            MOVEA.L  (A0),A0             
0000042A: 226D FFF8       '"m..'          MOVEA.L  -$0008(A5),A1       
0000042E: 2251            '"Q'            MOVEA.L  (A1),A1             
00000430: 22A8 0008       '"...'          MOVE.L   $0008(A0),(A1)      
00000434: 2368 000C 0004  '#h....'        MOVE.L   $000C(A0),$0004(A1) 
0000043A: 206D FFF8       ' m..'          MOVEA.L  -$0008(A5),A0       
0000043E: 2F10            '/.'            MOVE.L   (A0),-(A7)          
00000440: 4878 0004       'Hx..'          PEA      $0004               
00000444: A8A9            '..'            _InsetRect                     ; A8A9
00000446: 2F2D FFFC       '/-..'          MOVE.L   -$0004(A5),-(A7)    
0000044A: 4267            'Bg'            CLR.W    -(A7)               
0000044C: A963            '.c'            _SetCtlValue                     ; A963
0000044E: 2F14            '/.'            MOVE.L   (A4),-(A7)          
00000450: 42A7            'B.'            CLR.L    -(A7)               
00000452: 2F0C            '/.'            MOVE.L   A4,-(A7)            
00000454: A9A5            '..'            _SizeRsrc                     ; A9A5
00000456: 2F2D FFF8       '/-..'          MOVE.L   -$0008(A5),-(A7)    
0000045A: A9DE            '..'            _TEInsert                     ; A9DE
0000045C: 42A7            'B.'            CLR.L    -(A7)               
0000045E: 2F2D FF40       '/-.@'          MOVE.L   -$00C0(A5),-(A7)    
00000462: 3F3C 0001       '?<..'          MOVE.W   #$0001,-(A7)        
00000466: A9A0            '..'            _GetResource                     ; A9A0
00000468: 285F            '(_'            MOVEA.L  (A7)+,A4            
0000046A: 200C            ' .'            MOVE.L   A4,D0               
0000046C: 660E            'f.'            BNE.S    *+$0010             ; 0000047C
0000046E: 2F2D FF38       '/-.8'          MOVE.L   -$00C8(A5),-(A7)    
00000472: 2F3C 0000 2BCE  '/<..+.'        MOVE.L   #$00002BCE,-(A7)    
00000478: A91A            '..'            _SetWTitle                     ; A91A
0000047A: 601A            '`.'            BRA.S    *+$001C             ; 00000496
0000047C: 486E FEF8       'Hn..'          PEA      -$0108(A6)          
00000480: 2F0C            '/.'            MOVE.L   A4,-(A7)            
00000482: 486E FDF8       'Hn..'          PEA      -$0208(A6)          
00000486: 4EBA 0352       'N..R'          JSR      *+$0354             ; 000007DA
0000048A: 2EAD FF38       '...8'          MOVE.L   -$00C8(A5),(A7)     
0000048E: 486E FDF8       'Hn..'          PEA      -$0208(A6)          
00000492: A91A            '..'            _SetWTitle                     ; A91A
00000494: 508F            'P.'            ADDQ.L   #$8,A7              
00000496: 4267            'Bg'            CLR.W    -(A7)               
00000498: 2F2D FF40       '/-.@'          MOVE.L   -$00C0(A5),-(A7)    
0000049C: A99C            '..'            _CountResources                     ; A99C
0000049E: 7EFE            '~.'            MOVEQ    #$FE,D7             
000004A0: DE5F            '._'            ADD.W    (A7)+,D7            
000004A2: 70FF            'p.'            MOVEQ    #$FF,D0             
000004A4: D047            '.G'            ADD.W    D7,D0               
000004A6: B06D FF3E       '.m.>'          CMP.W    -$00C2(A5),D0       
000004AA: 670A            'g.'            BEQ.S    *+$000C             ; 000004B6
000004AC: 0CAD 4869 6E74  '..Hint'        CMPI.L   #$48696E74,-$00C0(A5) ; 'Hint'
          FF40            '.@'    
000004B4: 660C            'f.'            BNE.S    *+$000E             ; 000004C2
000004B6: 2F2D FFF0       '/-..'          MOVE.L   -$0010(A5),-(A7)    
000004BA: 3F3C 00FF       '?<..'          MOVE.W   #$00FF,-(A7)        
000004BE: A95D            '.]'            _HiliteControl                     ; A95D
000004C0: 6008            '`.'            BRA.S    *+$000A             ; 000004CA
000004C2: 2F2D FFF0       '/-..'          MOVE.L   -$0010(A5),-(A7)    
000004C6: 4267            'Bg'            CLR.W    -(A7)               
000004C8: A95D            '.]'            _HiliteControl                     ; A95D
000004CA: 4A6D FF3E       'Jm.>'          TST.W    -$00C2(A5)          
000004CE: 670A            'g.'            BEQ.S    *+$000C             ; 000004DA
000004D0: 0CAD 4869 6E74  '..Hint'        CMPI.L   #$48696E74,-$00C0(A5) ; 'Hint'
          FF40            '.@'    
000004D8: 660C            'f.'            BNE.S    *+$000E             ; 000004E6
000004DA: 2F2D FFF4       '/-..'          MOVE.L   -$000C(A5),-(A7)    
000004DE: 3F3C 00FF       '?<..'          MOVE.W   #$00FF,-(A7)        
000004E2: A95D            '.]'            _HiliteControl                     ; A95D
000004E4: 6008            '`.'            BRA.S    *+$000A             ; 000004EE
000004E6: 2F2D FFF4       '/-..'          MOVE.L   -$000C(A5),-(A7)    
000004EA: 4267            'Bg'            CLR.W    -(A7)               
000004EC: A95D            '.]'            _HiliteControl                     ; A95D
000004EE: 4EBA 0248       'N..H'          JSR      *+$024A             ; 00000738
000004F2: 4CDF 1080       'L...'          MOVEM.L  (A7)+,D7/A4         
000004F6: 4E5E            'N^'            UNLK     A6                  
000004F8: 4E75            'Nu'            RTS                          
000004FA: 8848            '.H'            OR.W     A0,D4               
000004FC: 656C            'el'            BCS.S    *+$006E             ; 0000056A
000004FE: 7050            'pP'            MOVEQ    #$50,D0             ; 'P'
00000500: 6167            'ag'            BSR.S    *+$0069             ; 00000569
00000502: 6500 0000       'e...'          BCS      *+$0002             ; 00000504
00000506: 4E56 FFF4       'NV..'          LINK     A6,#$FFF4           
0000050A: 2F07            '/.'            MOVE.L   D7,-(A7)            
0000050C: 486E FFF4       'Hn..'          PEA      -$000C(A6)          
00000510: A874            '.t'            _GetPort                     ; A874
00000512: 2F2D FF38       '/-.8'          MOVE.L   -$00C8(A5),-(A7)    
00000516: A873            '.s'            _SetPort                     ; A873
00000518: 486E FFFC       'Hn..'          PEA      -$0004(A6)          
0000051C: A972            '.r'            _GetMouse                     ; A972
0000051E: 4267            'Bg'            CLR.W    -(A7)               
00000520: 2F2E FFFC       '/...'          MOVE.L   -$0004(A6),-(A7)    
00000524: 2F2D FF38       '/-.8'          MOVE.L   -$00C8(A5),-(A7)    
00000528: 486E FFF8       'Hn..'          PEA      -$0008(A6)          
0000052C: A96C            '.l'            _FindControl                     ; A96C
0000052E: 301F            '0.'            MOVE.W   (A7)+,D0            
00000530: 6760            'g`'            BEQ.S    *+$0062             ; 00000592
00000532: 6B5E            'k^'            BMI.S    *+$0060             ; 00000592
00000534: 0440 0081       '.@..'          SUBI.W   #$0081,D0           
00000538: 6720            'g '            BEQ.S    *+$0022             ; 0000055A
0000053A: 6A56            'jV'            BPL.S    *+$0058             ; 00000592
0000053C: 0440 FF97       '.@..'          SUBI.W   #$FF97,D0           
00000540: 6A50            'jP'            BPL.S    *+$0052             ; 00000592
00000542: 5840            'X@'            ADDQ.W   #$4,D0              
00000544: 6B4C            'kL'            BMI.S    *+$004E             ; 00000592
00000546: 4267            'Bg'            CLR.W    -(A7)               
00000548: 2F2E FFF8       '/...'          MOVE.L   -$0008(A6),-(A7)    
0000054C: 2F2E FFFC       '/...'          MOVE.L   -$0004(A6),-(A7)    
00000550: 486D 064A       'Hm.J'          PEA      $064A(A5)           
00000554: A968            '.h'            _TrackControl                     ; A968
00000556: 548F            'T.'            ADDQ.L   #$2,A7              
00000558: 6038            '`8'            BRA.S    *+$003A             ; 00000592
0000055A: 4267            'Bg'            CLR.W    -(A7)               
0000055C: 2F2E FFF8       '/...'          MOVE.L   -$0008(A6),-(A7)    
00000560: A960            '.`'            _GetCtlValue                     ; A960
00000562: 3E1F            '>.'            MOVE.W   (A7)+,D7            
00000564: 4267            'Bg'            CLR.W    -(A7)               
00000566: 2F2E FFF8       '/...'          MOVE.L   -$0008(A6),-(A7)    
0000056A: 2F2E FFFC       '/...'          MOVE.L   -$0004(A6),-(A7)    
0000056E: 42A7            'B.'            CLR.L    -(A7)               
00000570: A968            '.h'            _TrackControl                     ; A968
00000572: 4257            'BW'            CLR.W    (A7)                
00000574: 4267            'Bg'            CLR.W    -(A7)               
00000576: 2F2E FFF8       '/...'          MOVE.L   -$0008(A6),-(A7)    
0000057A: A960            '.`'            _GetCtlValue                     ; A960
0000057C: 206D FFF8       ' m..'          MOVEA.L  -$0008(A5),A0       
00000580: 2050            ' P'            MOVEA.L  (A0),A0             
00000582: 3007            '0.'            MOVE.W   D7,D0               
00000584: 905F            '._'            SUB.W    (A7)+,D0            
00000586: C1E8 0018       '....'          MULS.W   $0018(A0),D0        
0000058A: 3F00            '?.'            MOVE.W   D0,-(A7)            
0000058C: 2F2D FFF8       '/-..'          MOVE.L   -$0008(A5),-(A7)    
00000590: A9DD            '..'            _TEScroll                     ; A9DD
00000592: 2F2E FFF4       '/...'          MOVE.L   -$000C(A6),-(A7)    
00000596: A873            '.s'            _SetPort                     ; A873
00000598: 2E1F            '..'            MOVE.L   (A7)+,D7            
0000059A: 4E5E            'N^'            UNLK     A6                  
0000059C: 4E75            'Nu'            RTS                          
0000059E: 8748 7363       '.Hsc'          PACK     -(A0),-(A3),#$7363  
000005A2: 726F            'ro'            MOVEQ    #$6F,D1             ; 'o'
000005A4: 6C6C            'll'            BGE.S    *+$006E             ; 00000612
000005A6: 0000 4E56       '..NV'          ORI.B    #$4E56,D0           ; 'V'
000005AA: FFFC            '..'            DC.W     $FFFC               ; ????
000005AC: 48E7 0308       'H...'          MOVEM.L  D6/D7/A4,-(A7)      
000005B0: 2F2D FFF8       '/-..'          MOVE.L   -$0008(A5),-(A7)    
000005B4: 4EAD 01B2       'N...'          JSR      $01B2(A5)           
000005B8: 206D FFF8       ' m..'          MOVEA.L  -$0008(A5),A0       
000005BC: 2850            '(P'            MOVEA.L  (A0),A4             
000005BE: 3E2C 000C       '>,..'          MOVE.W   $000C(A4),D7        
000005C2: 9E6C 0008       '.l..'          SUB.W    $0008(A4),D7        
000005C6: 48C7            'H.'            EXT.L    D7                  
000005C8: 8FEC 0018       '....'          DIVS.W   $0018(A4),D7        
000005CC: 226E 000A       '"n..'          MOVEA.L  $000A(A6),A1        
000005D0: 206D FFFC       ' m..'          MOVEA.L  -$0004(A5),A0       
000005D4: 2011            ' .'            MOVE.L   (A1),D0             
000005D6: B090            '..'            CMP.L    (A0),D0             
000005D8: 588F            'X.'            ADDQ.L   #$4,A7              
000005DA: 6600 012E       'f...'          BNE      *+$0130             ; 0000070A
000005DE: 4267            'Bg'            CLR.W    -(A7)               
000005E0: 2F2D FFFC       '/-..'          MOVE.L   -$0004(A5),-(A7)    
000005E4: A960            '.`'            _GetCtlValue                     ; A960
000005E6: 3C1F            '<.'            MOVE.W   (A7)+,D6            
000005E8: 302E 0008       '0...'          MOVE.W   $0008(A6),D0        
000005EC: 6B00 011C       'k...'          BMI      *+$011E             ; 0000070A
000005F0: 0440 0016       '.@..'          SUBI.W   #$0016,D0           
000005F4: 6760            'g`'            BEQ.S    *+$0062             ; 00000656
000005F6: 6A0A            'j.'            BPL.S    *+$000C             ; 00000602
000005F8: 5440            'T@'            ADDQ.W   #$2,D0              
000005FA: 6710            'g.'            BEQ.S    *+$0012             ; 0000060C
000005FC: 6A2E            'j.'            BPL.S    *+$0030             ; 0000062C
000005FE: 6000 010A       '`...'          BRA      *+$010C             ; 0000070A
00000602: 5540            'U@'            SUBQ.W   #$2,D0              
00000604: 6A00 0104       'j...'          BPL      *+$0106             ; 0000070A
00000608: 6000 0098       '`...'          BRA      *+$009A             ; 000006A2
0000060C: 4A46            'JF'            TST.W    D6                  
0000060E: 6F00 00FA       'o...'          BLE      *+$00FC             ; 0000070A
00000612: 4267            'Bg'            CLR.W    -(A7)               
00000614: 3F2C 0018       '?,..'          MOVE.W   $0018(A4),-(A7)     
00000618: 2F2D FFF8       '/-..'          MOVE.L   -$0008(A5),-(A7)    
0000061C: A9DD            '..'            _TEScroll                     ; A9DD
0000061E: 5346            'SF'            SUBQ.W   #$1,D6              
00000620: 2F2D FFFC       '/-..'          MOVE.L   -$0004(A5),-(A7)    
00000624: 3F06            '?.'            MOVE.W   D6,-(A7)            
00000626: A963            '.c'            _SetCtlValue                     ; A963
00000628: 6000 00E0       '`...'          BRA      *+$00E2             ; 0000070A
0000062C: 302C 005E       '0,.^'          MOVE.W   $005E(A4),D0        
00000630: 9047            '.G'            SUB.W    D7,D0               
00000632: BC40            '.@'            CMP.W    D0,D6               
00000634: 6C00 00D4       'l...'          BGE      *+$00D6             ; 0000070A
00000638: 4267            'Bg'            CLR.W    -(A7)               
0000063A: 302C 0018       '0,..'          MOVE.W   $0018(A4),D0        
0000063E: 4440            'D@'            NEG.W    D0                  
00000640: 3F00            '?.'            MOVE.W   D0,-(A7)            
00000642: 2F2D FFF8       '/-..'          MOVE.L   -$0008(A5),-(A7)    
00000646: A9DD            '..'            _TEScroll                     ; A9DD
00000648: 5246            'RF'            ADDQ.W   #$1,D6              
0000064A: 2F2D FFFC       '/-..'          MOVE.L   -$0004(A5),-(A7)    
0000064E: 3F06            '?.'            MOVE.W   D6,-(A7)            
00000650: A963            '.c'            _SetCtlValue                     ; A963
00000652: 6000 00B6       '`...'          BRA      *+$00B8             ; 0000070A
00000656: 70FF            'p.'            MOVEQ    #$FF,D0             
00000658: D047            '.G'            ADD.W    D7,D0               
0000065A: B046            '.F'            CMP.W    D6,D0               
0000065C: 6E22            'n"'            BGT.S    *+$0024             ; 00000680
0000065E: 4267            'Bg'            CLR.W    -(A7)               
00000660: 70FF            'p.'            MOVEQ    #$FF,D0             
00000662: D047            '.G'            ADD.W    D7,D0               
00000664: C1EC 0018       '....'          MULS.W   $0018(A4),D0        
00000668: 3F00            '?.'            MOVE.W   D0,-(A7)            
0000066A: 2F2D FFF8       '/-..'          MOVE.L   -$0008(A5),-(A7)    
0000066E: A9DD            '..'            _TEScroll                     ; A9DD
00000670: 5246            'RF'            ADDQ.W   #$1,D6              
00000672: 9C47            '.G'            SUB.W    D7,D6               
00000674: 2F2D FFFC       '/-..'          MOVE.L   -$0004(A5),-(A7)    
00000678: 3F06            '?.'            MOVE.W   D6,-(A7)            
0000067A: A963            '.c'            _SetCtlValue                     ; A963
0000067C: 6000 008C       '`...'          BRA      *+$008E             ; 0000070A
00000680: 4A46            'JF'            TST.W    D6                  
00000682: 6F00 0086       'o...'          BLE      *+$0088             ; 0000070A
00000686: 4267            'Bg'            CLR.W    -(A7)               
00000688: 302C 0018       '0,..'          MOVE.W   $0018(A4),D0        
0000068C: C1C6            '..'            MULS.W   D6,D0               
0000068E: 3F00            '?.'            MOVE.W   D0,-(A7)            
00000690: 2F2D FFF8       '/-..'          MOVE.L   -$0008(A5),-(A7)    
00000694: A9DD            '..'            _TEScroll                     ; A9DD
00000696: 7C00            '|.'            MOVEQ    #$00,D6             
00000698: 2F2D FFFC       '/-..'          MOVE.L   -$0004(A5),-(A7)    
0000069C: 3F06            '?.'            MOVE.W   D6,-(A7)            
0000069E: A963            '.c'            _SetCtlValue                     ; A963
000006A0: 6068            '`h'            BRA.S    *+$006A             ; 0000070A
000006A2: 3007            '0.'            MOVE.W   D7,D0               
000006A4: D040            '.@'            ADD.W    D0,D0               
000006A6: 7201            'r.'            MOVEQ    #$01,D1             
000006A8: D26C 005E       '.l.^'          ADD.W    $005E(A4),D1        
000006AC: 9240            '.@'            SUB.W    D0,D1               
000006AE: B246            '.F'            CMP.W    D6,D1               
000006B0: 6F26            'o&'            BLE.S    *+$0028             ; 000006D8
000006B2: 4267            'Bg'            CLR.W    -(A7)               
000006B4: 302C 0018       '0,..'          MOVE.W   $0018(A4),D0        
000006B8: 4440            'D@'            NEG.W    D0                  
000006BA: 72FF            'r.'            MOVEQ    #$FF,D1             
000006BC: D247            '.G'            ADD.W    D7,D1               
000006BE: C1C1            '..'            MULS.W   D1,D0               
000006C0: 3F00            '?.'            MOVE.W   D0,-(A7)            
000006C2: 2F2D FFF8       '/-..'          MOVE.L   -$0008(A5),-(A7)    
000006C6: A9DD            '..'            _TEScroll                     ; A9DD
000006C8: 70FF            'p.'            MOVEQ    #$FF,D0             
000006CA: D047            '.G'            ADD.W    D7,D0               
000006CC: DC40            '.@'            ADD.W    D0,D6               
000006CE: 2F2D FFFC       '/-..'          MOVE.L   -$0004(A5),-(A7)    
000006D2: 3F06            '?.'            MOVE.W   D6,-(A7)            
000006D4: A963            '.c'            _SetCtlValue                     ; A963
000006D6: 6032            '`2'            BRA.S    *+$0034             ; 0000070A
000006D8: 302C 005E       '0,.^'          MOVE.W   $005E(A4),D0        
000006DC: 9047            '.G'            SUB.W    D7,D0               
000006DE: B046            '.F'            CMP.W    D6,D0               
000006E0: 6F28            'o('            BLE.S    *+$002A             ; 0000070A
000006E2: 4267            'Bg'            CLR.W    -(A7)               
000006E4: 302C 0018       '0,..'          MOVE.W   $0018(A4),D0        
000006E8: 4440            'D@'            NEG.W    D0                  
000006EA: 322C 005E       '2,.^'          MOVE.W   $005E(A4),D1        
000006EE: 9247            '.G'            SUB.W    D7,D1               
000006F0: 9246            '.F'            SUB.W    D6,D1               
000006F2: C1C1            '..'            MULS.W   D1,D0               
000006F4: 3F00            '?.'            MOVE.W   D0,-(A7)            
000006F6: 2F2D FFF8       '/-..'          MOVE.L   -$0008(A5),-(A7)    
000006FA: A9DD            '..'            _TEScroll                     ; A9DD
000006FC: 3C2C 005E       '<,.^'          MOVE.W   $005E(A4),D6        
00000700: 9C47            '.G'            SUB.W    D7,D6               
00000702: 2F2D FFFC       '/-..'          MOVE.L   -$0004(A5),-(A7)    
00000706: 3F06            '?.'            MOVE.W   D6,-(A7)            
00000708: A963            '.c'            _SetCtlValue                     ; A963
0000070A: 2F2D FFF8       '/-..'          MOVE.L   -$0008(A5),-(A7)    
0000070E: 4EAD 01BA       'N...'          JSR      $01BA(A5)           
00000712: 43EE FFFC       'C...'          LEA      -$0004(A6),A1       
00000716: 307C 0004       '0|..'          MOVEA.W  #$0004,A0           
0000071A: A03B            '.;'            _Delay                       ; A03B
0000071C: 2280            '".'            MOVE.L   D0,(A1)             
0000071E: 4CEE 10C0 FFF0  'L.....'        MOVEM.L  -$0010(A6),D6/D7/A4 
00000724: 4E5E            'N^'            UNLK     A6                  
00000726: 205F            ' _'            MOVEA.L  (A7)+,A0            
00000728: 5C8F            '\.'            ADDQ.L   #$6,A7              
0000072A: 4ED0            'N.'            JMP      (A0)                
0000072C: 8948 446F       '.HDo'          PACK     -(A0),-(A4),#$446F  
00000730: 5363            'Sc'            SUBQ.W   #$1,-(A3)           
00000732: 726F            'ro'            MOVEQ    #$6F,D1             ; 'o'
00000734: 6C6C            'll'            BGE.S    *+$006E             ; 000007A2
00000736: 0000 48E7       '..H.'          ORI.B    #$48E7,D0           
0000073A: 0320            '. '            BTST     D1,-(A0)            
0000073C: 4267            'Bg'            CLR.W    -(A7)               
0000073E: 2F2D FFFC       '/-..'          MOVE.L   -$0004(A5),-(A7)    
00000742: A960            '.`'            _GetCtlValue                     ; A960
00000744: 3E1F            '>.'            MOVE.W   (A7)+,D7            
00000746: 206D FFF8       ' m..'          MOVEA.L  -$0008(A5),A0       
0000074A: 2050            ' P'            MOVEA.L  (A0),A0             
0000074C: 226D FFF8       '"m..'          MOVEA.L  -$0008(A5),A1       
00000750: 2251            '"Q'            MOVEA.L  (A1),A1             
00000752: 246D FFF8       '$m..'          MOVEA.L  -$0008(A5),A2       
00000756: 2452            '$R'            MOVEA.L  (A2),A2             
00000758: 302A 000C       '0*..'          MOVE.W   $000C(A2),D0        
0000075C: 9069 0008       '.i..'          SUB.W    $0008(A1),D0        
00000760: 48C0            'H.'            EXT.L    D0                  
00000762: 81E8 0018       '....'          DIVS.W   $0018(A0),D0        
00000766: 206D FFF8       ' m..'          MOVEA.L  -$0008(A5),A0       
0000076A: 2050            ' P'            MOVEA.L  (A0),A0             
0000076C: B068 005E       '.h.^'          CMP.W    $005E(A0),D0        
00000770: 6D04            'm.'            BLT.S    *+$0006             ; 00000776
00000772: 7C00            '|.'            MOVEQ    #$00,D6             
00000774: 602C            '`,'            BRA.S    *+$002E             ; 000007A2
00000776: 206D FFF8       ' m..'          MOVEA.L  -$0008(A5),A0       
0000077A: 2050            ' P'            MOVEA.L  (A0),A0             
0000077C: 226D FFF8       '"m..'          MOVEA.L  -$0008(A5),A1       
00000780: 2251            '"Q'            MOVEA.L  (A1),A1             
00000782: 246D FFF8       '$m..'          MOVEA.L  -$0008(A5),A2       
00000786: 2452            '$R'            MOVEA.L  (A2),A2             
00000788: 302A 000C       '0*..'          MOVE.W   $000C(A2),D0        
0000078C: 9069 0008       '.i..'          SUB.W    $0008(A1),D0        
00000790: 48C0            'H.'            EXT.L    D0                  
00000792: 81E8 0018       '....'          DIVS.W   $0018(A0),D0        
00000796: 206D FFF8       ' m..'          MOVEA.L  -$0008(A5),A0       
0000079A: 2050            ' P'            MOVEA.L  (A0),A0             
0000079C: 3C28 005E       '<(.^'          MOVE.W   $005E(A0),D6        
000007A0: 9C40            '.@'            SUB.W    D0,D6               
000007A2: 2F2D FFFC       '/-..'          MOVE.L   -$0004(A5),-(A7)    
000007A6: BE46            '.F'            CMP.W    D6,D7               
000007A8: 6E04            'n.'            BGT.S    *+$0006             ; 000007AE
000007AA: 3006            '0.'            MOVE.W   D6,D0               
000007AC: 6002            '`.'            BRA.S    *+$0004             ; 000007B0
000007AE: 3007            '0.'            MOVE.W   D7,D0               
000007B0: 3F00            '?.'            MOVE.W   D0,-(A7)            
000007B2: A965            '.e'            _SetMaxCtl                     ; A965
000007B4: 4CDF 04C0       'L...'          MOVEM.L  (A7)+,D6/D7/A2      
000007B8: 4E75            'Nu'            RTS                          
000007BA: 4E56 0000       'NV..'          LINK     A6,#$0000           
000007BE: 2F2D FFFC       '/-..'          MOVE.L   -$0004(A5),-(A7)    
000007C2: A957            '.W'            _ShowControl                     ; A957
000007C4: 4E5E            'N^'            UNLK     A6                  
000007C6: 205F            ' _'            MOVEA.L  (A7)+,A0            
000007C8: 5C8F            '\.'            ADDQ.L   #$6,A7              
000007CA: 4ED0            'N.'            JMP      (A0)                
000007CC: 8B68 5368       '.hSh'          OR.W     D5,$5368(A0)        
000007D0: 6F77            'ow'            BLE.S    *+$0079             ; 00000849
000007D2: 5363            'Sc'            SUBQ.W   #$1,-(A3)           
000007D4: 726F            'ro'            MOVEQ    #$6F,D1             ; 'o'
000007D6: 6C6C            'll'            BGE.S    *+$006E             ; 00000844
000007D8: 0000 4E56       '..NV'          ORI.B    #$4E56,D0           ; 'V'
000007DC: 0000 48E7       '..H.'          ORI.B    #$48E7,D0           
000007E0: 0F18            '..'            BTST     D7,(A0)+            
000007E2: 286E 0008       '(n..'          MOVEA.L  $0008(A6),A4        
000007E6: 206E 000C       ' n..'          MOVEA.L  $000C(A6),A0        
000007EA: 2650            '&P'            MOVEA.L  (A0),A3             
000007EC: 42A7            'B.'            CLR.L    -(A7)               
000007EE: 2F08            '/.'            MOVE.L   A0,-(A7)            
000007F0: A9A5            '..'            _SizeRsrc                     ; A9A5
000007F2: 281F            '(.'            MOVE.L   (A7)+,D4            
000007F4: 7E00            '~.'            MOVEQ    #$00,D7             
000007F6: 7C01            '|.'            MOVEQ    #$01,D6             
000007F8: 6040            '`@'            BRA.S    *+$0042             ; 0000083A
000007FA: 0C33 005E 7000  '.3.^p.'        CMPI.B   #$5E,$00(A3,D7.W)   ; '^'
00000800: 662C            'f,'            BNE.S    *+$002E             ; 0000082E
00000802: 0C33 0030 7001  '.3.0p.'        CMPI.B   #$30,$01(A3,D7.W)   ; '0'
00000808: 6624            'f$'            BNE.S    *+$0026             ; 0000082E
0000080A: 7A01            'z.'            MOVEQ    #$01,D5             
0000080C: 6010            '`.'            BRA.S    *+$0012             ; 0000081E
0000080E: 206E 0010       ' n..'          MOVEA.L  $0010(A6),A0        
00000812: 3006            '0.'            MOVE.W   D6,D0               
00000814: 5246            'RF'            ADDQ.W   #$1,D6              
00000816: 19B0 5000 0000  '..P...'        MOVE.B   $00(A0,D5.W),$00(A4,D0.W) 
0000081C: 5245            'RE'            ADDQ.W   #$1,D5              
0000081E: 206E 0010       ' n..'          MOVEA.L  $0010(A6),A0        
00000822: 7000            'p.'            MOVEQ    #$00,D0             
00000824: 1010            '..'            MOVE.B   (A0),D0             
00000826: B045            '.E'            CMP.W    D5,D0               
00000828: 6CE4            'l.'            BGE.S    *-$001A             ; 0000080E
0000082A: 5247            'RG'            ADDQ.W   #$1,D7              
0000082C: 600A            '`.'            BRA.S    *+$000C             ; 00000838
0000082E: 3006            '0.'            MOVE.W   D6,D0               
00000830: 5246            'RF'            ADDQ.W   #$1,D6              
00000832: 19B3 7000 0000  '..p...'        MOVE.B   $00(A3,D7.W),$00(A4,D0.W) 
00000838: 5247            'RG'            ADDQ.W   #$1,D7              
0000083A: B847            '.G'            CMP.W    D7,D4               
0000083C: 6EBC            'n.'            BGT.S    *-$0042             ; 000007FA
0000083E: 70FF            'p.'            MOVEQ    #$FF,D0             
00000840: D006            '..'            ADD.B    D6,D0               
00000842: 1880            '..'            MOVE.B   D0,(A4)             
00000844: 4CDF 18F0       'L...'          MOVEM.L  (A7)+,D4-D7/A3/A4   
00000848: 4E5E            'N^'            UNLK     A6                  
0000084A: 4E75            'Nu'            RTS                          
0000084C: 894D 616B       '.Mak'          PACK     -(A5),-(A4),#$616B  
00000850: 6554            'eT'            BCS.S    *+$0056             ; 000008A6
00000852: 6974            'it'            BVS.S    *+$0076             ; 000008C8
00000854: 6C65            'le'            BGE.S    *+$0067             ; 000008BB
00000856: 0000 4E56       '..NV'          ORI.B    #$4E56,D0           ; 'V'
0000085A: FFFA            '..'            DC.W     $FFFA               ; ????
0000085C: 2F0C            '/.'            MOVE.L   A4,-(A7)            
0000085E: 42A7            'B.'            CLR.L    -(A7)               
00000860: 2F3C 444C 4F47  '/<DLOG'        MOVE.L   #$444C4F47,-(A7)    ; 'DLOG'
00000866: 2F2E 0008       '/...'          MOVE.L   $0008(A6),-(A7)     
0000086A: A9A1            '..'            _GetNamedResource                     ; A9A1
0000086C: 285F            '(_'            MOVEA.L  (A7)+,A4            
0000086E: 200C            ' .'            MOVE.L   A4,D0               
00000870: 6604            'f.'            BNE.S    *+$0006             ; 00000876
00000872: 7000            'p.'            MOVEQ    #$00,D0             
00000874: 6014            '`.'            BRA.S    *+$0016             ; 0000088A
00000876: 2F0C            '/.'            MOVE.L   A4,-(A7)            
00000878: 486E FFFE       'Hn..'          PEA      -$0002(A6)          
0000087C: 486E FFFA       'Hn..'          PEA      -$0006(A6)          
00000880: 2F2E 0008       '/...'          MOVE.L   $0008(A6),-(A7)     
00000884: A9A8            '..'            _GetResInfo                     ; A9A8
00000886: 302E FFFE       '0...'          MOVE.W   -$0002(A6),D0       
0000088A: 285F            '(_'            MOVEA.L  (A7)+,A4            
0000088C: 4E5E            'N^'            UNLK     A6                  
0000088E: 4E75            'Nu'            RTS                          
00000890: 8844            '.D'            OR.W     D4,D4               
00000892: 6961            'ia'            BVS.S    *+$0063             ; 000008F5
00000894: 6C6F            'lo'            BGE.S    *+$0071             ; 00000905
00000896: 6749            'gI'            BEQ.S    *+$004B             ; 000008E1
00000898: 4400            'D.'            NEG.B    D0                  
0000089A: 0000 4E56       '..NV'          ORI.B    #$4E56,D0           ; 'V'
0000089E: FFFC            '..'            DC.W     $FFFC               ; ????
000008A0: 2F3C 0000 2BD4  '/<..+.'        MOVE.L   #$00002BD4,-(A7)    
000008A6: 2F3C 0000 2BD6  '/<..+.'        MOVE.L   #$00002BD6,-(A7)    
000008AC: 2F3C 0000 2BD8  '/<..+.'        MOVE.L   #$00002BD8,-(A7)    
000008B2: 2F3C 0000 2BDA  '/<..+.'        MOVE.L   #$00002BDA,-(A7)    
000008B8: 4EAD 0522       'N.."'          JSR      $0522(A5)           
000008BC: 4A40            'J@'            TST.W    D0                  
000008BE: 4FEF 0010       'O...'          LEA      $0010(A7),A7        
000008C2: 6606            'f.'            BNE.S    *+$0008             ; 000008CA
000008C4: 7000            'p.'            MOVEQ    #$00,D0             
000008C6: 6000 00C0       '`...'          BRA      *+$00C2             ; 00000988
000008CA: 206D 9B70       ' m.p'          MOVEA.L  -$6490(A5),A0       
000008CE: 2F10            '/.'            MOVE.L   (A0),-(A7)          
000008D0: A851            '.Q'            _SetCursor                     ; A851
000008D2: 43EE FFFC       'C...'          LEA      -$0004(A6),A1       
000008D6: 307C 0078       '0|.x'          MOVEA.W  #$0078,A0           
000008DA: A03B            '.;'            _Delay                       ; A03B
000008DC: 2280            '".'            MOVE.L   D0,(A1)             
000008DE: A850            '.P'            _InitCursor                     ; A850
000008E0: 2F3C 0000 2BF6  '/<..+.'        MOVE.L   #$00002BF6,-(A7)    
000008E6: 2F3C 0000 2BF8  '/<..+.'        MOVE.L   #$00002BF8,-(A7)    
000008EC: 2F3C 0000 2BFA  '/<..+.'        MOVE.L   #$00002BFA,-(A7)    
000008F2: 2F3C 0000 2C10  '/<..,.'        MOVE.L   #$00002C10,-(A7)    
000008F8: 4EAD 0522       'N.."'          JSR      $0522(A5)           
000008FC: 4A40            'J@'            TST.W    D0                  
000008FE: 4FEF 0010       'O...'          LEA      $0010(A7),A7        
00000902: 6606            'f.'            BNE.S    *+$0008             ; 0000090A
00000904: 7000            'p.'            MOVEQ    #$00,D0             
00000906: 6000 0080       '`...'          BRA      *+$0082             ; 00000988
0000090A: 206D 9B70       ' m.p'          MOVEA.L  -$6490(A5),A0       
0000090E: 2F10            '/.'            MOVE.L   (A0),-(A7)          
00000910: A851            '.Q'            _SetCursor                     ; A851
00000912: 43EE FFFC       'C...'          LEA      -$0004(A6),A1       
00000916: 307C 012C       '0|.,'          MOVEA.W  #$012C,A0           
0000091A: A03B            '.;'            _Delay                       ; A03B
0000091C: 2280            '".'            MOVE.L   D0,(A1)             
0000091E: A850            '.P'            _InitCursor                     ; A850
00000920: 2F3C 0000 2C42  '/<..,B'        MOVE.L   #$00002C42,-(A7)    
00000926: 2F3C 0000 2C44  '/<..,D'        MOVE.L   #$00002C44,-(A7)    
0000092C: 2F3C 0000 2C46  '/<..,F'        MOVE.L   #$00002C46,-(A7)    
00000932: 2F3C 0000 2C48  '/<..,H'        MOVE.L   #$00002C48,-(A7)    
00000938: 4EAD 0522       'N.."'          JSR      $0522(A5)           
0000093C: 4A40            'J@'            TST.W    D0                  
0000093E: 4FEF 0010       'O...'          LEA      $0010(A7),A7        
00000942: 6704            'g.'            BEQ.S    *+$0006             ; 00000948
00000944: 7000            'p.'            MOVEQ    #$00,D0             
00000946: 6040            '`@'            BRA.S    *+$0042             ; 00000988
00000948: 206D 9B70       ' m.p'          MOVEA.L  -$6490(A5),A0       
0000094C: 2F10            '/.'            MOVE.L   (A0),-(A7)          
0000094E: A851            '.Q'            _SetCursor                     ; A851
00000950: 43EE FFFC       'C...'          LEA      -$0004(A6),A1       
00000954: 307C 003C       '0|.<'          MOVEA.W  #$003C,A0           
00000958: A03B            '.;'            _Delay                       ; A03B
0000095A: 2280            '".'            MOVE.L   D0,(A1)             
0000095C: A850            '.P'            _InitCursor                     ; A850
0000095E: 2F3C 0000 2C7E  '/<..,~'        MOVE.L   #$00002C7E,-(A7)    
00000964: 2F3C 0000 2C80  '/<..,.'        MOVE.L   #$00002C80,-(A7)    
0000096A: 2F3C 0000 2C82  '/<..,.'        MOVE.L   #$00002C82,-(A7)    
00000970: 2F3C 0000 2C84  '/<..,.'        MOVE.L   #$00002C84,-(A7)    
00000976: 4EAD 0522       'N.."'          JSR      $0522(A5)           
0000097A: 4A40            'J@'            TST.W    D0                  
0000097C: 4FEF 0010       'O...'          LEA      $0010(A7),A7        
00000980: 6604            'f.'            BNE.S    *+$0006             ; 00000986
00000982: 7000            'p.'            MOVEQ    #$00,D0             
00000984: 6002            '`.'            BRA.S    *+$0004             ; 00000988
00000986: 7001            'p.'            MOVEQ    #$01,D0             
00000988: 4E5E            'N^'            UNLK     A6                  
0000098A: 4E75            'Nu'            RTS                          
0000098C: 8768 696E       '.hin'          OR.W     D3,$696E(A0)        
00000990: 7473            'ts'            MOVEQ    #$73,D2             ; 's'
00000992: 4F4B            'OK'            DC.W     $4F4B               ; ????
00000994: 0000            '..'            DC.W     $0000            
     

File: Scarab, Resource 28, Type: CODE
First jump table entry offset = $85E0, Jump table entries used = 4
Segment size = $1DA [474]
00000000: 4E56 FFFE       'NV..'          LINK     A6,#$FFFE           
00000004: 2F07            '/.'            MOVE.L   D7,-(A7)            
00000006: 2F3C 0000 2A22  '/<..*"'        MOVE.L   #$00002A22,-(A7)    
0000000C: 4EAD 00F2       'N...'          JSR      $00F2(A5)           
00000010: 3E80            '>.'            MOVE.W   D0,(A7)             
00000012: 2F2D 9672       '/-.r'          MOVE.L   -$698E(A5),-(A7)    
00000016: 4EAD 00D2       'N...'          JSR      $00D2(A5)           
0000001A: 4A80            'J.'            TST.L    D0                  
0000001C: 508F            'P.'            ADDQ.L   #$8,A7              
0000001E: 6632            'f2'            BNE.S    *+$0034             ; 00000052
00000020: 426D 9686       'Bm..'          CLR.W    -$697A(A5)          
00000024: 4267            'Bg'            CLR.W    -(A7)               
00000026: 4EAD 0462       'N..b'          JSR      $0462(A5)           
0000002A: 2F3C 0000 2A2A  '/<..**'        MOVE.L   #$00002A2A,-(A7)    
00000030: 2F3C 0000 2A2C  '/<..*,'        MOVE.L   #$00002A2C,-(A7)    
00000036: 2F3C 0000 2A2E  '/<..*.'        MOVE.L   #$00002A2E,-(A7)    
0000003C: 2F3C 0000 2A42  '/<..*B'        MOVE.L   #$00002A42,-(A7)    
00000042: 4EAD 051A       'N...'          JSR      $051A(A5)           
00000046: 4257            'BW'            CLR.W    (A7)                
00000048: 4EAD 0492       'N...'          JSR      $0492(A5)           
0000004C: 4FEF 0012       'O...'          LEA      $0012(A7),A7        
00000050: 6046            '`F'            BRA.S    *+$0048             ; 00000098
00000052: 3E2D 9686       '>-..'          MOVE.W   -$697A(A5),D7       
00000056: 046D 001E 9686  '.m....'        SUBI.W   #$001E,-$697A(A5)   
0000005C: 4A6D 9686       'Jm..'          TST.W    -$697A(A5)          
00000060: 6C04            'l.'            BGE.S    *+$0006             ; 00000066
00000062: 426D 9686       'Bm..'          CLR.W    -$697A(A5)          
00000066: 4267            'Bg'            CLR.W    -(A7)               
00000068: 4EAD 0462       'N..b'          JSR      $0462(A5)           
0000006C: 2F3C 0000 2A6C  '/<..*l'        MOVE.L   #$00002A6C,-(A7)    
00000072: 2F3C 0000 2A6E  '/<..*n'        MOVE.L   #$00002A6E,-(A7)    
00000078: 2F3C 0000 2A70  '/<..*p'        MOVE.L   #$00002A70,-(A7)    
0000007E: 2F3C 0000 2A84  '/<..*.'        MOVE.L   #$00002A84,-(A7)    
00000084: 4EAD 051A       'N...'          JSR      $051A(A5)           
00000088: 3B47 9686       ';G..'          MOVE.W   D7,-$697A(A5)       
0000008C: 3EBC FFE2       '>...'          MOVE.W   #$FFE2,(A7)         
00000090: 4EAD 0492       'N...'          JSR      $0492(A5)           
00000094: 4FEF 0012       'O...'          LEA      $0012(A7),A7        
00000098: 2E1F            '..'            MOVE.L   (A7)+,D7            
0000009A: 4E5E            'N^'            UNLK     A6                  
0000009C: 4E75            'Nu'            RTS                          
0000009E: 856D 756D       '.mum'          OR.W     D2,$756D(A5)        
000000A2: 6D79            'my'            BLT.S    *+$007B             ; 0000011D
000000A4: 0000 48E7       '..H.'          ORI.B    #$48E7,D0           
000000A8: 0108 302D       '..0-'          MOVEP.W  $302D(A0),D0        
000000AC: 968C            '..'            SUB.L    A4,D3               
000000AE: C1ED 968E       '....'          MULS.W   -$6972(A5),D0       
000000B2: 3F00            '?.'            MOVE.W   D0,-(A7)            
000000B4: 4EAD 050A       'N...'          JSR      $050A(A5)           
000000B8: 3E00            '>.'            MOVE.W   D0,D7               
000000BA: 548F            'T.'            ADDQ.L   #$2,A7              
000000BC: 2007            ' .'            MOVE.L   D7,D0               
000000BE: 48C0            'H.'            EXT.L    D0                  
000000C0: E988            '..'            LSL.L    #$4,D0              
000000C2: 204D            ' M'            MOVEA.L  A5,A0               
000000C4: D1C0            '..'            ADDA.L   D0,A0               
000000C6: 303C 7530       '0<u0'          MOVE.W   #$7530,D0           ; 'u0'
000000CA: 9068 C73E       '.h.>'          SUB.W    -$38C2(A0),D0       
000000CE: 322D 968C       '2-..'          MOVE.W   -$6974(A5),D1       
000000D2: 48C1            'H.'            EXT.L    D1                  
000000D4: 83FC 0002       '....'          DIVS.W   #$0002,D1           
000000D8: 342D 968E       '4-..'          MOVE.W   -$6972(A5),D2       
000000DC: 48C2            'H.'            EXT.L    D2                  
000000DE: 85FC 0002       '....'          DIVS.W   #$0002,D2           
000000E2: D242            '.B'            ADD.W    D2,D1               
000000E4: B240            '.@'            CMP.W    D0,D1               
000000E6: 6CC2            'l.'            BGE.S    *-$003C             ; 000000AA
000000E8: 2F3C 0001 0001  '/<....'        MOVE.L   #$00010001,-(A7)    
000000EE: 2F3C 0000 2AB4  '/<..*.'        MOVE.L   #$00002AB4,-(A7)    
000000F4: 4EAD 00F2       'N...'          JSR      $00F2(A5)           
000000F8: 548F            'T.'            ADDQ.L   #$2,A7              
000000FA: 3E80            '>.'            MOVE.W   D0,(A7)             
000000FC: 4EAD 054A       'N..J'          JSR      $054A(A5)           
00000100: 2840            '(@'            MOVEA.L  D0,A4               
00000102: 200C            ' .'            MOVE.L   A4,D0               
00000104: 5C8F            '\.'            ADDQ.L   #$6,A7              
00000106: 670A            'g.'            BEQ.S    *+$000C             ; 00000112
00000108: 3F07            '?.'            MOVE.W   D7,-(A7)            
0000010A: 2F0C            '/.'            MOVE.L   A4,-(A7)            
0000010C: 4EAD 053A       'N..:'          JSR      $053A(A5)           
00000110: 5C8F            '\.'            ADDQ.L   #$6,A7              
00000112: 4CDF 1080       'L...'          MOVEM.L  (A7)+,D7/A4         
00000116: 4E75            'Nu'            RTS                          
00000118: 4E56 0000       'NV..'          LINK     A6,#$0000           
0000011C: 2F0C            '/.'            MOVE.L   A4,-(A7)            
0000011E: 286E 000C       '(n..'          MOVEA.L  $000C(A6),A4        
00000122: 200C            ' .'            MOVE.L   A4,D0               
00000124: 676C            'gl'            BEQ.S    *+$006E             ; 00000192
00000126: 4A2C 0009       'J,..'          TST.B    $0009(A4)           
0000012A: 6A66            'jf'            BPL.S    *+$0068             ; 00000192
0000012C: 2F3C 0000 2ABA  '/<..*.'        MOVE.L   #$00002ABA,-(A7)    
00000132: 4EAD 040A       'N...'          JSR      $040A(A5)           
00000136: 2E8C            '..'            MOVE.L   A4,(A7)             
00000138: 4EAD 0212       'N...'          JSR      $0212(A5)           
0000013C: 2E8C            '..'            MOVE.L   A4,(A7)             
0000013E: 302E 0010       '0...'          MOVE.W   $0010(A6),D0        
00000142: 48C0            'H.'            EXT.L    D0                  
00000144: E988            '..'            LSL.L    #$4,D0              
00000146: 204D            ' M'            MOVEA.L  A5,A0               
00000148: D1C0            '..'            ADDA.L   D0,A0               
0000014A: 4868 C740       'Hh.@'          PEA      -$38C0(A0)          
0000014E: 4EAD 00E2       'N...'          JSR      $00E2(A5)           
00000152: 2E8C            '..'            MOVE.L   A4,(A7)             
00000154: 4EAD 0542       'N..B'          JSR      $0542(A5)           
00000158: 206E 0008       ' n..'          MOVEA.L  $0008(A6),A0        
0000015C: 2E90            '..'            MOVE.L   (A0),(A7)           
0000015E: 302E 0010       '0...'          MOVE.W   $0010(A6),D0        
00000162: 48C0            'H.'            EXT.L    D0                  
00000164: E988            '..'            LSL.L    #$4,D0              
00000166: 224D            '"M'            MOVEA.L  A5,A1               
00000168: D3C0            '..'            ADDA.L   D0,A1               
0000016A: 4869 C740       'Hi.@'          PEA      -$38C0(A1)          
0000016E: 4EAD 00DA       'N...'          JSR      $00DA(A5)           
00000172: 206E 0008       ' n..'          MOVEA.L  $0008(A6),A0        
00000176: 4290            'B.'            CLR.L    (A0)                
00000178: 06AD 0000 01F4  '......'        ADDI.L   #$000001F4,-$698A(A5) 
          9676            '.v'    
00000180: 4257            'BW'            CLR.W    (A7)                
00000182: 4EAD 0462       'N..b'          JSR      $0462(A5)           
00000186: 3EAD 9B4A       '>..J'          MOVE.W   -$64B6(A5),(A7)     
0000018A: 3F2D 9B48       '?-.H'          MOVE.W   -$64B8(A5),-(A7)    
0000018E: 4EAD 0132       'N..2'          JSR      $0132(A5)           
00000192: 286E FFFC       '(n..'          MOVEA.L  -$0004(A6),A4       
00000196: 4E5E            'N^'            UNLK     A6                  
00000198: 4E75            'Nu'            RTS                          
0000019A: 8B74 6872       '.thr'          OR.W     D5,$72(A4,D6.L)     
0000019E: 6F77            'ow'            BLE.S    *+$0079             ; 00000217
000001A0: 5363            'Sc'            SUBQ.W   #$1,-(A3)           
000001A2: 6172            'ar'            BSR.S    *+$0074             ; 00000216
000001A4: 6162            'ab'            BSR.S    *+$0064             ; 00000208
000001A6: 0000 4E56       '..NV'          ORI.B    #$4E56,D0           ; 'V'
000001AA: 0000 206E       '.. n'          ORI.B    #$206E,D0           ; 'n'
000001AE: 0008 4A28       '..J('          ORI.B    #$4A28,A0           ; '('
000001B2: 0006 660E       '..f.'          ORI.B    #$660E,D6           
000001B6: 4EBA FEEE       'N...'          JSR      *-$0110             ; 000000A6
000001BA: 206E 0008       ' n..'          MOVEA.L  $0008(A6),A0        
000001BE: 117C 0001 0006  '.|....'        MOVE.B   #$01,$0006(A0)      
000001C4: 4E5E            'N^'            UNLK     A6                  
000001C6: 4E75            'Nu'            RTS                          
000001C8: 8A4D            '.M'            OR.W     A5,D5               
000001CA: 756D            'um'            DC.W     $756D               ; ????
000001CC: 6D79            'my'            BLT.S    *+$007B             ; 00000247
000001CE: 4D61            'Ma'            DC.W     $4D61               ; ????
000001D0: 6B65            'ke'            BMI.S    *+$0067             ; 00000237
000001D2: 7200            'r.'            MOVEQ    #$00,D1             
000001D4: 0000            '..'            DC.W     $0000            

File: Scarab, Resource 27, Type: CODE
First jump table entry offset = $85B0, Jump table entries used = 6
Segment size = $1316 [4886]
00000000: 4E56 FF2E       'NV..'          LINK     A6,#$FF2E           
00000004: 2F0C            '/.'            MOVE.L   A4,-(A7)            
00000006: 1B6E 0009 FAAA  '.n....'        MOVE.B   $0009(A6),-$0556(A5) 
0000000C: 1B6E 000B FAAB  '.n....'        MOVE.B   $000B(A6),-$0555(A5) 
00000012: 4A6D 9688       'Jm..'          TST.W    -$6978(A5)          
00000016: 670A            'g.'            BEQ.S    *+$000C             ; 00000022
00000018: 4A6D 9686       'Jm..'          TST.W    -$697A(A5)          
0000001C: 6704            'g.'            BEQ.S    *+$0006             ; 00000022
0000001E: 7000            'p.'            MOVEQ    #$00,D0             
00000020: 6002            '`.'            BRA.S    *+$0004             ; 00000024
00000022: 7001            'p.'            MOVEQ    #$01,D0             
00000024: 1B40 FAAC       '.@..'          MOVE.B   D0,-$0554(A5)       
00000028: 42A7            'B.'            CLR.L    -(A7)               
0000002A: 3F3C 0FA7       '?<..'          MOVE.W   #$0FA7,-(A7)        
0000002E: 486E FF56       'Hn.V'          PEA      -$00AA(A6)          
00000032: 4878 FFFF       'Hx..'          PEA      $FFFF               
00000036: A97C            '.|'            _GetNewDialog                     ; A97C
00000038: 285F            '(_'            MOVEA.L  (A7)+,A4            
0000003A: 486E FF2E       'Hn..'          PEA      -$00D2(A6)          
0000003E: A874            '.t'            _GetPort                     ; A874
00000040: 2F0C            '/.'            MOVE.L   A4,-(A7)            
00000042: A873            '.s'            _SetPort                     ; A873
00000044: 2F0C            '/.'            MOVE.L   A4,-(A7)            
00000046: 3F3C 0004       '?<..'          MOVE.W   #$0004,-(A7)        
0000004A: 486E FF32       'Hn.2'          PEA      -$00CE(A6)          
0000004E: 486E FF52       'Hn.R'          PEA      -$00AE(A6)          
00000052: 486E FF4A       'Hn.J'          PEA      -$00B6(A6)          
00000056: A98D            '..'            _GetDItem                     ; A98D
00000058: 2D6E FF4A FF3A  '-n.J.:'        MOVE.L   -$00B6(A6),-$00C6(A6) 
0000005E: 2D6E FF4E FF3E  '-n.N.>'        MOVE.L   -$00B2(A6),-$00C2(A6) 
00000064: 2D6E FF4A FF42  '-n.J.B'        MOVE.L   -$00B6(A6),-$00BE(A6) 
0000006A: 2D6E FF4E FF46  '-n.N.F'        MOVE.L   -$00B2(A6),-$00BA(A6) 
00000070: 486E FF42       'Hn.B'          PEA      -$00BE(A6)          
00000074: 4878 0004       'Hx..'          PEA      $0004               
00000078: A8A9            '..'            _InsetRect                     ; A8A9
0000007A: 42A7            'B.'            CLR.L    -(A7)               
0000007C: 486E FF42       'Hn.B'          PEA      -$00BE(A6)          
00000080: 486E FF3A       'Hn.:'          PEA      -$00C6(A6)          
00000084: A9D2            '..'            _TENew                       ; A9D2
00000086: 2B5F FAAE       '+_..'          MOVE.L   (A7)+,-$0552(A5)    
0000008A: 3F3C 0001       '?<..'          MOVE.W   #$0001,-(A7)        
0000008E: 2F2D FAAE       '/-..'          MOVE.L   -$0552(A5),-(A7)    
00000092: A9DF            '..'            _TESetJust                     ; A9DF
00000094: 2F0C            '/.'            MOVE.L   A4,-(A7)            
00000096: 3F3C 0004       '?<..'          MOVE.W   #$0004,-(A7)        
0000009A: 3F2E FF32       '?..2'          MOVE.W   -$00CE(A6),-(A7)    
0000009E: 486D 05F2       'Hm..'          PEA      $05F2(A5)           
000000A2: 486E FF4A       'Hn.J'          PEA      -$00B6(A6)          
000000A6: A98E            '..'            _SetDItem                     ; A98E
000000A8: 4A2D FAAA       'J-..'          TST.B    -$0556(A5)          
000000AC: 662A            'f*'            BNE.S    *+$002C             ; 000000D8
000000AE: 4A2D FAAB       'J-..'          TST.B    -$0555(A5)          
000000B2: 6624            'f$'            BNE.S    *+$0026             ; 000000D8
000000B4: 4A2D FAAC       'J-..'          TST.B    -$0554(A5)          
000000B8: 661E            'f.'            BNE.S    *+$0020             ; 000000D8
000000BA: 2F0C            '/.'            MOVE.L   A4,-(A7)            
000000BC: 3F3C 0003       '?<..'          MOVE.W   #$0003,-(A7)        
000000C0: 486E FF32       'Hn.2'          PEA      -$00CE(A6)          
000000C4: 486E FF52       'Hn.R'          PEA      -$00AE(A6)          
000000C8: 486E FF4A       'Hn.J'          PEA      -$00B6(A6)          
000000CC: A98D            '..'            _GetDItem                     ; A98D
000000CE: 2F2E FF52       '/..R'          MOVE.L   -$00AE(A6),-(A7)    
000000D2: 3F3C 00FF       '?<..'          MOVE.W   #$00FF,-(A7)        
000000D6: A95D            '.]'            _HiliteControl                     ; A95D
000000D8: 4A2D FAAB       'J-..'          TST.B    -$0555(A5)          
000000DC: 6606            'f.'            BNE.S    *+$0008             ; 000000E4
000000DE: 4A2D FAAC       'J-..'          TST.B    -$0554(A5)          
000000E2: 671E            'g.'            BEQ.S    *+$0020             ; 00000102
000000E4: 2F0C            '/.'            MOVE.L   A4,-(A7)            
000000E6: 3F3C 0001       '?<..'          MOVE.W   #$0001,-(A7)        
000000EA: 486E FF32       'Hn.2'          PEA      -$00CE(A6)          
000000EE: 486E FF52       'Hn.R'          PEA      -$00AE(A6)          
000000F2: 486E FF4A       'Hn.J'          PEA      -$00B6(A6)          
000000F6: A98D            '..'            _GetDItem                     ; A98D
000000F8: 2F2E FF52       '/..R'          MOVE.L   -$00AE(A6),-(A7)    
000000FC: 3F3C 00FF       '?<..'          MOVE.W   #$00FF,-(A7)        
00000100: A95D            '.]'            _HiliteControl                     ; A95D
00000102: 2F0C            '/.'            MOVE.L   A4,-(A7)            
00000104: A915            '..'            _ShowWindow                     ; A915
00000106: 2F0C            '/.'            MOVE.L   A4,-(A7)            
00000108: A920            '. '            _BringToFront                     ; A920
0000010A: 486D 05FA       'Hm..'          PEA      $05FA(A5)           
0000010E: 486E FF34       'Hn.4'          PEA      -$00CC(A6)          
00000112: A991            '..'            _ModalDialog                     ; A991
00000114: 2F2E FF2E       '/...'          MOVE.L   -$00D2(A6),-(A7)    
00000118: A873            '.s'            _SetPort                     ; A873
0000011A: 2F0C            '/.'            MOVE.L   A4,-(A7)            
0000011C: A982            '..'            _CloseDialog                     ; A982
0000011E: 2F2E FF2E       '/...'          MOVE.L   -$00D2(A6),-(A7)    
00000122: A873            '.s'            _SetPort                     ; A873
00000124: 2F2D FAAE       '/-..'          MOVE.L   -$0552(A5),-(A7)    
00000128: A9CD            '..'            _TEDispose                     ; A9CD
0000012A: 0C6E 0003 FF34  '.n...4'        CMPI.W   #$0003,-$00CC(A6)   
00000130: 661C            'f.'            BNE.S    *+$001E             ; 0000014E
00000132: 4267            'Bg'            CLR.W    -(A7)               
00000134: A938            '.8'            _HiliteMenu                     ; A938
00000136: 206D 9B70       ' m.p'          MOVEA.L  -$6490(A5),A0       
0000013A: 2F10            '/.'            MOVE.L   (A0),-(A7)          
0000013C: A851            '.Q'            _SetCursor                     ; A851
0000013E: 7000            'p.'            MOVEQ    #$00,D0             
00000140: 102E 0009       '....'          MOVE.B   $0009(A6),D0        
00000144: 3F00            '?.'            MOVE.W   D0,-(A7)            
00000146: 4EBA 0B44       'N..D'          JSR      *+$0B46             ; 00000C8C
0000014A: A9F4            '..'            _ExitToShell                     ; A9F4
0000014C: 548F            'T.'            ADDQ.L   #$2,A7              
0000014E: 0C6E 0002 FF34  '.n...4'        CMPI.W   #$0002,-$00CC(A6)   
00000154: 6604            'f.'            BNE.S    *+$0006             ; 0000015A
00000156: 7002            'p.'            MOVEQ    #$02,D0             
00000158: 6002            '`.'            BRA.S    *+$0004             ; 0000015C
0000015A: 7000            'p.'            MOVEQ    #$00,D0             
0000015C: 285F            '(_'            MOVEA.L  (A7)+,A4            
0000015E: 4E5E            'N^'            UNLK     A6                  
00000160: 4E75            'Nu'            RTS                          
00000162: 8A46            '.F'            OR.W     D6,D5               
00000164: 756C            'ul'            DC.W     $756C               ; ????
00000166: 6C53            'lS'            BGE.S    *+$0055             ; 000001BB
00000168: 7461            'ta'            MOVEQ    #$61,D2             ; 'a'
0000016A: 7475            'tu'            MOVEQ    #$75,D2             ; 'u'
0000016C: 7300            's.'            DC.W     $7300               ; ????
0000016E: 0000 4E56       '..NV'          ORI.B    #$4E56,D0           ; 'V'
00000172: 0000 206D       '.. m'          ORI.B    #$206D,D0           ; 'm'
00000176: 9B70 2F10       '.p/.'          SUB.W    D5,(0,A0,D2.L*8)    
0000017A: A851            '.Q'            _SetCursor                     ; A851
0000017C: 4EBA 001C       'N...'          JSR      *+$001E             ; 0000019A
00000180: A850            '.P'            _InitCursor                     ; A850
00000182: 4E5E            'N^'            UNLK     A6                  
00000184: 205F            ' _'            MOVEA.L  (A7)+,A0            
00000186: 5C8F            '\.'            ADDQ.L   #$6,A7              
00000188: 4ED0            'N.'            JMP      (A0)                
0000018A: 8C64            '.d'            OR.W     -(A4),D6            
0000018C: 6F46            'oF'            BLE.S    *+$0048             ; 000001D4
0000018E: 756C            'ul'            DC.W     $756C               ; ????
00000190: 6C53            'lS'            BGE.S    *+$0055             ; 000001E5
00000192: 7461            'ta'            MOVEQ    #$61,D2             ; 'a'
00000194: 7475            'tu'            MOVEQ    #$75,D2             ; 'u'
00000196: 7300            's.'            DC.W     $7300               ; ????
00000198: 0000 4E56       '..NV'          ORI.B    #$4E56,D0           ; 'V'
0000019C: FFFC            '..'            DC.W     $FFFC               ; ????
0000019E: 48E7 0F00       'H...'          MOVEM.L  D4-D7,-(A7)         
000001A2: 7A00            'z.'            MOVEQ    #$00,D5             
000001A4: 4AAD FAA6       'J...'          TST.L    -$055A(A5)          
000001A8: 6634            'f4'            BNE.S    *+$0036             ; 000001DE
000001AA: 42A7            'B.'            CLR.L    -(A7)               
000001AC: 2F3C 5354 5220  '/<STR '        MOVE.L   #$53545220,-(A7)    ; 'STR '
000001B2: 3F3C 0080       '?<..'          MOVE.W   #$0080,-(A7)        
000001B6: A9A0            '..'            _GetResource                     ; A9A0
000001B8: 201F            ' .'            MOVE.L   (A7)+,D0            
000001BA: 2D40 FFFC       '-@..'          MOVE.L   D0,-$0004(A6)       
000001BE: 660A            'f.'            BNE.S    *+$000C             ; 000001CA
000001C0: 2B7C 0000 A041  '+|...A'        MOVE.L   #$0000A041,-$055A(A5) 
          FAA6            '..'    
000001C8: 6014            '`.'            BRA.S    *+$0016             ; 000001DE
000001CA: 206E FFFC       ' n..'          MOVEA.L  -$0004(A6),A0       
000001CE: 2050            ' P'            MOVEA.L  (A0),A0             
000001D0: 4868 0001       'Hh..'          PEA      $0001(A0)           
000001D4: 4EAD 04E2       'N...'          JSR      $04E2(A5)           
000001D8: 2B40 FAA6       '+@..'          MOVE.L   D0,-$055A(A5)       
000001DC: 588F            'X.'            ADDQ.L   #$4,A7              
000001DE: 4A6D 9688       'Jm..'          TST.W    -$6978(A5)          
000001E2: 6612            'f.'            BNE.S    *+$0014             ; 000001F6
000001E4: 2F3C 0000 1FD2  '/<....'        MOVE.L   #$00001FD2,-(A7)    
000001EA: 2F2D FAAE       '/-..'          MOVE.L   -$0552(A5),-(A7)    
000001EE: 4EAD 04FA       'N...'          JSR      $04FA(A5)           
000001F2: 508F            'P.'            ADDQ.L   #$8,A7              
000001F4: 6046            '`F'            BRA.S    *+$0048             ; 0000023C
000001F6: 4A6D 9686       'Jm..'          TST.W    -$697A(A5)          
000001FA: 6612            'f.'            BNE.S    *+$0014             ; 0000020E
000001FC: 2F3C 0000 1FEC  '/<....'        MOVE.L   #$00001FEC,-(A7)    
00000202: 2F2D FAAE       '/-..'          MOVE.L   -$0552(A5),-(A7)    
00000206: 4EAD 04FA       'N...'          JSR      $04FA(A5)           
0000020A: 508F            'P.'            ADDQ.L   #$8,A7              
0000020C: 602E            '`.'            BRA.S    *+$0030             ; 0000023C
0000020E: 4A2D FAAA       'J-..'          TST.B    -$0556(A5)          
00000212: 6712            'g.'            BEQ.S    *+$0014             ; 00000226
00000214: 2F3C 0000 200A  '/<.. .'        MOVE.L   #$0000200A,-(A7)    
0000021A: 2F2D FAAE       '/-..'          MOVE.L   -$0552(A5),-(A7)    
0000021E: 4EAD 04FA       'N...'          JSR      $04FA(A5)           
00000222: 508F            'P.'            ADDQ.L   #$8,A7              
00000224: 6016            '`.'            BRA.S    *+$0018             ; 0000023C
00000226: 4A2D FAAB       'J-..'          TST.B    -$0555(A5)          
0000022A: 6710            'g.'            BEQ.S    *+$0012             ; 0000023C
0000022C: 2F3C 0000 2032  '/<.. 2'        MOVE.L   #$00002032,-(A7)    
00000232: 2F2D FAAE       '/-..'          MOVE.L   -$0552(A5),-(A7)    
00000236: 4EAD 04FA       'N...'          JSR      $04FA(A5)           
0000023A: 508F            'P.'            ADDQ.L   #$8,A7              
0000023C: 4A2D FAAC       'J-..'          TST.B    -$0554(A5)          
00000240: 671A            'g.'            BEQ.S    *+$001C             ; 0000025C
00000242: 4878 0004       'Hx..'          PEA      $0004               
00000246: 4878 0003       'Hx..'          PEA      $0003               
0000024A: 2F2D 9676       '/-.v'          MOVE.L   -$698A(A5),-(A7)    
0000024E: 4EAD 0042       'N..B'          JSR      $0042(A5)           
00000252: 2F00            '/.'            MOVE.L   D0,-(A7)            
00000254: 4EAD 005A       'N..Z'          JSR      $005A(A5)           
00000258: 2800            '(.'            MOVE.L   D0,D4               
0000025A: 6004            '`.'            BRA.S    *+$0006             ; 00000260
0000025C: 282D 9676       '(-.v'          MOVE.L   -$698A(A5),D4       
00000260: 4A2D FAAC       'J-..'          TST.B    -$0554(A5)          
00000264: 6708            'g.'            BEQ.S    *+$000A             ; 0000026E
00000266: 203C 0000 2066  ' <.. f'        MOVE.L   #$00002066,D0       
0000026C: 6006            '`.'            BRA.S    *+$0008             ; 00000274
0000026E: 203C 0000 206A  ' <.. j'        MOVE.L   #$0000206A,D0       
00000274: 2F00            '/.'            MOVE.L   D0,-(A7)            
00000276: 2F3C 0000 2070  '/<.. p'        MOVE.L   #$00002070,-(A7)    
0000027C: 2F2D FAAE       '/-..'          MOVE.L   -$0552(A5),-(A7)    
00000280: 4EAD 04FA       'N...'          JSR      $04FA(A5)           
00000284: 0C6D 0003 968A  '.m....'        CMPI.W   #$0003,-$6976(A5)   
0000028A: 4FEF 000C       'O...'          LEA      $000C(A7),A7        
0000028E: 6608            'f.'            BNE.S    *+$000A             ; 00000298
00000290: 203C 0000 208A  ' <.. .'        MOVE.L   #$0000208A,D0       
00000296: 6026            '`&'            BRA.S    *+$0028             ; 000002BE
00000298: 0C6D 0004 968A  '.m....'        CMPI.W   #$0004,-$6976(A5)   
0000029E: 6608            'f.'            BNE.S    *+$000A             ; 000002A8
000002A0: 203C 0000 208E  ' <.. .'        MOVE.L   #$0000208E,D0       
000002A6: 6016            '`.'            BRA.S    *+$0018             ; 000002BE
000002A8: 0C6D 0005 968A  '.m....'        CMPI.W   #$0005,-$6976(A5)   
000002AE: 6608            'f.'            BNE.S    *+$000A             ; 000002B8
000002B0: 203C 0000 2092  ' <.. .'        MOVE.L   #$00002092,D0       
000002B6: 6006            '`.'            BRA.S    *+$0008             ; 000002BE
000002B8: 203C 0000 2096  ' <.. .'        MOVE.L   #$00002096,D0       
000002BE: 2F00            '/.'            MOVE.L   D0,-(A7)            
000002C0: 70FE            'p.'            MOVEQ    #$FE,D0             
000002C2: D06D 968A       '.m..'          ADD.W    -$6976(A5),D0       
000002C6: 3F00            '?.'            MOVE.W   D0,-(A7)            
000002C8: 2F3C 0000 209A  '/<.. .'        MOVE.L   #$0000209A,-(A7)    
000002CE: 2F2D FAAE       '/-..'          MOVE.L   -$0552(A5),-(A7)    
000002D2: 4EAD 04FA       'N...'          JSR      $04FA(A5)           
000002D6: 2EAD 967E       '...~'          MOVE.L   -$6982(A5),(A7)     
000002DA: 4A2D FAAC       'J-..'          TST.B    -$0554(A5)          
000002DE: 6708            'g.'            BEQ.S    *+$000A             ; 000002E8
000002E0: 203C 0000 20C2  ' <.. .'        MOVE.L   #$000020C2,D0       
000002E6: 6006            '`.'            BRA.S    *+$0008             ; 000002EE
000002E8: 203C 0000 20C6  ' <.. .'        MOVE.L   #$000020C6,D0       
000002EE: 2F00            '/.'            MOVE.L   D0,-(A7)            
000002F0: 2F3C 0000 20CC  '/<.. .'        MOVE.L   #$000020CC,-(A7)    
000002F6: 2F2D FAAE       '/-..'          MOVE.L   -$0552(A5),-(A7)    
000002FA: 4EAD 04FA       'N...'          JSR      $04FA(A5)           
000002FE: 7064            'pd'            MOVEQ    #$64,D0             ; 'd'
00000300: 2E80            '..'            MOVE.L   D0,(A7)             
00000302: 2F2D 967E       '/-.~'          MOVE.L   -$6982(A5),-(A7)    
00000306: 2F2D FAA6       '/-..'          MOVE.L   -$055A(A5),-(A7)    
0000030A: 4EAD 0042       'N..B'          JSR      $0042(A5)           
0000030E: 2F00            '/.'            MOVE.L   D0,-(A7)            
00000310: 4EAD 005A       'N..Z'          JSR      $005A(A5)           
00000314: 2E80            '..'            MOVE.L   D0,(A7)             
00000316: 2F3C 0000 20FA  '/<.. .'        MOVE.L   #$000020FA,-(A7)    
0000031C: 2F2D FAAE       '/-..'          MOVE.L   -$0552(A5),-(A7)    
00000320: 4EAD 04FA       'N...'          JSR      $04FA(A5)           
00000324: 7E00            '~.'            MOVEQ    #$00,D7             
00000326: 4FEF 001E       'O...'          LEA      $001E(A7),A7        
0000032A: 6040            '`@'            BRA.S    *+$0042             ; 0000036C
0000032C: 204D            ' M'            MOVEA.L  A5,A0               
0000032E: 2007            ' .'            MOVE.L   D7,D0               
00000330: 48C0            'H.'            EXT.L    D0                  
00000332: E788            '..'            LSL.L    #$3,D0              
00000334: D1C0            '..'            ADDA.L   D0,A0               
00000336: 2F28 FA8A       '/(..'          MOVE.L   -$0576(A0),-(A7)    
0000033A: 4EAD 00F2       'N...'          JSR      $00F2(A5)           
0000033E: 3E80            '>.'            MOVE.W   D0,(A7)             
00000340: 2F2D 9672       '/-.r'          MOVE.L   -$698E(A5),-(A7)    
00000344: 4EAD 00D2       'N...'          JSR      $00D2(A5)           
00000348: 204D            ' M'            MOVEA.L  A5,A0               
0000034A: 2207            '".'            MOVE.L   D7,D1               
0000034C: 48C1            'H.'            EXT.L    D1                  
0000034E: E789            '..'            LSL.L    #$3,D1              
00000350: D1C1            '..'            ADDA.L   D1,A0               
00000352: 2140 FA86       '!@..'          MOVE.L   D0,-$057A(A0)       
00000356: 204D            ' M'            MOVEA.L  A5,A0               
00000358: 2007            ' .'            MOVE.L   D7,D0               
0000035A: 48C0            'H.'            EXT.L    D0                  
0000035C: E788            '..'            LSL.L    #$3,D0              
0000035E: D1C0            '..'            ADDA.L   D0,A0               
00000360: 4AA8 FA86       'J...'          TST.L    -$057A(A0)          
00000364: 508F            'P.'            ADDQ.L   #$8,A7              
00000366: 6702            'g.'            BEQ.S    *+$0004             ; 0000036A
00000368: 5245            'RE'            ADDQ.W   #$1,D5              
0000036A: 5247            'RG'            ADDQ.W   #$1,D7              
0000036C: 204D            ' M'            MOVEA.L  A5,A0               
0000036E: 2007            ' .'            MOVE.L   D7,D0               
00000370: 48C0            'H.'            EXT.L    D0                  
00000372: E788            '..'            LSL.L    #$3,D0              
00000374: D1C0            '..'            ADDA.L   D0,A0               
00000376: 4AA8 FA8A       'J...'          TST.L    -$0576(A0)          
0000037A: 66B0            'f.'            BNE.S    *-$004E             ; 0000032C
0000037C: 4A45            'JE'            TST.W    D5                  
0000037E: 6F28            'o('            BLE.S    *+$002A             ; 000003A8
00000380: 4A2D FAAC       'J-..'          TST.B    -$0554(A5)          
00000384: 6708            'g.'            BEQ.S    *+$000A             ; 0000038E
00000386: 203C 0000 211C  ' <..!.'        MOVE.L   #$0000211C,D0       
0000038C: 6006            '`.'            BRA.S    *+$0008             ; 00000394
0000038E: 203C 0000 2122  ' <..!"'        MOVE.L   #$00002122,D0       
00000394: 2F00            '/.'            MOVE.L   D0,-(A7)            
00000396: 2F3C 0000 2126  '/<..!&'        MOVE.L   #$00002126,-(A7)    
0000039C: 2F2D FAAE       '/-..'          MOVE.L   -$0552(A5),-(A7)    
000003A0: 4EAD 04FA       'N...'          JSR      $04FA(A5)           
000003A4: 4FEF 000C       'O...'          LEA      $000C(A7),A7        
000003A8: 7E00            '~.'            MOVEQ    #$00,D7             
000003AA: 7C00            '|.'            MOVEQ    #$00,D6             
000003AC: 6000 00AA       '`...'          BRA      *+$00AC             ; 00000458
000003B0: 204D            ' M'            MOVEA.L  A5,A0               
000003B2: 2007            ' .'            MOVE.L   D7,D0               
000003B4: 48C0            'H.'            EXT.L    D0                  
000003B6: E788            '..'            LSL.L    #$3,D0              
000003B8: D1C0            '..'            ADDA.L   D0,A0               
000003BA: 4AA8 FA86       'J...'          TST.L    -$057A(A0)          
000003BE: 6700 0096       'g...'          BEQ      *+$0098             ; 00000456
000003C2: 204D            ' M'            MOVEA.L  A5,A0               
000003C4: 2007            ' .'            MOVE.L   D7,D0               
000003C6: 48C0            'H.'            EXT.L    D0                  
000003C8: E788            '..'            LSL.L    #$3,D0              
000003CA: D1C0            '..'            ADDA.L   D0,A0               
000003CC: 2068 FA86       ' h..'          MOVEA.L  -$057A(A0),A0       
000003D0: 0828 0006 0009  '.(....'        BTST     #$06,$0009(A0)      
000003D6: 6710            'g.'            BEQ.S    *+$0012             ; 000003E8
000003D8: 2F3C 0000 2144  '/<..!D'        MOVE.L   #$00002144,-(A7)    
000003DE: 2F2D FAAE       '/-..'          MOVE.L   -$0552(A5),-(A7)    
000003E2: 4EAD 04FA       'N...'          JSR      $04FA(A5)           
000003E6: 508F            'P.'            ADDQ.L   #$8,A7              
000003E8: 2F3C 0000 214C  '/<..!L'        MOVE.L   #$0000214C,-(A7)    
000003EE: 204D            ' M'            MOVEA.L  A5,A0               
000003F0: 2007            ' .'            MOVE.L   D7,D0               
000003F2: 48C0            'H.'            EXT.L    D0                  
000003F4: E788            '..'            LSL.L    #$3,D0              
000003F6: D1C0            '..'            ADDA.L   D0,A0               
000003F8: 2068 FA86       ' h..'          MOVEA.L  -$057A(A0),A0       
000003FC: 703C            'p<'            MOVEQ    #$3C,D0             ; '<'
000003FE: C1D0            '..'            MULS.W   (A0),D0             
00000400: 204D            ' M'            MOVEA.L  A5,A0               
00000402: D1C0            '..'            ADDA.L   D0,A0               
00000404: 2F28 EA44       '/(.D'          MOVE.L   -$15BC(A0),-(A7)    
00000408: 2F2D FAAE       '/-..'          MOVE.L   -$0552(A5),-(A7)    
0000040C: 4EAD 04FA       'N...'          JSR      $04FA(A5)           
00000410: 5246            'RF'            ADDQ.W   #$1,D6              
00000412: BA46            '.F'            CMP.W    D6,D5               
00000414: 4FEF 000C       'O...'          LEA      $000C(A7),A7        
00000418: 6612            'f.'            BNE.S    *+$0014             ; 0000042C
0000041A: 2F3C 0000 214E  '/<..!N'        MOVE.L   #$0000214E,-(A7)    
00000420: 2F2D FAAE       '/-..'          MOVE.L   -$0552(A5),-(A7)    
00000424: 4EAD 04FA       'N...'          JSR      $04FA(A5)           
00000428: 508F            'P.'            ADDQ.L   #$8,A7              
0000042A: 602A            '`*'            BRA.S    *+$002C             ; 00000456
0000042C: 70FF            'p.'            MOVEQ    #$FF,D0             
0000042E: D045            '.E'            ADD.W    D5,D0               
00000430: B046            '.F'            CMP.W    D6,D0               
00000432: 6612            'f.'            BNE.S    *+$0014             ; 00000446
00000434: 2F3C 0000 2152  '/<..!R'        MOVE.L   #$00002152,-(A7)    
0000043A: 2F2D FAAE       '/-..'          MOVE.L   -$0552(A5),-(A7)    
0000043E: 4EAD 04FA       'N...'          JSR      $04FA(A5)           
00000442: 508F            'P.'            ADDQ.L   #$8,A7              
00000444: 6010            '`.'            BRA.S    *+$0012             ; 00000456
00000446: 2F3C 0000 215E  '/<..!^'        MOVE.L   #$0000215E,-(A7)    
0000044C: 2F2D FAAE       '/-..'          MOVE.L   -$0552(A5),-(A7)    
00000450: 4EAD 04FA       'N...'          JSR      $04FA(A5)           
00000454: 508F            'P.'            ADDQ.L   #$8,A7              
00000456: 5247            'RG'            ADDQ.W   #$1,D7              
00000458: 204D            ' M'            MOVEA.L  A5,A0               
0000045A: 2007            ' .'            MOVE.L   D7,D0               
0000045C: 48C0            'H.'            EXT.L    D0                  
0000045E: E788            '..'            LSL.L    #$3,D0              
00000460: D1C0            '..'            ADDA.L   D0,A0               
00000462: 4AA8 FA8A       'J...'          TST.L    -$0576(A0)          
00000466: 6600 FF48       'f..H'          BNE      *-$00B6             ; 000003B0
0000046A: 4A2D FAAC       'J-..'          TST.B    -$0554(A5)          
0000046E: 675E            'g^'            BEQ.S    *+$0060             ; 000004CE
00000470: 2F3C 0000 2166  '/<..!f'        MOVE.L   #$00002166,-(A7)    
00000476: 2F2D FAAE       '/-..'          MOVE.L   -$0552(A5),-(A7)    
0000047A: 4EAD 04FA       'N...'          JSR      $04FA(A5)           
0000047E: 2EBC 0000 21A0  '....!.'        MOVE.L   #$000021A0,(A7)     
00000484: 2F2D FAAE       '/-..'          MOVE.L   -$0552(A5),-(A7)    
00000488: 4EAD 04FA       'N...'          JSR      $04FA(A5)           
0000048C: 2EBC 0000 21D0  '....!.'        MOVE.L   #$000021D0,(A7)     
00000492: 2F2D FAAE       '/-..'          MOVE.L   -$0552(A5),-(A7)    
00000496: 4EAD 04FA       'N...'          JSR      $04FA(A5)           
0000049A: 2EBC 0000 220A  '....".'        MOVE.L   #$0000220A,(A7)     
000004A0: 2F2D FAAE       '/-..'          MOVE.L   -$0552(A5),-(A7)    
000004A4: 4EAD 04FA       'N...'          JSR      $04FA(A5)           
000004A8: 2E84            '..'            MOVE.L   D4,(A7)             
000004AA: 2F3C 0000 2238  '/<.."8'        MOVE.L   #$00002238,-(A7)    
000004B0: 2F2D FAAE       '/-..'          MOVE.L   -$0552(A5),-(A7)    
000004B4: 4EAD 04FA       'N...'          JSR      $04FA(A5)           
000004B8: 2EBC 0000 2258  '...."X'        MOVE.L   #$00002258,(A7)     
000004BE: 2F2D FAAE       '/-..'          MOVE.L   -$0552(A5),-(A7)    
000004C2: 4EAD 04FA       'N...'          JSR      $04FA(A5)           
000004C6: 4FEF 0020       'O.. '          LEA      $0020(A7),A7        
000004CA: 6000 00CC       '`...'          BRA      *+$00CE             ; 00000598
000004CE: 4A2D FAAA       'J-..'          TST.B    -$0556(A5)          
000004D2: 674E            'gN'            BEQ.S    *+$0050             ; 00000522
000004D4: 2F04            '/.'            MOVE.L   D4,-(A7)            
000004D6: 2F3C 0000 2272  '/<.."r'        MOVE.L   #$00002272,-(A7)    
000004DC: 2F2D FAAE       '/-..'          MOVE.L   -$0552(A5),-(A7)    
000004E0: 4EAD 04FA       'N...'          JSR      $04FA(A5)           
000004E4: 2EBC 0000 22A8  '....".'        MOVE.L   #$000022A8,(A7)     
000004EA: 2F2D FAAE       '/-..'          MOVE.L   -$0552(A5),-(A7)    
000004EE: 4EAD 04FA       'N...'          JSR      $04FA(A5)           
000004F2: 2EBC 0000 22C4  '....".'        MOVE.L   #$000022C4,(A7)     
000004F8: 2F2D FAAE       '/-..'          MOVE.L   -$0552(A5),-(A7)    
000004FC: 4EAD 04FA       'N...'          JSR      $04FA(A5)           
00000500: 2EBC 0000 22E8  '....".'        MOVE.L   #$000022E8,(A7)     
00000506: 2F2D FAAE       '/-..'          MOVE.L   -$0552(A5),-(A7)    
0000050A: 4EAD 04FA       'N...'          JSR      $04FA(A5)           
0000050E: 2EBC 0000 2304  '....#.'        MOVE.L   #$00002304,(A7)     
00000514: 2F2D FAAE       '/-..'          MOVE.L   -$0552(A5),-(A7)    
00000518: 4EAD 04FA       'N...'          JSR      $04FA(A5)           
0000051C: 4FEF 001C       'O...'          LEA      $001C(A7),A7        
00000520: 6076            '`v'            BRA.S    *+$0078             ; 00000598
00000522: 4A2D FAAB       'J-..'          TST.B    -$0555(A5)          
00000526: 6740            'g@'            BEQ.S    *+$0042             ; 00000568
00000528: 2F3C 0000 2334  '/<..#4'        MOVE.L   #$00002334,-(A7)    
0000052E: 2F2D FAAE       '/-..'          MOVE.L   -$0552(A5),-(A7)    
00000532: 4EAD 04FA       'N...'          JSR      $04FA(A5)           
00000536: 2EBC 0000 2366  '....#f'        MOVE.L   #$00002366,(A7)     
0000053C: 2F2D FAAE       '/-..'          MOVE.L   -$0552(A5),-(A7)    
00000540: 4EAD 04FA       'N...'          JSR      $04FA(A5)           
00000544: 2E84            '..'            MOVE.L   D4,(A7)             
00000546: 2F3C 0000 2398  '/<..#.'        MOVE.L   #$00002398,-(A7)    
0000054C: 2F2D FAAE       '/-..'          MOVE.L   -$0552(A5),-(A7)    
00000550: 4EAD 04FA       'N...'          JSR      $04FA(A5)           
00000554: 2EBC 0000 23C0  '....#.'        MOVE.L   #$000023C0,(A7)     
0000055A: 2F2D FAAE       '/-..'          MOVE.L   -$0552(A5),-(A7)    
0000055E: 4EAD 04FA       'N...'          JSR      $04FA(A5)           
00000562: 4FEF 0018       'O...'          LEA      $0018(A7),A7        
00000566: 6030            '`0'            BRA.S    *+$0032             ; 00000598
00000568: 2F3C 0000 23CE  '/<..#.'        MOVE.L   #$000023CE,-(A7)    
0000056E: 2F2D FAAE       '/-..'          MOVE.L   -$0552(A5),-(A7)    
00000572: 4EAD 04FA       'N...'          JSR      $04FA(A5)           
00000576: 2E84            '..'            MOVE.L   D4,(A7)             
00000578: 2F3C 0000 2402  '/<..$.'        MOVE.L   #$00002402,-(A7)    
0000057E: 2F2D FAAE       '/-..'          MOVE.L   -$0552(A5),-(A7)    
00000582: 4EAD 04FA       'N...'          JSR      $04FA(A5)           
00000586: 2EBC 0000 2422  '....$"'        MOVE.L   #$00002422,(A7)     
0000058C: 2F2D FAAE       '/-..'          MOVE.L   -$0552(A5),-(A7)    
00000590: 4EAD 04FA       'N...'          JSR      $04FA(A5)           
00000594: 4FEF 0014       'O...'          LEA      $0014(A7),A7        
00000598: 2F04            '/.'            MOVE.L   D4,-(A7)            
0000059A: 4EBA 0034       'N..4'          JSR      *+$0036             ; 000005D0
0000059E: C1FC 000C       '....'          MULS.W   #$000C,D0           
000005A2: 204D            ' M'            MOVEA.L  A5,A0               
000005A4: D1C0            '..'            ADDA.L   D0,A0               
000005A6: 2EA8 FAB2       '....'          MOVE.L   -$054E(A0),(A7)     
000005AA: 2F3C 0000 2450  '/<..$P'        MOVE.L   #$00002450,-(A7)    
000005B0: 2F2D FAAE       '/-..'          MOVE.L   -$0552(A5),-(A7)    
000005B4: 4EAD 04FA       'N...'          JSR      $04FA(A5)           
000005B8: 4CEE 00F0 FFEC  'L.....'        MOVEM.L  -$0014(A6),D4-D7    
000005BE: 4E5E            'N^'            UNLK     A6                  
000005C0: 4E75            'Nu'            RTS                          
000005C2: 8B50            '.P'            OR.W     D5,(A0)             
000005C4: 7269            'ri'            MOVEQ    #$69,D1             ; 'i'
000005C6: 6E74            'nt'            BGT.S    *+$0076             ; 0000063C
000005C8: 5374            'St'            DC.W     $5374               ; ????
000005CA: 6174            'at'            BSR.S    *+$0076             ; 00000640
000005CC: 7573            'us'            DC.W     $7573               ; ????
000005CE: 0000 4E56       '..NV'          ORI.B    #$4E56,D0           ; 'V'
000005D2: 0000 2F07       '../.'          ORI.B    #$2F07,D0           
000005D6: 7E00            '~.'            MOVEQ    #$00,D7             
000005D8: 6014            '`.'            BRA.S    *+$0016             ; 000005EE
000005DA: 700C            'p.'            MOVEQ    #$0C,D0             
000005DC: C1C7            '..'            MULS.W   D7,D0               
000005DE: 204D            ' M'            MOVEA.L  A5,A0               
000005E0: D1C0            '..'            ADDA.L   D0,A0               
000005E2: 202E 0008       ' ...'          MOVE.L   $0008(A6),D0        
000005E6: B0A8 FABA       '....'          CMP.L    -$0546(A0),D0       
000005EA: 6D10            'm.'            BLT.S    *+$0012             ; 000005FC
000005EC: 5247            'RG'            ADDQ.W   #$1,D7              
000005EE: 700C            'p.'            MOVEQ    #$0C,D0             
000005F0: C1C7            '..'            MULS.W   D7,D0               
000005F2: 204D            ' M'            MOVEA.L  A5,A0               
000005F4: D1C0            '..'            ADDA.L   D0,A0               
000005F6: 4AA8 FAB2       'J...'          TST.L    -$054E(A0)          
000005FA: 66DE            'f.'            BNE.S    *-$0020             ; 000005DA
000005FC: 700C            'p.'            MOVEQ    #$0C,D0             
000005FE: C1C7            '..'            MULS.W   D7,D0               
00000600: 204D            ' M'            MOVEA.L  A5,A0               
00000602: D1C0            '..'            ADDA.L   D0,A0               
00000604: 4AA8 FAB2       'J...'          TST.L    -$054E(A0)          
00000608: 6602            'f.'            BNE.S    *+$0004             ; 0000060C
0000060A: 5347            'SG'            SUBQ.W   #$1,D7              
0000060C: 3007            '0.'            MOVE.W   D7,D0               
0000060E: 2E1F            '..'            MOVE.L   (A7)+,D7            
00000610: 4E5E            'N^'            UNLK     A6                  
00000612: 4E75            'Nu'            RTS                          
00000614: 8950            '.P'            OR.W     D4,(A0)             
00000616: 7265            're'            MOVEQ    #$65,D1             ; 'e'
00000618: 734C            'sL'            DC.W     $734C               ; ????
0000061A: 6576            'ev'            BCS.S    *+$0078             ; 00000692
0000061C: 656C            'el'            BCS.S    *+$006E             ; 0000068A
0000061E: 0000 4E56       '..NV'          ORI.B    #$4E56,D0           ; 'V'
00000622: 0000 422E       '..B.'          ORI.B    #$422E,D0           ; '.'
00000626: 0014 4E5E       '..N^'          ORI.B    #$4E5E,(A4)         ; '^'
0000062A: 205F            ' _'            MOVEA.L  (A7)+,A0            
0000062C: 4FEF 000C       'O...'          LEA      $000C(A7),A7        
00000630: 4ED0            'N.'            JMP      (A0)                
00000632: 8846            '.F'            OR.W     D6,D4               
00000634: 5346            'SF'            SUBQ.W   #$1,D6              
00000636: 696C            'il'            BVS.S    *+$006E             ; 000006A4
00000638: 7465            'te'            MOVEQ    #$65,D2             ; 'e'
0000063A: 7200            'r.'            MOVEQ    #$00,D1             
0000063C: 0000 4E56       '..NV'          ORI.B    #$4E56,D0           ; 'V'
00000640: FF2E            '..'            DC.W     $FF2E               ; ????
00000642: 2F07            '/.'            MOVE.L   D7,-(A7)            
00000644: 7EFF            '~.'            MOVEQ    #$FF,D7             
00000646: 1B6E 0009 FF34  '.n...4'        MOVE.B   $0009(A6),-$00CC(A5) 
0000064C: 1B6E 000B FF35  '.n...5'        MOVE.B   $000B(A6),-$00CB(A5) 
00000652: 4A6D 9688       'Jm..'          TST.W    -$6978(A5)          
00000656: 670A            'g.'            BEQ.S    *+$000C             ; 00000662
00000658: 4A6D 9686       'Jm..'          TST.W    -$697A(A5)          
0000065C: 6704            'g.'            BEQ.S    *+$0006             ; 00000662
0000065E: 7000            'p.'            MOVEQ    #$00,D0             
00000660: 6002            '`.'            BRA.S    *+$0004             ; 00000664
00000662: 7001            'p.'            MOVEQ    #$01,D0             
00000664: 1B40 FF36       '.@.6'          MOVE.B   D0,-$00CA(A5)       
00000668: 486E FF2E       'Hn..'          PEA      -$00D2(A6)          
0000066C: A874            '.t'            _GetPort                     ; A874
0000066E: 42A7            'B.'            CLR.L    -(A7)               
00000670: 3F3C 79BA       '?<y.'          MOVE.W   #$79BA,-(A7)        
00000674: 486E FF56       'Hn.V'          PEA      -$00AA(A6)          
00000678: 4878 FFFF       'Hx..'          PEA      $FFFF               
0000067C: A97C            '.|'            _GetNewDialog                     ; A97C
0000067E: 2B5F FF2C       '+_.,'          MOVE.L   (A7)+,-$00D4(A5)    
00000682: 2F2D FF2C       '/-.,'          MOVE.L   -$00D4(A5),-(A7)    
00000686: A873            '.s'            _SetPort                     ; A873
00000688: 2F2D FF2C       '/-.,'          MOVE.L   -$00D4(A5),-(A7)    
0000068C: 3F3C 0004       '?<..'          MOVE.W   #$0004,-(A7)        
00000690: 486E FF32       'Hn.2'          PEA      -$00CE(A6)          
00000694: 486E FF52       'Hn.R'          PEA      -$00AE(A6)          
00000698: 486E FF4A       'Hn.J'          PEA      -$00B6(A6)          
0000069C: A98D            '..'            _GetDItem                     ; A98D
0000069E: 2F2D FF2C       '/-.,'          MOVE.L   -$00D4(A5),-(A7)    
000006A2: 3F3C 0004       '?<..'          MOVE.W   #$0004,-(A7)        
000006A6: 3F2E FF32       '?..2'          MOVE.W   -$00CE(A6),-(A7)    
000006AA: 486D 05DA       'Hm..'          PEA      $05DA(A5)           
000006AE: 486E FF4A       'Hn.J'          PEA      -$00B6(A6)          
000006B2: A98E            '..'            _SetDItem                     ; A98E
000006B4: 2D6E FF4A FF3A  '-n.J.:'        MOVE.L   -$00B6(A6),-$00C6(A6) 
000006BA: 2D6E FF4E FF3E  '-n.N.>'        MOVE.L   -$00B2(A6),-$00C2(A6) 
000006C0: 2D6E FF4A FF42  '-n.J.B'        MOVE.L   -$00B6(A6),-$00BE(A6) 
000006C6: 2D6E FF4E FF46  '-n.N.F'        MOVE.L   -$00B2(A6),-$00BA(A6) 
000006CC: 486E FF42       'Hn.B'          PEA      -$00BE(A6)          
000006D0: 4878 0004       'Hx..'          PEA      $0004               
000006D4: A8A9            '..'            _InsetRect                     ; A8A9
000006D6: 42A7            'B.'            CLR.L    -(A7)               
000006D8: 486E FF42       'Hn.B'          PEA      -$00BE(A6)          
000006DC: 486E FF3A       'Hn.:'          PEA      -$00C6(A6)          
000006E0: A9D2            '..'            _TENew                       ; A9D2
000006E2: 2B5F FB6E       '+_.n'          MOVE.L   (A7)+,-$0492(A5)    
000006E6: 2F2D FF2C       '/-.,'          MOVE.L   -$00D4(A5),-(A7)    
000006EA: 3F3C 0005       '?<..'          MOVE.W   #$0005,-(A7)        
000006EE: 486E FF32       'Hn.2'          PEA      -$00CE(A6)          
000006F2: 486E FF52       'Hn.R'          PEA      -$00AE(A6)          
000006F6: 486E FF4A       'Hn.J'          PEA      -$00B6(A6)          
000006FA: A98D            '..'            _GetDItem                     ; A98D
000006FC: 2F2D FF2C       '/-.,'          MOVE.L   -$00D4(A5),-(A7)    
00000700: 3F3C 0005       '?<..'          MOVE.W   #$0005,-(A7)        
00000704: 3F2E FF32       '?..2'          MOVE.W   -$00CE(A6),-(A7)    
00000708: 42A7            'B.'            CLR.L    -(A7)               
0000070A: 486E FF4A       'Hn.J'          PEA      -$00B6(A6)          
0000070E: A98E            '..'            _SetDItem                     ; A98E
00000710: 42A7            'B.'            CLR.L    -(A7)               
00000712: 2F2D FF2C       '/-.,'          MOVE.L   -$00D4(A5),-(A7)    
00000716: 486E FF4A       'Hn.J'          PEA      -$00B6(A6)          
0000071A: 2F3C 0000 2784  '/<..'.'        MOVE.L   #$00002784,-(A7)    
00000720: 4878 0100       'Hx..'          PEA      $0100               
00000724: 42A7            'B.'            CLR.L    -(A7)               
00000726: 3F3C 0010       '?<..'          MOVE.W   #$0010,-(A7)        
0000072A: 42A7            'B.'            CLR.L    -(A7)               
0000072C: A954            '.T'            _NewControl                     ; A954
0000072E: 201F            ' .'            MOVE.L   (A7)+,D0            
00000730: 2B40 FF30       '+@.0'          MOVE.L   D0,-$00D0(A5)       
00000734: 6620            'f '            BNE.S    *+$0022             ; 00000756
00000736: 2F3C 0000 2786  '/<..'.'        MOVE.L   #$00002786,-(A7)    
0000073C: 2F3C 0000 2788  '/<..'.'        MOVE.L   #$00002788,-(A7)    
00000742: 2F3C 0000 278A  '/<..'.'        MOVE.L   #$0000278A,-(A7)    
00000748: 2F3C 0000 278C  '/<..'.'        MOVE.L   #$0000278C,-(A7)    
0000074E: 4EAD 051A       'N...'          JSR      $051A(A5)           
00000752: 6000 01A2       '`...'          BRA      *+$01A4             ; 000008F6
00000756: 2F2D FF30       '/-.0'          MOVE.L   -$00D0(A5),-(A7)    
0000075A: 2F2D FB6E       '/-.n'          MOVE.L   -$0492(A5),-(A7)    
0000075E: 4EAD 00AA       'N...'          JSR      $00AA(A5)           
00000762: 2EAD FF2C       '...,'          MOVE.L   -$00D4(A5),(A7)     
00000766: 3F3C 0003       '?<..'          MOVE.W   #$0003,-(A7)        
0000076A: 486E FF32       'Hn.2'          PEA      -$00CE(A6)          
0000076E: 486E FF52       'Hn.R'          PEA      -$00AE(A6)          
00000772: 486E FF4A       'Hn.J'          PEA      -$00B6(A6)          
00000776: A98D            '..'            _GetDItem                     ; A98D
00000778: 4A2D FB76       'J-.v'          TST.B    -$048A(A5)          
0000077C: 588F            'X.'            ADDQ.L   #$4,A7              
0000077E: 661E            'f.'            BNE.S    *+$0020             ; 0000079E
00000780: 4A2D FF34       'J-.4'          TST.B    -$00CC(A5)          
00000784: 6618            'f.'            BNE.S    *+$001A             ; 0000079E
00000786: 4A2D FF35       'J-.5'          TST.B    -$00CB(A5)          
0000078A: 6612            'f.'            BNE.S    *+$0014             ; 0000079E
0000078C: 4A2D FF36       'J-.6'          TST.B    -$00CA(A5)          
00000790: 660C            'f.'            BNE.S    *+$000E             ; 0000079E
00000792: 2F2E FF52       '/..R'          MOVE.L   -$00AE(A6),-(A7)    
00000796: 3F3C 00FF       '?<..'          MOVE.W   #$00FF,-(A7)        
0000079A: A95D            '.]'            _HiliteControl                     ; A95D
0000079C: 6008            '`.'            BRA.S    *+$000A             ; 000007A6
0000079E: 2F2E FF52       '/..R'          MOVE.L   -$00AE(A6),-(A7)    
000007A2: 4267            'Bg'            CLR.W    -(A7)               
000007A4: A95D            '.]'            _HiliteControl                     ; A95D
000007A6: 2F2D FF2C       '/-.,'          MOVE.L   -$00D4(A5),-(A7)    
000007AA: 3F3C 0001       '?<..'          MOVE.W   #$0001,-(A7)        
000007AE: 486E FF32       'Hn.2'          PEA      -$00CE(A6)          
000007B2: 486E FF52       'Hn.R'          PEA      -$00AE(A6)          
000007B6: 486E FF4A       'Hn.J'          PEA      -$00B6(A6)          
000007BA: A98D            '..'            _GetDItem                     ; A98D
000007BC: 4A2D FB76       'J-.v'          TST.B    -$048A(A5)          
000007C0: 660C            'f.'            BNE.S    *+$000E             ; 000007CE
000007C2: 4A2D FF35       'J-.5'          TST.B    -$00CB(A5)          
000007C6: 6606            'f.'            BNE.S    *+$0008             ; 000007CE
000007C8: 4A2D FF36       'J-.6'          TST.B    -$00CA(A5)          
000007CC: 670C            'g.'            BEQ.S    *+$000E             ; 000007DA
000007CE: 2F2E FF52       '/..R'          MOVE.L   -$00AE(A6),-(A7)    
000007D2: 3F3C 00FF       '?<..'          MOVE.W   #$00FF,-(A7)        
000007D6: A95D            '.]'            _HiliteControl                     ; A95D
000007D8: 6008            '`.'            BRA.S    *+$000A             ; 000007E2
000007DA: 2F2E FF52       '/..R'          MOVE.L   -$00AE(A6),-(A7)    
000007DE: 4267            'Bg'            CLR.W    -(A7)               
000007E0: A95D            '.]'            _HiliteControl                     ; A95D
000007E2: 2F2D FF2C       '/-.,'          MOVE.L   -$00D4(A5),-(A7)    
000007E6: 3F3C 0002       '?<..'          MOVE.W   #$0002,-(A7)        
000007EA: 486E FF32       'Hn.2'          PEA      -$00CE(A6)          
000007EE: 486E FF52       'Hn.R'          PEA      -$00AE(A6)          
000007F2: 486E FF4A       'Hn.J'          PEA      -$00B6(A6)          
000007F6: A98D            '..'            _GetDItem                     ; A98D
000007F8: 4A2D FB76       'J-.v'          TST.B    -$048A(A5)          
000007FC: 670C            'g.'            BEQ.S    *+$000E             ; 0000080A
000007FE: 2F2E FF52       '/..R'          MOVE.L   -$00AE(A6),-(A7)    
00000802: 3F3C 00FF       '?<..'          MOVE.W   #$00FF,-(A7)        
00000806: A95D            '.]'            _HiliteControl                     ; A95D
00000808: 6008            '`.'            BRA.S    *+$000A             ; 00000812
0000080A: 2F2E FF52       '/..R'          MOVE.L   -$00AE(A6),-(A7)    
0000080E: 4267            'Bg'            CLR.W    -(A7)               
00000810: A95D            '.]'            _HiliteControl                     ; A95D
00000812: 2F2D FF2C       '/-.,'          MOVE.L   -$00D4(A5),-(A7)    
00000816: A920            '. '            _BringToFront                     ; A920
00000818: 2F2D FF2C       '/-.,'          MOVE.L   -$00D4(A5),-(A7)    
0000081C: A915            '..'            _ShowWindow                     ; A915
0000081E: 486D 05E2       'Hm..'          PEA      $05E2(A5)           
00000822: 486E FF34       'Hn.4'          PEA      -$00CC(A6)          
00000826: A991            '..'            _ModalDialog                     ; A991
00000828: 0C6E 0002 FF34  '.n...4'        CMPI.W   #$0002,-$00CC(A6)   
0000082E: 6604            'f.'            BNE.S    *+$0006             ; 00000834
00000830: 7E01            '~.'            MOVEQ    #$01,D7             
00000832: 6024            '`$'            BRA.S    *+$0026             ; 00000858
00000834: 0C6E 0001 FF34  '.n...4'        CMPI.W   #$0001,-$00CC(A6)   
0000083A: 6604            'f.'            BNE.S    *+$0006             ; 00000840
0000083C: 7E00            '~.'            MOVEQ    #$00,D7             
0000083E: 6018            '`.'            BRA.S    *+$001A             ; 00000858
00000840: 0C6E 0005 FF34  '.n...4'        CMPI.W   #$0005,-$00CC(A6)   
00000846: 6610            'f.'            BNE.S    *+$0012             ; 00000858
00000848: 4267            'Bg'            CLR.W    -(A7)               
0000084A: 2F2D FF30       '/-.0'          MOVE.L   -$00D0(A5),-(A7)    
0000084E: A962            '.b'            _GetMaxCtl                     ; A962
00000850: 4A5F            'J_'            TST.W    (A7)+               
00000852: 6F04            'o.'            BLE.S    *+$0006             ; 00000858
00000854: 4EBA 03A4       'N...'          JSR      *+$03A6             ; 00000BFA
00000858: 0C6E 0005 FF34  '.n...4'        CMPI.W   #$0005,-$00CC(A6)   
0000085E: 67BE            'g.'            BEQ.S    *-$0040             ; 0000081E
00000860: 4267            'Bg'            CLR.W    -(A7)               
00000862: 2F2D FF30       '/-.0'          MOVE.L   -$00D0(A5),-(A7)    
00000866: A960            '.`'            _GetCtlValue                     ; A960
00000868: 3B5F FB6C       ';_.l'          MOVE.W   (A7)+,-$0494(A5)    
0000086C: 2F2D FF30       '/-.0'          MOVE.L   -$00D0(A5),-(A7)    
00000870: A955            '.U'            _DisposeControl                     ; A955
00000872: 2F2D FF2C       '/-.,'          MOVE.L   -$00D4(A5),-(A7)    
00000876: A982            '..'            _CloseDialog                     ; A982
00000878: 4AAD FB72       'J..r'          TST.L    -$048E(A5)          
0000087C: 6706            'g.'            BEQ.S    *+$0008             ; 00000884
0000087E: 206D FB72       ' m.r'          MOVEA.L  -$048E(A5),A0       
00000882: A023            '.#'            _DisposeHandle                     ; A023
00000884: 42A7            'B.'            CLR.L    -(A7)               
00000886: 206D FB6E       ' m.n'          MOVEA.L  -$0492(A5),A0       
0000088A: 2050            ' P'            MOVEA.L  (A0),A0             
0000088C: 2F28 003E       '/(.>'          MOVE.L   $003E(A0),-(A7)     
00000890: 4EAD 0152       'N..R'          JSR      $0152(A5)           
00000894: 201F            ' .'            MOVE.L   (A7)+,D0            
00000896: A122            '."'            _NewHandle                     ; A122
00000898: 2B48 FB72       '+H.r'          MOVE.L   A0,-$048E(A5)       
0000089C: A04A            '.J'            _HNoPurge                     ; A04A
0000089E: 42A7            'B.'            CLR.L    -(A7)               
000008A0: 206D FB6E       ' m.n'          MOVEA.L  -$0492(A5),A0       
000008A4: 2050            ' P'            MOVEA.L  (A0),A0             
000008A6: 2F28 003E       '/(.>'          MOVE.L   $003E(A0),-(A7)     
000008AA: 4EAD 0152       'N..R'          JSR      $0152(A5)           
000008AE: 206D FB6E       ' m.n'          MOVEA.L  -$0492(A5),A0       
000008B2: 2050            ' P'            MOVEA.L  (A0),A0             
000008B4: 2068 003E       ' h.>'          MOVEA.L  $003E(A0),A0        
000008B8: 226D FB72       '"m.r'          MOVEA.L  -$048E(A5),A1       
000008BC: 201F            ' .'            MOVE.L   (A7)+,D0            
000008BE: 2251            '"Q'            MOVEA.L  (A1),A1             
000008C0: 2050            ' P'            MOVEA.L  (A0),A0             
000008C2: A02E            '..'            _BlockMove                     ; A02E
000008C4: 2F2D FB6E       '/-.n'          MOVE.L   -$0492(A5),-(A7)    
000008C8: A9CD            '..'            _TEDispose                     ; A9CD
000008CA: 2F2E FF2E       '/...'          MOVE.L   -$00D2(A6),-(A7)    
000008CE: A873            '.s'            _SetPort                     ; A873
000008D0: 0C6E 0003 FF34  '.n...4'        CMPI.W   #$0003,-$00CC(A6)   
000008D6: 661C            'f.'            BNE.S    *+$001E             ; 000008F4
000008D8: 4267            'Bg'            CLR.W    -(A7)               
000008DA: A938            '.8'            _HiliteMenu                     ; A938
000008DC: 206D 9B70       ' m.p'          MOVEA.L  -$6490(A5),A0       
000008E0: 2F10            '/.'            MOVE.L   (A0),-(A7)          
000008E2: A851            '.Q'            _SetCursor                     ; A851
000008E4: 7000            'p.'            MOVEQ    #$00,D0             
000008E6: 102E 0009       '....'          MOVE.B   $0009(A6),D0        
000008EA: 3F00            '?.'            MOVE.W   D0,-(A7)            
000008EC: 4EBA 039E       'N...'          JSR      *+$03A0             ; 00000C8C
000008F0: A9F4            '..'            _ExitToShell                     ; A9F4
000008F2: 548F            'T.'            ADDQ.L   #$2,A7              
000008F4: 3007            '0.'            MOVE.W   D7,D0               
000008F6: 2E2E FF2A       '...*'          MOVE.L   -$00D6(A6),D7       
000008FA: 4E5E            'N^'            UNLK     A6                  
000008FC: 4E75            'Nu'            RTS                          
000008FE: 8654            '.T'            OR.W     (A4),D3             
00000900: 6F70            'op'            BLE.S    *+$0072             ; 00000972
00000902: 5465            'Te'            ADDQ.W   #$2,-(A5)           
00000904: 6E00 0000       'n...'          BGT      *+$0002             ; 00000906
00000908: 4E56 0000       'NV..'          LINK     A6,#$0000           
0000090C: 206D 9B70       ' m.p'          MOVEA.L  -$6490(A5),A0       
00000910: 2F10            '/.'            MOVE.L   (A0),-(A7)          
00000912: A851            '.Q'            _SetCursor                     ; A851
00000914: 4EBA 001C       'N...'          JSR      *+$001E             ; 00000932
00000918: 4EAD 00BA       'N...'          JSR      $00BA(A5)           
0000091C: A850            '.P'            _InitCursor                     ; A850
0000091E: 4E5E            'N^'            UNLK     A6                  
00000920: 205F            ' _'            MOVEA.L  (A7)+,A0            
00000922: 5C8F            '\.'            ADDQ.L   #$6,A7              
00000924: 4ED0            'N.'            JMP      (A0)                
00000926: 8864            '.d'            OR.W     -(A4),D4            
00000928: 6F54            'oT'            BLE.S    *+$0056             ; 0000097E
0000092A: 6F70            'op'            BLE.S    *+$0072             ; 0000099C
0000092C: 5465            'Te'            ADDQ.W   #$2,-(A5)           
0000092E: 6E00 0000       'n...'          BGT      *+$0002             ; 00000930
00000932: 4E56 FFF8       'NV..'          LINK     A6,#$FFF8           
00000936: 48E7 1F08       'H...'          MOVEM.L  D3-D7/A4,-(A7)      
0000093A: 4A2D FB68       'J-.h'          TST.B    -$0498(A5)          
0000093E: 6622            'f"'            BNE.S    *+$0024             ; 00000962
00000940: 7C00            '|.'            MOVEQ    #$00,D6             
00000942: 600E            '`.'            BRA.S    *+$0010             ; 00000952
00000944: 702C            'p,'            MOVEQ    #$2C,D0             ; ','
00000946: C1C6            '..'            MULS.W   D6,D0               
00000948: 204D            ' M'            MOVEA.L  A5,A0               
0000094A: D1C0            '..'            ADDA.L   D0,A0               
0000094C: 4228 FBC8       'B(..'          CLR.B    -$0438(A0)          
00000950: 5246            'RF'            ADDQ.W   #$1,D6              
00000952: 0C46 0014       '.F..'          CMPI.W   #$0014,D6           
00000956: 6DEC            'm.'            BLT.S    *-$0012             ; 00000944
00000958: 4EBA 0548       'N..H'          JSR      *+$054A             ; 00000EA2
0000095C: 4A40            'J@'            TST.W    D0                  
0000095E: 6700 0282       'g...'          BEQ      *+$0284             ; 00000BE2
00000962: 4AAD FB72       'J..r'          TST.L    -$048E(A5)          
00000966: 672E            'g.'            BEQ.S    *+$0030             ; 00000996
00000968: 206D FB72       ' m.r'          MOVEA.L  -$048E(A5),A0       
0000096C: 2F10            '/.'            MOVE.L   (A0),-(A7)          
0000096E: 42A7            'B.'            CLR.L    -(A7)               
00000970: 2F08            '/.'            MOVE.L   A0,-(A7)            
00000972: 4EAD 0152       'N..R'          JSR      $0152(A5)           
00000976: 2F2D FB6E       '/-.n'          MOVE.L   -$0492(A5),-(A7)    
0000097A: A9CF            '..'            _TESetText                     ; A9CF
0000097C: 2F2D FB6E       '/-.n'          MOVE.L   -$0492(A5),-(A7)    
00000980: A9D0            '..'            _TECalText                     ; A9D0
00000982: 206D FB6E       ' m.n'          MOVEA.L  -$0492(A5),A0       
00000986: 2050            ' P'            MOVEA.L  (A0),A0             
00000988: 4868 0008       'Hh..'          PEA      $0008(A0)           
0000098C: 2F2D FB6E       '/-.n'          MOVE.L   -$0492(A5),-(A7)    
00000990: A9D3            '..'            _TEUpdate                     ; A9D3
00000992: 6000 024E       '`..N'          BRA      *+$0250             ; 00000BE2
00000996: 42A7            'B.'            CLR.L    -(A7)               
00000998: 2F3C 5354 5220  '/<STR '        MOVE.L   #$53545220,-(A7)    ; 'STR '
0000099E: 3F3C 0080       '?<..'          MOVE.W   #$0080,-(A7)        
000009A2: A9A0            '..'            _GetResource                     ; A9A0
000009A4: 285F            '(_'            MOVEA.L  (A7)+,A4            
000009A6: 200C            ' .'            MOVE.L   A4,D0               
000009A8: 6608            'f.'            BNE.S    *+$000A             ; 000009B2
000009AA: 263C 0000 A041  '&<...A'        MOVE.L   #$0000A041,D3       
000009B0: 600E            '`.'            BRA.S    *+$0010             ; 000009C0
000009B2: 2054            ' T'            MOVEA.L  (A4),A0             
000009B4: 4868 0001       'Hh..'          PEA      $0001(A0)           
000009B8: 4EAD 04E2       'N...'          JSR      $04E2(A5)           
000009BC: 2600            '&.'            MOVE.L   D0,D3               
000009BE: 588F            'X.'            ADDQ.L   #$4,A7              
000009C0: 7C00            '|.'            MOVEQ    #$00,D6             
000009C2: 6000 01E8       '`...'          BRA      *+$01EA             ; 00000BAC
000009C6: BC6D FB6A       '.m.j'          CMP.W    -$0496(A5),D6       
000009CA: 6610            'f.'            BNE.S    *+$0012             ; 000009DC
000009CC: 206D FB6E       ' m.n'          MOVEA.L  -$0492(A5),A0       
000009D0: 2050            ' P'            MOVEA.L  (A0),A0             
000009D2: 3068 0020       '0h. '          MOVEA.W  $0020(A0),A0        
000009D6: 2D48 FFF8       '-H..'          MOVE.L   A0,-$0008(A6)       
000009DA: 6018            '`.'            BRA.S    *+$001A             ; 000009F4
000009DC: 70FF            'p.'            MOVEQ    #$FF,D0             
000009DE: D046            '.F'            ADD.W    D6,D0               
000009E0: B06D FB6A       '.m.j'          CMP.W    -$0496(A5),D0       
000009E4: 660E            'f.'            BNE.S    *+$0010             ; 000009F4
000009E6: 206D FB6E       ' m.n'          MOVEA.L  -$0492(A5),A0       
000009EA: 2050            ' P'            MOVEA.L  (A0),A0             
000009EC: 3068 0020       '0h. '          MOVEA.W  $0020(A0),A0        
000009F0: 2D48 FFFC       '-H..'          MOVE.L   A0,-$0004(A6)       
000009F4: 702C            'p,'            MOVEQ    #$2C,D0             ; ','
000009F6: C1C6            '..'            MULS.W   D6,D0               
000009F8: 204D            ' M'            MOVEA.L  A5,A0               
000009FA: D1C0            '..'            ADDA.L   D0,A0               
000009FC: 4A28 FBC8       'J(..'          TST.B    -$0438(A0)          
00000A00: 6700 01B2       'g...'          BEQ      *+$01B4             ; 00000BB4
00000A04: 702C            'p,'            MOVEQ    #$2C,D0             ; ','
00000A06: C1C6            '..'            MULS.W   D6,D0               
00000A08: 204D            ' M'            MOVEA.L  A5,A0               
00000A0A: D1C0            '..'            ADDA.L   D0,A0               
00000A0C: 70FE            'p.'            MOVEQ    #$FE,D0             
00000A0E: D068 FBC4       '.h..'          ADD.W    -$043C(A0),D0       
00000A12: 3F00            '?.'            MOVE.W   D0,-(A7)            
00000A14: 702C            'p,'            MOVEQ    #$2C,D0             ; ','
00000A16: C1C6            '..'            MULS.W   D6,D0               
00000A18: 204D            ' M'            MOVEA.L  A5,A0               
00000A1A: D1C0            '..'            ADDA.L   D0,A0               
00000A1C: 0828 0003 FBC7  '.(....'        BTST     #$03,-$0439(A0)     
00000A22: 6708            'g.'            BEQ.S    *+$000A             ; 00000A2C
00000A24: 203C 0000 27AC  ' <..'.'        MOVE.L   #$000027AC,D0       
00000A2A: 601E            '`.'            BRA.S    *+$0020             ; 00000A4A
00000A2C: 702C            'p,'            MOVEQ    #$2C,D0             ; ','
00000A2E: C1C6            '..'            MULS.W   D6,D0               
00000A30: 204D            ' M'            MOVEA.L  A5,A0               
00000A32: D1C0            '..'            ADDA.L   D0,A0               
00000A34: 0828 0004 FBC7  '.(....'        BTST     #$04,-$0439(A0)     
00000A3A: 6708            'g.'            BEQ.S    *+$000A             ; 00000A44
00000A3C: 203C 0000 27B2  ' <..'.'        MOVE.L   #$000027B2,D0       
00000A42: 6006            '`.'            BRA.S    *+$0008             ; 00000A4A
00000A44: 203C 0000 27B8  ' <..'.'        MOVE.L   #$000027B8,D0       
00000A4A: 2F00            '/.'            MOVE.L   D0,-(A7)            
00000A4C: 702C            'p,'            MOVEQ    #$2C,D0             ; ','
00000A4E: C1C6            '..'            MULS.W   D6,D0               
00000A50: 204D            ' M'            MOVEA.L  A5,A0               
00000A52: D1C0            '..'            ADDA.L   D0,A0               
00000A54: 4868 FBC8       'Hh..'          PEA      -$0438(A0)          
00000A58: 7001            'p.'            MOVEQ    #$01,D0             
00000A5A: D046            '.F'            ADD.W    D6,D0               
00000A5C: 3F00            '?.'            MOVE.W   D0,-(A7)            
00000A5E: 2F3C 0000 27BC  '/<..'.'        MOVE.L   #$000027BC,-(A7)    
00000A64: 2F2D FB6E       '/-.n'          MOVE.L   -$0492(A5),-(A7)    
00000A68: 4EAD 04FA       'N...'          JSR      $04FA(A5)           
00000A6C: 7800            'x.'            MOVEQ    #$00,D4             
00000A6E: 7E00            '~.'            MOVEQ    #$00,D7             
00000A70: 4FEF 0014       'O...'          LEA      $0014(A7),A7        
00000A74: 601E            '`.'            BRA.S    *+$0020             ; 00000A94
00000A76: 702C            'p,'            MOVEQ    #$2C,D0             ; ','
00000A78: C1C6            '..'            MULS.W   D6,D0               
00000A7A: 204D            ' M'            MOVEA.L  A5,A0               
00000A7C: D1C0            '..'            ADDA.L   D0,A0               
00000A7E: 7006            'p.'            MOVEQ    #$06,D0             
00000A80: C1C7            '..'            MULS.W   D7,D0               
00000A82: 224D            '"M'            MOVEA.L  A5,A1               
00000A84: D3C0            '..'            ADDA.L   D0,A1               
00000A86: 3028 FBC6       '0(..'          MOVE.W   -$043A(A0),D0       
00000A8A: C069 FB78       '.i.x'          AND.W    -$0488(A1),D0       
00000A8E: 6702            'g.'            BEQ.S    *+$0004             ; 00000A92
00000A90: 5244            'RD'            ADDQ.W   #$1,D4              
00000A92: 5247            'RG'            ADDQ.W   #$1,D7              
00000A94: 7006            'p.'            MOVEQ    #$06,D0             
00000A96: C1C7            '..'            MULS.W   D7,D0               
00000A98: 204D            ' M'            MOVEA.L  A5,A0               
00000A9A: D1C0            '..'            ADDA.L   D0,A0               
00000A9C: 4A68 FB78       'Jh.x'          TST.W    -$0488(A0)          
00000AA0: 66D4            'f.'            BNE.S    *-$002A             ; 00000A76
00000AA2: 4A44            'JD'            TST.W    D4                  
00000AA4: 6F00 009C       'o...'          BLE      *+$009E             ; 00000B42
00000AA8: 2F3C 0000 27D4  '/<..'.'        MOVE.L   #$000027D4,-(A7)    
00000AAE: 2F2D FB6E       '/-.n'          MOVE.L   -$0492(A5),-(A7)    
00000AB2: 4EAD 04FA       'N...'          JSR      $04FA(A5)           
00000AB6: 7E00            '~.'            MOVEQ    #$00,D7             
00000AB8: 508F            'P.'            ADDQ.L   #$8,A7              
00000ABA: 6074            '`t'            BRA.S    *+$0076             ; 00000B30
00000ABC: 702C            'p,'            MOVEQ    #$2C,D0             ; ','
00000ABE: C1C6            '..'            MULS.W   D6,D0               
00000AC0: 204D            ' M'            MOVEA.L  A5,A0               
00000AC2: D1C0            '..'            ADDA.L   D0,A0               
00000AC4: 7006            'p.'            MOVEQ    #$06,D0             
00000AC6: C1C7            '..'            MULS.W   D7,D0               
00000AC8: 224D            '"M'            MOVEA.L  A5,A1               
00000ACA: D3C0            '..'            ADDA.L   D0,A1               
00000ACC: 3028 FBC6       '0(..'          MOVE.W   -$043A(A0),D0       
00000AD0: C069 FB78       '.i.x'          AND.W    -$0488(A1),D0       
00000AD4: 6758            'gX'            BEQ.S    *+$005A             ; 00000B2E
00000AD6: 7006            'p.'            MOVEQ    #$06,D0             
00000AD8: C1C7            '..'            MULS.W   D7,D0               
00000ADA: 204D            ' M'            MOVEA.L  A5,A0               
00000ADC: D1C0            '..'            ADDA.L   D0,A0               
00000ADE: 2F28 FB7A       '/(.z'          MOVE.L   -$0486(A0),-(A7)    
00000AE2: 2F2D FB6E       '/-.n'          MOVE.L   -$0492(A5),-(A7)    
00000AE6: 4EAD 04FA       'N...'          JSR      $04FA(A5)           
00000AEA: 5245            'RE'            ADDQ.W   #$1,D5              
00000AEC: B845            '.E'            CMP.W    D5,D4               
00000AEE: 508F            'P.'            ADDQ.L   #$8,A7              
00000AF0: 6612            'f.'            BNE.S    *+$0014             ; 00000B04
00000AF2: 2F3C 0000 27DE  '/<..'.'        MOVE.L   #$000027DE,-(A7)    
00000AF8: 2F2D FB6E       '/-.n'          MOVE.L   -$0492(A5),-(A7)    
00000AFC: 4EAD 04FA       'N...'          JSR      $04FA(A5)           
00000B00: 508F            'P.'            ADDQ.L   #$8,A7              
00000B02: 602A            '`*'            BRA.S    *+$002C             ; 00000B2E
00000B04: 70FF            'p.'            MOVEQ    #$FF,D0             
00000B06: D044            '.D'            ADD.W    D4,D0               
00000B08: B045            '.E'            CMP.W    D5,D0               
00000B0A: 6612            'f.'            BNE.S    *+$0014             ; 00000B1E
00000B0C: 2F3C 0000 27E6  '/<..'.'        MOVE.L   #$000027E6,-(A7)    
00000B12: 2F2D FB6E       '/-.n'          MOVE.L   -$0492(A5),-(A7)    
00000B16: 4EAD 04FA       'N...'          JSR      $04FA(A5)           
00000B1A: 508F            'P.'            ADDQ.L   #$8,A7              
00000B1C: 6010            '`.'            BRA.S    *+$0012             ; 00000B2E
00000B1E: 2F3C 0000 27EE  '/<..'.'        MOVE.L   #$000027EE,-(A7)    
00000B24: 2F2D FB6E       '/-.n'          MOVE.L   -$0492(A5),-(A7)    
00000B28: 4EAD 04FA       'N...'          JSR      $04FA(A5)           
00000B2C: 508F            'P.'            ADDQ.L   #$8,A7              
00000B2E: 5247            'RG'            ADDQ.W   #$1,D7              
00000B30: 7006            'p.'            MOVEQ    #$06,D0             
00000B32: C1C7            '..'            MULS.W   D7,D0               
00000B34: 204D            ' M'            MOVEA.L  A5,A0               
00000B36: D1C0            '..'            ADDA.L   D0,A0               
00000B38: 4A68 FB78       'Jh.x'          TST.W    -$0488(A0)          
00000B3C: 6600 FF7E       'f..~'          BNE      *-$0080             ; 00000ABC
00000B40: 6010            '`.'            BRA.S    *+$0012             ; 00000B52
00000B42: 2F3C 0000 27F2  '/<..'.'        MOVE.L   #$000027F2,-(A7)    
00000B48: 2F2D FB6E       '/-.n'          MOVE.L   -$0492(A5),-(A7)    
00000B4C: 4EAD 04FA       'N...'          JSR      $04FA(A5)           
00000B50: 508F            'P.'            ADDQ.L   #$8,A7              
00000B52: 4878 0064       'Hx.d'          PEA      $0064               
00000B56: 702C            'p,'            MOVEQ    #$2C,D0             ; ','
00000B58: C1C6            '..'            MULS.W   D6,D0               
00000B5A: 204D            ' M'            MOVEA.L  A5,A0               
00000B5C: D1C0            '..'            ADDA.L   D0,A0               
00000B5E: 2F28 FBC0       '/(..'          MOVE.L   -$0440(A0),-(A7)    
00000B62: 2F03            '/.'            MOVE.L   D3,-(A7)            
00000B64: 4EAD 0042       'N..B'          JSR      $0042(A5)           
00000B68: 2F00            '/.'            MOVE.L   D0,-(A7)            
00000B6A: 4EAD 005A       'N..Z'          JSR      $005A(A5)           
00000B6E: 2F00            '/.'            MOVE.L   D0,-(A7)            
00000B70: 702C            'p,'            MOVEQ    #$2C,D0             ; ','
00000B72: C1C6            '..'            MULS.W   D6,D0               
00000B74: 204D            ' M'            MOVEA.L  A5,A0               
00000B76: D1C0            '..'            ADDA.L   D0,A0               
00000B78: 2F28 FBBC       '/(..'          MOVE.L   -$0444(A0),-(A7)    
00000B7C: 4EBA FA52       'N..R'          JSR      *-$05AC             ; 000005D0
00000B80: C1FC 000C       '....'          MULS.W   #$000C,D0           
00000B84: 204D            ' M'            MOVEA.L  A5,A0               
00000B86: D1C0            '..'            ADDA.L   D0,A0               
00000B88: 2EA8 FAB6       '....'          MOVE.L   -$054A(A0),(A7)     
00000B8C: 702C            'p,'            MOVEQ    #$2C,D0             ; ','
00000B8E: C1C6            '..'            MULS.W   D6,D0               
00000B90: 204D            ' M'            MOVEA.L  A5,A0               
00000B92: D1C0            '..'            ADDA.L   D0,A0               
00000B94: 2F28 FBBC       '/(..'          MOVE.L   -$0444(A0),-(A7)    
00000B98: 2F3C 0000 27FA  '/<..'.'        MOVE.L   #$000027FA,-(A7)    
00000B9E: 2F2D FB6E       '/-.n'          MOVE.L   -$0492(A5),-(A7)    
00000BA2: 4EAD 04FA       'N...'          JSR      $04FA(A5)           
00000BA6: 4FEF 0014       'O...'          LEA      $0014(A7),A7        
00000BAA: 5246            'RF'            ADDQ.W   #$1,D6              
00000BAC: 0C46 0014       '.F..'          CMPI.W   #$0014,D6           
00000BB0: 6D00 FE14       'm...'          BLT      *-$01EA             ; 000009C6
00000BB4: 4A46            'JF'            TST.W    D6                  
00000BB6: 6610            'f.'            BNE.S    *+$0012             ; 00000BC8
00000BB8: 2F3C 0000 2824  '/<..($'        MOVE.L   #$00002824,-(A7)    
00000BBE: 2F2D FB6E       '/-.n'          MOVE.L   -$0492(A5),-(A7)    
00000BC2: 4EAD 04FA       'N...'          JSR      $04FA(A5)           
00000BC6: 508F            'P.'            ADDQ.L   #$8,A7              
00000BC8: 4A6D FB6A       'Jm.j'          TST.W    -$0496(A5)          
00000BCC: 6D14            'm.'            BLT.S    *+$0016             ; 00000BE2
00000BCE: 2F2E FFF8       '/...'          MOVE.L   -$0008(A6),-(A7)    
00000BD2: 2F2E FFFC       '/...'          MOVE.L   -$0004(A6),-(A7)    
00000BD6: 2F2D FB6E       '/-.n'          MOVE.L   -$0492(A5),-(A7)    
00000BDA: A9D1            '..'            _TESetSelect                     ; A9D1
00000BDC: 2F2D FB6E       '/-.n'          MOVE.L   -$0492(A5),-(A7)    
00000BE0: A9D8            '..'            _TEActivate                     ; A9D8
00000BE2: 4CDF 10F8       'L...'          MOVEM.L  (A7)+,D3-D7/A4      
00000BE6: 4E5E            'N^'            UNLK     A6                  
00000BE8: 4E75            'Nu'            RTS                          
00000BEA: 8C46            '.F'            OR.W     D6,D6               
00000BEC: 6F72            'or'            BLE.S    *+$0074             ; 00000C60
00000BEE: 6D61            'ma'            BLT.S    *+$0063             ; 00000C51
00000BF0: 7454            'tT'            MOVEQ    #$54,D2             ; 'T'
00000BF2: 6F70            'op'            BLE.S    *+$0072             ; 00000C64
00000BF4: 5465            'Te'            ADDQ.W   #$2,-(A5)           
00000BF6: 6E00 0000       'n...'          BGT      *+$0002             ; 00000BF8
00000BFA: 4E56 FFF8       'NV..'          LINK     A6,#$FFF8           
00000BFE: 2F07            '/.'            MOVE.L   D7,-(A7)            
00000C00: 486E FFFC       'Hn..'          PEA      -$0004(A6)          
00000C04: A972            '.r'            _GetMouse                     ; A972
00000C06: 4267            'Bg'            CLR.W    -(A7)               
00000C08: 2F2E FFFC       '/...'          MOVE.L   -$0004(A6),-(A7)    
00000C0C: 2F2D FF2C       '/-.,'          MOVE.L   -$00D4(A5),-(A7)    
00000C10: 486E FFF8       'Hn..'          PEA      -$0008(A6)          
00000C14: A96C            '.l'            _FindControl                     ; A96C
00000C16: 301F            '0.'            MOVE.W   (A7)+,D0            
00000C18: 6760            'g`'            BEQ.S    *+$0062             ; 00000C7A
00000C1A: 6B5E            'k^'            BMI.S    *+$0060             ; 00000C7A
00000C1C: 0440 0081       '.@..'          SUBI.W   #$0081,D0           
00000C20: 6720            'g '            BEQ.S    *+$0022             ; 00000C42
00000C22: 6A56            'jV'            BPL.S    *+$0058             ; 00000C7A
00000C24: 0440 FF97       '.@..'          SUBI.W   #$FF97,D0           
00000C28: 6A50            'jP'            BPL.S    *+$0052             ; 00000C7A
00000C2A: 5840            'X@'            ADDQ.W   #$4,D0              
00000C2C: 6B4C            'kL'            BMI.S    *+$004E             ; 00000C7A
00000C2E: 4267            'Bg'            CLR.W    -(A7)               
00000C30: 2F2E FFF8       '/...'          MOVE.L   -$0008(A6),-(A7)    
00000C34: 2F2E FFFC       '/...'          MOVE.L   -$0004(A6),-(A7)    
00000C38: 486D 00B2       'Hm..'          PEA      $00B2(A5)           
00000C3C: A968            '.h'            _TrackControl                     ; A968
00000C3E: 548F            'T.'            ADDQ.L   #$2,A7              
00000C40: 6038            '`8'            BRA.S    *+$003A             ; 00000C7A
00000C42: 4267            'Bg'            CLR.W    -(A7)               
00000C44: 2F2D FF30       '/-.0'          MOVE.L   -$00D0(A5),-(A7)    
00000C48: A960            '.`'            _GetCtlValue                     ; A960
00000C4A: 3E1F            '>.'            MOVE.W   (A7)+,D7            
00000C4C: 4267            'Bg'            CLR.W    -(A7)               
00000C4E: 2F2E FFF8       '/...'          MOVE.L   -$0008(A6),-(A7)    
00000C52: 2F2E FFFC       '/...'          MOVE.L   -$0004(A6),-(A7)    
00000C56: 42A7            'B.'            CLR.L    -(A7)               
00000C58: A968            '.h'            _TrackControl                     ; A968
00000C5A: 4257            'BW'            CLR.W    (A7)                
00000C5C: 4267            'Bg'            CLR.W    -(A7)               
00000C5E: 2F2D FF30       '/-.0'          MOVE.L   -$00D0(A5),-(A7)    
00000C62: A960            '.`'            _GetCtlValue                     ; A960
00000C64: 206D FB6E       ' m.n'          MOVEA.L  -$0492(A5),A0       
00000C68: 2050            ' P'            MOVEA.L  (A0),A0             
00000C6A: 3007            '0.'            MOVE.W   D7,D0               
00000C6C: 905F            '._'            SUB.W    (A7)+,D0            
00000C6E: C1E8 0018       '....'          MULS.W   $0018(A0),D0        
00000C72: 3F00            '?.'            MOVE.W   D0,-(A7)            
00000C74: 2F2D FB6E       '/-.n'          MOVE.L   -$0492(A5),-(A7)    
00000C78: A9DD            '..'            _TEScroll                     ; A9DD
00000C7A: 2E1F            '..'            MOVE.L   (A7)+,D7            
00000C7C: 4E5E            'N^'            UNLK     A6                  
00000C7E: 4E75            'Nu'            RTS                          
00000C80: 8854            '.T'            OR.W     (A4),D4             
00000C82: 5473 6372 6F6C  'Tscrol'        ADDQ.W   #$2,([$6F6C6C00,A3],$0000) 
          6C00 0000       'l...'  
00000C8C: 4E56 0000       'NV..'          LINK     A6,#$0000           
00000C90: 48E7 1F08       'H...'          MOVEM.L  D3-D7/A4,-(A7)      
00000C94: 1E2E 0009       '....'          MOVE.B   $0009(A6),D7        
00000C98: 4A2D FBBA       'J-..'          TST.B    -$0446(A5)          
00000C9C: 6600 01F0       'f...'          BNE      *+$01F2             ; 00000E8E
00000CA0: 1B7C 0001 FBBA  '.|....'        MOVE.B   #$01,-$0446(A5)     
00000CA6: 4AAD 9676       'J..v'          TST.L    -$698A(A5)          
00000CAA: 6700 01E2       'g...'          BEQ      *+$01E4             ; 00000E8E
00000CAE: 4A2D FB68       'J-.h'          TST.B    -$0498(A5)          
00000CB2: 660A            'f.'            BNE.S    *+$000C             ; 00000CBE
00000CB4: 4EBA 01EC       'N...'          JSR      *+$01EE             ; 00000EA2
00000CB8: 4A40            'J@'            TST.W    D0                  
00000CBA: 6700 01D2       'g...'          BEQ      *+$01D4             ; 00000E8E
00000CBE: 4A6D 9688       'Jm..'          TST.W    -$6978(A5)          
00000CC2: 6706            'g.'            BEQ.S    *+$0008             ; 00000CCA
00000CC4: 4A6D 9686       'Jm..'          TST.W    -$697A(A5)          
00000CC8: 661A            'f.'            BNE.S    *+$001C             ; 00000CE4
00000CCA: 4878 0004       'Hx..'          PEA      $0004               
00000CCE: 4878 0003       'Hx..'          PEA      $0003               
00000CD2: 2F2D 9676       '/-.v'          MOVE.L   -$698A(A5),-(A7)    
00000CD6: 4EAD 0042       'N..B'          JSR      $0042(A5)           
00000CDA: 2F00            '/.'            MOVE.L   D0,-(A7)            
00000CDC: 4EAD 005A       'N..Z'          JSR      $005A(A5)           
00000CE0: 2800            '(.'            MOVE.L   D0,D4               
00000CE2: 6004            '`.'            BRA.S    *+$0006             ; 00000CE8
00000CE4: 282D 9676       '(-.v'          MOVE.L   -$698A(A5),D4       
00000CE8: 7C00            '|.'            MOVEQ    #$00,D6             
00000CEA: 6000 019A       '`...'          BRA      *+$019C             ; 00000E86
00000CEE: 702C            'p,'            MOVEQ    #$2C,D0             ; ','
00000CF0: C1C6            '..'            MULS.W   D6,D0               
00000CF2: 204D            ' M'            MOVEA.L  A5,A0               
00000CF4: D1C0            '..'            ADDA.L   D0,A0               
00000CF6: B8A8 FBBC       '....'          CMP.L    -$0444(A0),D4       
00000CFA: 6D00 0188       'm...'          BLT      *+$018A             ; 00000E84
00000CFE: 7A13            'z.'            MOVEQ    #$13,D5             
00000D00: 6026            '`&'            BRA.S    *+$0028             ; 00000D28
00000D02: 70FF            'p.'            MOVEQ    #$FF,D0             
00000D04: D045            '.E'            ADD.W    D5,D0               
00000D06: C1FC 002C       '...,'          MULS.W   #$002C,D0           
00000D0A: 204D            ' M'            MOVEA.L  A5,A0               
00000D0C: D1C0            '..'            ADDA.L   D0,A0               
00000D0E: 702C            'p,'            MOVEQ    #$2C,D0             ; ','
00000D10: C1C5            '..'            MULS.W   D5,D0               
00000D12: 224D            '"M'            MOVEA.L  A5,A1               
00000D14: D3C0            '..'            ADDA.L   D0,A1               
00000D16: 43E9 FBBC       'C...'          LEA      -$0444(A1),A1       
00000D1A: 41E8 FBBC       'A...'          LEA      -$0444(A0),A0       
00000D1E: 700A            'p.'            MOVEQ    #$0A,D0             
00000D20: 22D8            '".'            MOVE.L   (A0)+,(A1)+         
00000D22: 51C8 FFFC       'Q...'          DBF      D0,*-$0002          ; 00000D20
00000D26: 5345            'SE'            SUBQ.W   #$1,D5              
00000D28: BC45            '.E'            CMP.W    D5,D6               
00000D2A: 6DD6            'm.'            BLT.S    *-$0028             ; 00000D02
00000D2C: 4A6D 9688       'Jm..'          TST.W    -$6978(A5)          
00000D30: 6706            'g.'            BEQ.S    *+$0008             ; 00000D38
00000D32: 4A6D 9686       'Jm..'          TST.W    -$697A(A5)          
00000D36: 660E            'f.'            BNE.S    *+$0010             ; 00000D46
00000D38: 702C            'p,'            MOVEQ    #$2C,D0             ; ','
00000D3A: C1C6            '..'            MULS.W   D6,D0               
00000D3C: 204D            ' M'            MOVEA.L  A5,A0               
00000D3E: D1C0            '..'            ADDA.L   D0,A0               
00000D40: 2144 FBBC       '!D..'          MOVE.L   D4,-$0444(A0)       
00000D44: 600E            '`.'            BRA.S    *+$0010             ; 00000D54
00000D46: 702C            'p,'            MOVEQ    #$2C,D0             ; ','
00000D48: C1C6            '..'            MULS.W   D6,D0               
00000D4A: 204D            ' M'            MOVEA.L  A5,A0               
00000D4C: D1C0            '..'            ADDA.L   D0,A0               
00000D4E: 216D 9676 FBBC  '!m.v..'        MOVE.L   -$698A(A5),-$0444(A0) 
00000D54: 702C            'p,'            MOVEQ    #$2C,D0             ; ','
00000D56: C1C6            '..'            MULS.W   D6,D0               
00000D58: 204D            ' M'            MOVEA.L  A5,A0               
00000D5A: D1C0            '..'            ADDA.L   D0,A0               
00000D5C: 216D 967E FBC0  '!m.~..'        MOVE.L   -$6982(A5),-$0440(A0) 
00000D62: 702C            'p,'            MOVEQ    #$2C,D0             ; ','
00000D64: C1C6            '..'            MULS.W   D6,D0               
00000D66: 204D            ' M'            MOVEA.L  A5,A0               
00000D68: D1C0            '..'            ADDA.L   D0,A0               
00000D6A: 316D 968A FBC4  '1m....'        MOVE.W   -$6976(A5),-$043C(A0) 
00000D70: A850            '.P'            _InitCursor                     ; A850
00000D72: 702C            'p,'            MOVEQ    #$2C,D0             ; ','
00000D74: C1C6            '..'            MULS.W   D6,D0               
00000D76: 204D            ' M'            MOVEA.L  A5,A0               
00000D78: D1C0            '..'            ADDA.L   D0,A0               
00000D7A: 4868 FBC8       'Hh..'          PEA      -$0438(A0)          
00000D7E: 4EBA 0378       'N..x'          JSR      *+$037A             ; 000010F8
00000D82: 1600            '..'            MOVE.B   D0,D3               
00000D84: 206D 9B70       ' m.p'          MOVEA.L  -$6490(A5),A0       
00000D88: 2E90            '..'            MOVE.L   (A0),(A7)           
00000D8A: A851            '.Q'            _SetCursor                     ; A851
00000D8C: 702C            'p,'            MOVEQ    #$2C,D0             ; ','
00000D8E: C1C6            '..'            MULS.W   D6,D0               
00000D90: 204D            ' M'            MOVEA.L  A5,A0               
00000D92: D1C0            '..'            ADDA.L   D0,A0               
00000D94: 4268 FBC6       'Bh..'          CLR.W    -$043A(A0)          
00000D98: 4A6D 9688       'Jm..'          TST.W    -$6978(A5)          
00000D9C: 6706            'g.'            BEQ.S    *+$0008             ; 00000DA4
00000D9E: 4A6D 9686       'Jm..'          TST.W    -$697A(A5)          
00000DA2: 6610            'f.'            BNE.S    *+$0012             ; 00000DB4
00000DA4: 702C            'p,'            MOVEQ    #$2C,D0             ; ','
00000DA6: C1C6            '..'            MULS.W   D6,D0               
00000DA8: 204D            ' M'            MOVEA.L  A5,A0               
00000DAA: D1C0            '..'            ADDA.L   D0,A0               
00000DAC: 0068 0008 FBC6  '.h....'        ORI.W    #$0008,-$043A(A0)   
00000DB2: 6012            '`.'            BRA.S    *+$0014             ; 00000DC6
00000DB4: 4A07            'J.'            TST.B    D7                  
00000DB6: 670E            'g.'            BEQ.S    *+$0010             ; 00000DC6
00000DB8: 702C            'p,'            MOVEQ    #$2C,D0             ; ','
00000DBA: C1C6            '..'            MULS.W   D6,D0               
00000DBC: 204D            ' M'            MOVEA.L  A5,A0               
00000DBE: D1C0            '..'            ADDA.L   D0,A0               
00000DC0: 0068 0010 FBC6  '.h....'        ORI.W    #$0010,-$043A(A0)   
00000DC6: 7A00            'z.'            MOVEQ    #$00,D5             
00000DC8: 6060            '``'            BRA.S    *+$0062             ; 00000E2A
00000DCA: 7006            'p.'            MOVEQ    #$06,D0             
00000DCC: C1C5            '..'            MULS.W   D5,D0               
00000DCE: 204D            ' M'            MOVEA.L  A5,A0               
00000DD0: D1C0            '..'            ADDA.L   D0,A0               
00000DD2: 2F28 FBA4       '/(..'          MOVE.L   -$045C(A0),-(A7)    
00000DD6: 4EAD 00F2       'N...'          JSR      $00F2(A5)           
00000DDA: 3E80            '>.'            MOVE.W   D0,(A7)             
00000DDC: 2F2D 9672       '/-.r'          MOVE.L   -$698E(A5),-(A7)    
00000DE0: 4EAD 00D2       'N...'          JSR      $00D2(A5)           
00000DE4: 2840            '(@'            MOVEA.L  D0,A4               
00000DE6: 200C            ' .'            MOVE.L   A4,D0               
00000DE8: 508F            'P.'            ADDQ.L   #$8,A7              
00000DEA: 673C            'g<'            BEQ.S    *+$003E             ; 00000E28
00000DEC: 082C 0006 0009  '.,....'        BTST     #$06,$0009(A4)      
00000DF2: 671C            'g.'            BEQ.S    *+$001E             ; 00000E10
00000DF4: 7006            'p.'            MOVEQ    #$06,D0             
00000DF6: C1C5            '..'            MULS.W   D5,D0               
00000DF8: 204D            ' M'            MOVEA.L  A5,A0               
00000DFA: D1C0            '..'            ADDA.L   D0,A0               
00000DFC: 3028 FBA2       '0(..'          MOVE.W   -$045E(A0),D0       
00000E00: EB48            '.H'            LSL.W    #$5,D0              
00000E02: 722C            'r,'            MOVEQ    #$2C,D1             ; ','
00000E04: C3C6            '..'            MULS.W   D6,D1               
00000E06: 204D            ' M'            MOVEA.L  A5,A0               
00000E08: D1C1            '..'            ADDA.L   D1,A0               
00000E0A: 8168 FBC6       '.h..'          OR.W     D0,-$043A(A0)       
00000E0E: 6018            '`.'            BRA.S    *+$001A             ; 00000E28
00000E10: 7006            'p.'            MOVEQ    #$06,D0             
00000E12: C1C5            '..'            MULS.W   D5,D0               
00000E14: 204D            ' M'            MOVEA.L  A5,A0               
00000E16: D1C0            '..'            ADDA.L   D0,A0               
00000E18: 702C            'p,'            MOVEQ    #$2C,D0             ; ','
00000E1A: C1C6            '..'            MULS.W   D6,D0               
00000E1C: 3228 FBA2       '2(..'          MOVE.W   -$045E(A0),D1       
00000E20: 204D            ' M'            MOVEA.L  A5,A0               
00000E22: D1C0            '..'            ADDA.L   D0,A0               
00000E24: 8368 FBC6       '.h..'          OR.W     D1,-$043A(A0)       
00000E28: 5245            'RE'            ADDQ.W   #$1,D5              
00000E2A: 7006            'p.'            MOVEQ    #$06,D0             
00000E2C: C1C5            '..'            MULS.W   D5,D0               
00000E2E: 204D            ' M'            MOVEA.L  A5,A0               
00000E30: D1C0            '..'            ADDA.L   D0,A0               
00000E32: 4AA8 FBA4       'J...'          TST.L    -$045C(A0)          
00000E36: 6692            'f.'            BNE.S    *-$006C             ; 00000DCA
00000E38: 4EBA 018A       'N...'          JSR      *+$018C             ; 00000FC4
00000E3C: 4A03            'J.'            TST.B    D3                  
00000E3E: 674E            'gN'            BEQ.S    *+$0050             ; 00000E8E
00000E40: 3B46 FB6A       ';F.j'          MOVE.W   D6,-$0496(A5)       
00000E44: 1B7C 0001 FB76  '.|...v'        MOVE.B   #$01,-$048A(A5)     
00000E4A: 4AAD FB72       'J..r'          TST.L    -$048E(A5)          
00000E4E: 670A            'g.'            BEQ.S    *+$000C             ; 00000E5A
00000E50: 206D FB72       ' m.r'          MOVEA.L  -$048E(A5),A0       
00000E54: A023            '.#'            _DisposeHandle                     ; A023
00000E56: 42AD FB72       'B..r'          CLR.L    -$048E(A5)          
00000E5A: 4A07            'J.'            TST.B    D7                  
00000E5C: 6610            'f.'            BNE.S    *+$0012             ; 00000E6E
00000E5E: 702C            'p,'            MOVEQ    #$2C,D0             ; ','
00000E60: C1C6            '..'            MULS.W   D6,D0               
00000E62: 204D            ' M'            MOVEA.L  A5,A0               
00000E64: D1C0            '..'            ADDA.L   D0,A0               
00000E66: 0828 0003 FBC7  '.(....'        BTST     #$03,-$0439(A0)     
00000E6C: 6704            'g.'            BEQ.S    *+$0006             ; 00000E72
00000E6E: 7000            'p.'            MOVEQ    #$00,D0             
00000E70: 6002            '`.'            BRA.S    *+$0004             ; 00000E74
00000E72: 7001            'p.'            MOVEQ    #$01,D0             
00000E74: 3F00            '?.'            MOVE.W   D0,-(A7)            
00000E76: 7000            'p.'            MOVEQ    #$00,D0             
00000E78: 1007            '..'            MOVE.B   D7,D0               
00000E7A: 3F00            '?.'            MOVE.W   D0,-(A7)            
00000E7C: 4EBA F7C0       'N...'          JSR      *-$083E             ; 0000063E
00000E80: 588F            'X.'            ADDQ.L   #$4,A7              
00000E82: 600A            '`.'            BRA.S    *+$000C             ; 00000E8E
00000E84: 5246            'RF'            ADDQ.W   #$1,D6              
00000E86: 0C46 0014       '.F..'          CMPI.W   #$0014,D6           
00000E8A: 6D00 FE62       'm..b'          BLT      *-$019C             ; 00000CEE
00000E8E: 4CDF 10F8       'L...'          MOVEM.L  (A7)+,D3-D7/A4      
00000E92: 4E5E            'N^'            UNLK     A6                  
00000E94: 4E75            'Nu'            RTS                          
00000E96: 8953            '.S'            OR.W     D4,(A3)             
00000E98: 6176            'av'            BSR.S    *+$0078             ; 00000F10
00000E9A: 6553            'eS'            BCS.S    *+$0055             ; 00000EEF
00000E9C: 7461            'ta'            MOVEQ    #$61,D2             ; 'a'
00000E9E: 7473            'ts'            MOVEQ    #$73,D2             ; 's'
00000EA0: 0000 4E56       '..NV'          ORI.B    #$4E56,D0           ; 'V'
00000EA4: FFCC            '..'            DC.W     $FFCC               ; ????
00000EA6: 48E7 0300       'H...'          MOVEM.L  D6/D7,-(A7)         
00000EAA: 7C00            '|.'            MOVEQ    #$00,D6             
00000EAC: 42AE FFD8       'B...'          CLR.L    -$0028(A6)          
00000EB0: 2D7C 0000 2844  '-|..(D'        MOVE.L   #$00002844,-$0022(A6) 
          FFDE            '..'    
00000EB8: 3D6D FB66 FFE2  '=m.f..'        MOVE.W   -$049A(A5),-$001E(A6) 
00000EBE: 422E FFE6       'B...'          CLR.B    -$001A(A6)          
00000EC2: 1D7C 0001 FFE7  '.|....'        MOVE.B   #$01,-$0019(A6)     
00000EC8: 42AE FFE8       'B...'          CLR.L    -$0018(A6)          
00000ECC: 4267            'Bg'            CLR.W    -(A7)               
00000ECE: 486E FFCC       'Hn..'          PEA      -$0034(A6)          
00000ED2: 4227            'B''            CLR.B    -(A7)               
00000ED4: 4EAD 0162       'N..b'          JSR      $0162(A5)           
00000ED8: 3E1F            '>.'            MOVE.W   (A7)+,D7            
00000EDA: 4A47            'JG'            TST.W    D7                  
00000EDC: 6604            'f.'            BNE.S    *+$0006             ; 00000EE2
00000EDE: 7C01            '|.'            MOVEQ    #$01,D6             
00000EE0: 602C            '`,'            BRA.S    *+$002E             ; 00000F0E
00000EE2: 0C47 FFD5       '.G..'          CMPI.W   #$FFD5,D7           
00000EE6: 6722            'g"'            BEQ.S    *+$0024             ; 00000F0A
00000EE8: 2F3C 0000 2850  '/<..(P'        MOVE.L   #$00002850,-(A7)    
00000EEE: 2F3C 0000 2852  '/<..(R'        MOVE.L   #$00002852,-(A7)    
00000EF4: 2F3C 0000 2854  '/<..(T'        MOVE.L   #$00002854,-(A7)    
00000EFA: 2F3C 0000 2860  '/<..(`'        MOVE.L   #$00002860,-(A7)    
00000F00: 4EAD 051A       'N...'          JSR      $051A(A5)           
00000F04: 7000            'p.'            MOVEQ    #$00,D0             
00000F06: 6000 00AA       '`...'          BRA      *+$00AC             ; 00000FB2
00000F0A: 4EBA 00B8       'N...'          JSR      *+$00BA             ; 00000FC4
00000F0E: 4267            'Bg'            CLR.W    -(A7)               
00000F10: 2F3C 0000 2882  '/<..(.'        MOVE.L   #$00002882,-(A7)    
00000F16: A997            '..'            _OpenResFile                     ; A997
00000F18: 4257            'BW'            CLR.W    (A7)                
00000F1A: A9AF            '..'            _ResError                     ; A9AF
00000F1C: 4A5F            'J_'            TST.W    (A7)+               
00000F1E: 673A            'g:'            BEQ.S    *+$003C             ; 00000F5A
00000F20: 2F3C 0000 288E  '/<..(.'        MOVE.L   #$0000288E,-(A7)    
00000F26: A9B1            '..'            _CreateResFile                     ; A9B1
00000F28: 4267            'Bg'            CLR.W    -(A7)               
00000F2A: 2F3C 0000 289A  '/<..(.'        MOVE.L   #$0000289A,-(A7)    
00000F30: A997            '..'            _OpenResFile                     ; A997
00000F32: 4257            'BW'            CLR.W    (A7)                
00000F34: A9AF            '..'            _ResError                     ; A9AF
00000F36: 4A5F            'J_'            TST.W    (A7)+               
00000F38: 6720            'g '            BEQ.S    *+$0022             ; 00000F5A
00000F3A: 2F3C 0000 28A6  '/<..(.'        MOVE.L   #$000028A6,-(A7)    
00000F40: 2F3C 0000 28A8  '/<..(.'        MOVE.L   #$000028A8,-(A7)    
00000F46: 2F3C 0000 28AA  '/<..(.'        MOVE.L   #$000028AA,-(A7)    
00000F4C: 2F3C 0000 28B6  '/<..(.'        MOVE.L   #$000028B6,-(A7)    
00000F52: 4EAD 051A       'N...'          JSR      $051A(A5)           
00000F56: 4FEF 0010       'O...'          LEA      $0010(A7),A7        
00000F5A: 4A06            'J.'            TST.B    D6                  
00000F5C: 674C            'gL'            BEQ.S    *+$004E             ; 00000FAA
00000F5E: 41ED FBBC       'A...'          LEA      -$0444(A5),A0       
00000F62: 2D48 FFEC       '-H..'          MOVE.L   A0,-$0014(A6)       
00000F66: 2D7C 0000 0370  '-|...p'        MOVE.L   #$00000370,-$0010(A6) 
          FFF0            '..'    
00000F6E: 3D7C 0001 FFF8  '=|....'        MOVE.W   #$0001,-$0008(A6)   
00000F74: 42AE FFFA       'B...'          CLR.L    -$0006(A6)          
00000F78: 486E FFCC       'Hn..'          PEA      -$0034(A6)          
00000F7C: 4EAD 05CA       'N...'          JSR      $05CA(A5)           
00000F80: 4A40            'J@'            TST.W    D0                  
00000F82: 588F            'X.'            ADDQ.L   #$4,A7              
00000F84: 6604            'f.'            BNE.S    *+$0006             ; 00000F8A
00000F86: 7000            'p.'            MOVEQ    #$00,D0             
00000F88: 6028            '`('            BRA.S    *+$002A             ; 00000FB2
00000F8A: 4267            'Bg'            CLR.W    -(A7)               
00000F8C: 486E FFCC       'Hn..'          PEA      -$0034(A6)          
00000F90: 4227            'B''            CLR.B    -(A7)               
00000F92: 4EAD 016A       'N..j'          JSR      $016A(A5)           
00000F96: 3E1F            '>.'            MOVE.W   (A7)+,D7            
00000F98: 4A47            'JG'            TST.W    D7                  
00000F9A: 670E            'g.'            BEQ.S    *+$0010             ; 00000FAA
00000F9C: 3F07            '?.'            MOVE.W   D7,-(A7)            
00000F9E: 2F3C 0000 28DE  '/<..(.'        MOVE.L   #$000028DE,-(A7)    
00000FA4: 4EAD 05B2       'N...'          JSR      $05B2(A5)           
00000FA8: 5C8F            '\.'            ADDQ.L   #$6,A7              
00000FAA: 1B7C 0001 FB68  '.|...h'        MOVE.B   #$01,-$0498(A5)     
00000FB0: 7001            'p.'            MOVEQ    #$01,D0             
00000FB2: 4CEE 00C0 FFC4  'L.....'        MOVEM.L  -$003C(A6),D6/D7    
00000FB8: 4E5E            'N^'            UNLK     A6                  
00000FBA: 4E75            'Nu'            RTS                          
00000FBC: 8547 6574       '.Get'          PACK     D7,D2,#$6574        
00000FC0: 656D            'em'            BCS.S    *+$006F             ; 0000102F
00000FC2: 0000 4E56       '..NV'          ORI.B    #$4E56,D0           ; 'V'
00000FC6: FF64            '.d'            DC.W     $FF64               ; ????
00000FC8: 48E7 0108       'H...'          MOVEM.L  D7/A4,-(A7)         
00000FCC: 49EE FF64       'I..d'          LEA      -$009C(A6),A4       
00000FD0: 42AC 000C       'B...'          CLR.L    $000C(A4)           
00000FD4: 297C 0000 28F2  ')|..(.'        MOVE.L   #$000028F2,$0012(A4) 
          0012            '..'    
00000FDC: 396D FB66 0016  '9m.f..'        MOVE.W   -$049A(A5),$0016(A4) 
00000FE2: 422C 001A       'B,..'          CLR.B    $001A(A4)           
00000FE6: 197C 0002 001B  '.|....'        MOVE.B   #$02,$001B(A4)      
00000FEC: 42AC 001C       'B...'          CLR.L    $001C(A4)           
00000FF0: 4267            'Bg'            CLR.W    -(A7)               
00000FF2: 2F0C            '/.'            MOVE.L   A4,-(A7)            
00000FF4: 4227            'B''            CLR.B    -(A7)               
00000FF6: 4EAD 0162       'N..b'          JSR      $0162(A5)           
00000FFA: 3E1F            '>.'            MOVE.W   (A7)+,D7            
00000FFC: 4A47            'JG'            TST.W    D7                  
00000FFE: 6728            'g('            BEQ.S    *+$002A             ; 00001028
00001000: 0C47 FFD5       '.G..'          CMPI.W   #$FFD5,D7           
00001004: 6722            'g"'            BEQ.S    *+$0024             ; 00001028
00001006: 2F3C 0000 28FE  '/<..(.'        MOVE.L   #$000028FE,-(A7)    
0000100C: 2F3C 0000 2900  '/<..).'        MOVE.L   #$00002900,-(A7)    
00001012: 2F3C 0000 2902  '/<..).'        MOVE.L   #$00002902,-(A7)    
00001018: 2F3C 0000 290E  '/<..).'        MOVE.L   #$0000290E,-(A7)    
0000101E: 4EAD 051A       'N...'          JSR      $051A(A5)           
00001022: 7000            'p.'            MOVEQ    #$00,D0             
00001024: 6000 00C0       '`...'          BRA      *+$00C2             ; 000010E6
00001028: 0C47 FFD5       '.G..'          CMPI.W   #$FFD5,D7           
0000102C: 666E            'fn'            BNE.S    *+$0070             ; 0000109C
0000102E: 2F3C 0000 2930  '/<..)0'        MOVE.L   #$00002930,-(A7)    
00001034: 486E FFC0       'Hn..'          PEA      -$0040(A6)          
00001038: 4EAD 04C2       'N...'          JSR      $04C2(A5)           
0000103C: 426E FFBC       'Bn..'          CLR.W    -$0044(A6)          
00001040: 426E FFBE       'Bn..'          CLR.W    -$0042(A6)          
00001044: 486E FFB6       'Hn..'          PEA      -$004A(A6)          
00001048: 2F3C 5353 5253  '/<SSRS'        MOVE.L   #$53535253,-(A7)    ; 'SSRS'
0000104E: 2F0C            '/.'            MOVE.L   A4,-(A7)            
00001050: 4EAD 05AA       'N...'          JSR      $05AA(A5)           
00001054: 4A40            'J@'            TST.W    D0                  
00001056: 4FEF 0014       'O...'          LEA      $0014(A7),A7        
0000105A: 6606            'f.'            BNE.S    *+$0008             ; 00001062
0000105C: 7000            'p.'            MOVEQ    #$00,D0             
0000105E: 6000 0086       '`...'          BRA      *+$0088             ; 000010E6
00001062: 197C 0002 001B  '.|....'        MOVE.B   #$02,$001B(A4)      
00001068: 42AC 001C       'B...'          CLR.L    $001C(A4)           
0000106C: 4267            'Bg'            CLR.W    -(A7)               
0000106E: 2F0C            '/.'            MOVE.L   A4,-(A7)            
00001070: 4227            'B''            CLR.B    -(A7)               
00001072: 4EAD 0162       'N..b'          JSR      $0162(A5)           
00001076: 3E1F            '>.'            MOVE.W   (A7)+,D7            
00001078: 4A47            'JG'            TST.W    D7                  
0000107A: 6720            'g '            BEQ.S    *+$0022             ; 0000109C
0000107C: 2F3C 0000 293C  '/<..)<'        MOVE.L   #$0000293C,-(A7)    
00001082: 2F3C 0000 293E  '/<..)>'        MOVE.L   #$0000293E,-(A7)    
00001088: 2F3C 0000 2940  '/<..)@'        MOVE.L   #$00002940,-(A7)    
0000108E: 2F3C 0000 294C  '/<..)L'        MOVE.L   #$0000294C,-(A7)    
00001094: 4EAD 051A       'N...'          JSR      $051A(A5)           
00001098: 7000            'p.'            MOVEQ    #$00,D0             
0000109A: 604A            '`J'            BRA.S    *+$004C             ; 000010E6
0000109C: 41ED FBBC       'A...'          LEA      -$0444(A5),A0       
000010A0: 2948 0020       ')H. '          MOVE.L   A0,$0020(A4)        
000010A4: 297C 0000 0370  ')|...p'        MOVE.L   #$00000370,$0024(A4) 
          0024            '.$'    
000010AC: 397C 0001 002C  '9|...,'        MOVE.W   #$0001,$002C(A4)    
000010B2: 42AC 002E       'B...'          CLR.L    $002E(A4)           
000010B6: 2F0C            '/.'            MOVE.L   A4,-(A7)            
000010B8: 4EAD 05BA       'N...'          JSR      $05BA(A5)           
000010BC: 4A40            'J@'            TST.W    D0                  
000010BE: 588F            'X.'            ADDQ.L   #$4,A7              
000010C0: 6604            'f.'            BNE.S    *+$0006             ; 000010C6
000010C2: 7000            'p.'            MOVEQ    #$00,D0             
000010C4: 6020            '` '            BRA.S    *+$0022             ; 000010E6
000010C6: 4267            'Bg'            CLR.W    -(A7)               
000010C8: 2F0C            '/.'            MOVE.L   A4,-(A7)            
000010CA: 4227            'B''            CLR.B    -(A7)               
000010CC: 4EAD 016A       'N..j'          JSR      $016A(A5)           
000010D0: 3E1F            '>.'            MOVE.W   (A7)+,D7            
000010D2: 4A47            'JG'            TST.W    D7                  
000010D4: 670E            'g.'            BEQ.S    *+$0010             ; 000010E4
000010D6: 3F07            '?.'            MOVE.W   D7,-(A7)            
000010D8: 2F3C 0000 296E  '/<..)n'        MOVE.L   #$0000296E,-(A7)    
000010DE: 4EAD 05B2       'N...'          JSR      $05B2(A5)           
000010E2: 5C8F            '\.'            ADDQ.L   #$6,A7              
000010E4: 7001            'p.'            MOVEQ    #$01,D0             
000010E6: 4CEE 1080 FF5C  'L....\'        MOVEM.L  -$00A4(A6),D7/A4    
000010EC: 4E5E            'N^'            UNLK     A6                  
000010EE: 4E75            'Nu'            RTS                          
000010F0: 8550            '.P'            OR.W     D2,(A0)             
000010F2: 7574            'ut'            DC.W     $7574               ; ????
000010F4: 656D            'em'            BCS.S    *+$006F             ; 00001163
000010F6: 0000 4E56       '..NV'          ORI.B    #$4E56,D0           ; 'V'
000010FA: FE46            '.F'            DC.W     $FE46               ; ????
000010FC: 48E7 0138       'H..8'          MOVEM.L  D7/A2-A4,-(A7)      
00001100: 286E 0008       '(n..'          MOVEA.L  $0008(A6),A4        
00001104: 2E3C 0000 2982  '.<..).'        MOVE.L   #$00002982,D7       
0000110A: 42A7            'B.'            CLR.L    -(A7)               
0000110C: 2F3C 4E61 6D65  '/<Name'        MOVE.L   #$4E616D65,-(A7)    ; 'Name'
00001112: 3F3C 0080       '?<..'          MOVE.W   #$0080,-(A7)        
00001116: A9A0            '..'            _GetResource                     ; A9A0
00001118: 245F            '$_'            MOVEA.L  (A7)+,A2            
0000111A: 200A            ' .'            MOVE.L   A2,D0               
0000111C: 6724            'g$'            BEQ.S    *+$0026             ; 00001142
0000111E: 4267            'Bg'            CLR.W    -(A7)               
00001120: A9AF            '..'            _ResError                     ; A9AF
00001122: 4A5F            'J_'            TST.W    (A7)+               
00001124: 661C            'f.'            BNE.S    *+$001E             ; 00001142
00001126: 204A            ' J'            MOVEA.L  A2,A0               
00001128: A04A            '.J'            _HNoPurge                     ; A04A
0000112A: 42A7            'B.'            CLR.L    -(A7)               
0000112C: 2F0A            '/.'            MOVE.L   A2,-(A7)            
0000112E: A9A5            '..'            _SizeRsrc                     ; A9A5
00001130: 201F            ' .'            MOVE.L   (A7)+,D0            
00001132: 1880            '..'            MOVE.B   D0,(A4)             
00001134: 43EC 0001       'C...'          LEA      $0001(A4),A1        
00001138: 7000            'p.'            MOVEQ    #$00,D0             
0000113A: 1014            '..'            MOVE.B   (A4),D0             
0000113C: 2052            ' R'            MOVEA.L  (A2),A0             
0000113E: A02E            '..'            _BlockMove                     ; A02E
00001140: 600A            '`.'            BRA.S    *+$000C             ; 0000114C
00001142: 2F07            '/.'            MOVE.L   D7,-(A7)            
00001144: 2F0C            '/.'            MOVE.L   A4,-(A7)            
00001146: 4EAD 04C2       'N...'          JSR      $04C2(A5)           
0000114A: 508F            'P.'            ADDQ.L   #$8,A7              
0000114C: 42A7            'B.'            CLR.L    -(A7)               
0000114E: 3F3C 3973       '?<9s'          MOVE.W   #$3973,-(A7)        ; '9s'
00001152: 486E FF56       'Hn.V'          PEA      -$00AA(A6)          
00001156: 4878 FFFF       'Hx..'          PEA      $FFFF               
0000115A: A97C            '.|'            _GetNewDialog                     ; A97C
0000115C: 265F            '&_'            MOVEA.L  (A7)+,A3            
0000115E: 200B            ' .'            MOVE.L   A3,D0               
00001160: 6626            'f&'            BNE.S    *+$0028             ; 00001188
00001162: 2F3C 0000 2992  '/<..).'        MOVE.L   #$00002992,-(A7)    
00001168: 2F3C 0000 2994  '/<..).'        MOVE.L   #$00002994,-(A7)    
0000116E: 2F3C 0000 2996  '/<..).'        MOVE.L   #$00002996,-(A7)    
00001174: 2F3C 0000 2998  '/<..).'        MOVE.L   #$00002998,-(A7)    
0000117A: 4EAD 051A       'N...'          JSR      $051A(A5)           
0000117E: 204A            ' J'            MOVEA.L  A2,A0               
00001180: A049            '.I'            _HPurge                      ; A049
00001182: 7001            'p.'            MOVEQ    #$01,D0             
00001184: 6000 011C       '`...'          BRA      *+$011E             ; 000012A2
00001188: 2F0B            '/.'            MOVE.L   A3,-(A7)            
0000118A: 3F3C 0003       '?<..'          MOVE.W   #$0003,-(A7)        
0000118E: 486E FF46       'Hn.F'          PEA      -$00BA(A6)          
00001192: 486E FF52       'Hn.R'          PEA      -$00AE(A6)          
00001196: 486E FF4A       'Hn.J'          PEA      -$00B6(A6)          
0000119A: A98D            '..'            _GetDItem                     ; A98D
0000119C: 2F2E FF52       '/..R'          MOVE.L   -$00AE(A6),-(A7)    
000011A0: 2F0C            '/.'            MOVE.L   A4,-(A7)            
000011A2: A98F            '..'            _SetIText                     ; A98F
000011A4: 2F0B            '/.'            MOVE.L   A3,-(A7)            
000011A6: 4878 0003       'Hx..'          PEA      $0003               
000011AA: 3F3C 7FFF       '?<..'          MOVE.W   #$7FFF,-(A7)        
000011AE: A97E            '.~'            _SelIText                     ; A97E
000011B0: 2F0B            '/.'            MOVE.L   A3,-(A7)            
000011B2: 4EAD 0432       'N..2'          JSR      $0432(A5)           
000011B6: 2E8B            '..'            MOVE.L   A3,(A7)             
000011B8: A915            '..'            _ShowWindow                     ; A915
000011BA: 42A7            'B.'            CLR.L    -(A7)               
000011BC: 486E FF48       'Hn.H'          PEA      -$00B8(A6)          
000011C0: A991            '..'            _ModalDialog                     ; A991
000011C2: 2F0B            '/.'            MOVE.L   A3,-(A7)            
000011C4: 3F3C 0003       '?<..'          MOVE.W   #$0003,-(A7)        
000011C8: 486E FF46       'Hn.F'          PEA      -$00BA(A6)          
000011CC: 486E FF52       'Hn.R'          PEA      -$00AE(A6)          
000011D0: 486E FF4A       'Hn.J'          PEA      -$00B6(A6)          
000011D4: A98D            '..'            _GetDItem                     ; A98D
000011D6: 2F2E FF52       '/..R'          MOVE.L   -$00AE(A6),-(A7)    
000011DA: 486E FE46       'Hn.F'          PEA      -$01BA(A6)          
000011DE: A990            '..'            _GetIText                     ; A990
000011E0: 4A2E FE46       'J..F'          TST.B    -$01BA(A6)          
000011E4: 660C            'f.'            BNE.S    *+$000E             ; 000011F2
000011E6: 2F07            '/.'            MOVE.L   D7,-(A7)            
000011E8: 486E FE46       'Hn.F'          PEA      -$01BA(A6)          
000011EC: 4EAD 04C2       'N...'          JSR      $04C2(A5)           
000011F0: 508F            'P.'            ADDQ.L   #$8,A7              
000011F2: 200A            ' .'            MOVE.L   A2,D0               
000011F4: 6738            'g8'            BEQ.S    *+$003A             ; 0000122E
000011F6: 2F0C            '/.'            MOVE.L   A4,-(A7)            
000011F8: 486E FE46       'Hn.F'          PEA      -$01BA(A6)          
000011FC: 4EAD 04CA       'N...'          JSR      $04CA(A5)           
00001200: 4A40            'J@'            TST.W    D0                  
00001202: 508F            'P.'            ADDQ.L   #$8,A7              
00001204: 6628            'f('            BNE.S    *+$002A             ; 0000122E
00001206: 7000            'p.'            MOVEQ    #$00,D0             
00001208: 102E FE46       '...F'          MOVE.B   -$01BA(A6),D0       
0000120C: 204A            ' J'            MOVEA.L  A2,A0               
0000120E: A024            '.$'            _SetHandleSize                     ; A024
00001210: 4A78 0220       'Jx. '          TST.W    $0220               
00001214: 6652            'fR'            BNE.S    *+$0054             ; 00001268
00001216: 41EE FE47       'A..G'          LEA      -$01B9(A6),A0       
0000121A: 7000            'p.'            MOVEQ    #$00,D0             
0000121C: 102E FE46       '...F'          MOVE.B   -$01BA(A6),D0       
00001220: 2252            '"R'            MOVEA.L  (A2),A1             
00001222: A02E            '..'            _BlockMove                     ; A02E
00001224: 2F0A            '/.'            MOVE.L   A2,-(A7)            
00001226: A9AA            '..'            _ChangedResource                     ; A9AA
00001228: 2F0A            '/.'            MOVE.L   A2,-(A7)            
0000122A: A9B0            '..'            _WriteResource                     ; A9B0
0000122C: 603A            '`:'            BRA.S    *+$003C             ; 00001268
0000122E: 200A            ' .'            MOVE.L   A2,D0               
00001230: 6636            'f6'            BNE.S    *+$0038             ; 00001268
00001232: 7000            'p.'            MOVEQ    #$00,D0             
00001234: 102E FE46       '...F'          MOVE.B   -$01BA(A6),D0       
00001238: A122            '."'            _NewHandle                     ; A122
0000123A: 2448            '$H'            MOVEA.L  A0,A2               
0000123C: 4A78 0220       'Jx. '          TST.W    $0220               
00001240: 6626            'f&'            BNE.S    *+$0028             ; 00001268
00001242: 41EE FE47       'A..G'          LEA      -$01B9(A6),A0       
00001246: 7000            'p.'            MOVEQ    #$00,D0             
00001248: 102E FE46       '...F'          MOVE.B   -$01BA(A6),D0       
0000124C: 2252            '"R'            MOVEA.L  (A2),A1             
0000124E: A02E            '..'            _BlockMove                     ; A02E
00001250: 2F0A            '/.'            MOVE.L   A2,-(A7)            
00001252: 2F3C 4E61 6D65  '/<Name'        MOVE.L   #$4E616D65,-(A7)    ; 'Name'
00001258: 3F3C 0080       '?<..'          MOVE.W   #$0080,-(A7)        
0000125C: 2F3C 0000 29B2  '/<..).'        MOVE.L   #$000029B2,-(A7)    
00001262: A9AB            '..'            _AddResource                     ; A9AB
00001264: 2F0A            '/.'            MOVE.L   A2,-(A7)            
00001266: A9B0            '..'            _WriteResource                     ; A9B0
00001268: 7000            'p.'            MOVEQ    #$00,D0             
0000126A: 102E FE46       '...F'          MOVE.B   -$01BA(A6),D0       
0000126E: 204E            ' N'            MOVEA.L  A6,A0               
00001270: D0C0            '..'            ADDA.W   D0,A0               
00001272: 4228 FE47       'B(.G'          CLR.B    -$01B9(A0)          
00001276: 4214            'B.'            CLR.B    (A4)                
00001278: 3F3C 0020       '?<. '          MOVE.W   #$0020,-(A7)        
0000127C: 486E FE47       'Hn.G'          PEA      -$01B9(A6)          
00001280: 2F0C            '/.'            MOVE.L   A4,-(A7)            
00001282: 4EAD 04D2       'N...'          JSR      $04D2(A5)           
00001286: 200A            ' .'            MOVE.L   A2,D0               
00001288: 4FEF 000A       'O...'          LEA      $000A(A7),A7        
0000128C: 6704            'g.'            BEQ.S    *+$0006             ; 00001292
0000128E: 204A            ' J'            MOVEA.L  A2,A0               
00001290: A049            '.I'            _HPurge                      ; A049
00001292: 2F0B            '/.'            MOVE.L   A3,-(A7)            
00001294: A982            '..'            _CloseDialog                     ; A982
00001296: 0C6E 0005 FF48  '.n...H'        CMPI.W   #$0005,-$00B8(A6)   
0000129C: 57C0            'W.'            SEQ      D0                  
0000129E: 4400            'D.'            NEG.B    D0                  
000012A0: 4880            'H.'            EXT.W    D0                  
000012A2: 4CEE 1C80 FE36  'L....6'        MOVEM.L  -$01CA(A6),D7/A2-A4 
000012A8: 4E5E            'N^'            UNLK     A6                  
000012AA: 4E75            'Nu'            RTS                          
000012AC: 8747 6574       '.Get'          PACK     D7,D3,#$6574        
000012B0: 4E61            'Na'            MOVE     A1,USP              
000012B2: 6D65            'me'            BLT.S    *+$0067             ; 00001319
000012B4: 0000 4E56       '..NV'          ORI.B    #$4E56,D0           ; 'V'
000012B8: 0000 422E       '..B.'          ORI.B    #$422E,D0           ; '.'
000012BC: 0014 4E5E       '..N^'          ORI.B    #$4E5E,(A4)         ; '^'
000012C0: 205F            ' _'            MOVEA.L  (A7)+,A0            
000012C2: 4FEF 000C       'O...'          LEA      $000C(A7),A7        
000012C6: 4ED0            'N.'            JMP      (A0)                
000012C8: 8854            '.T'            OR.W     (A4),D4             
000012CA: 5346            'SF'            SUBQ.W   #$1,D6              
000012CC: 696C            'il'            BVS.S    *+$006E             ; 0000133A
000012CE: 7465            'te'            MOVEQ    #$65,D2             ; 'e'
000012D0: 7200            'r.'            MOVEQ    #$00,D1             
000012D2: 0000 4E56       '..NV'          ORI.B    #$4E56,D0           ; 'V'
000012D6: FF54            '.T'            DC.W     $FF54               ; ????
000012D8: 2F0C            '/.'            MOVE.L   A4,-(A7)            
000012DA: 42A7            'B.'            CLR.L    -(A7)               
000012DC: 3F3C 0C66       '?<.f'          MOVE.W   #$0C66,-(A7)        
000012E0: 486E FF56       'Hn.V'          PEA      -$00AA(A6)          
000012E4: 4878 FFFF       'Hx..'          PEA      $FFFF               
000012E8: A97C            '.|'            _GetNewDialog                     ; A97C
000012EA: 285F            '(_'            MOVEA.L  (A7)+,A4            
000012EC: 42A7            'B.'            CLR.L    -(A7)               
000012EE: 486E FF54       'Hn.T'          PEA      -$00AC(A6)          
000012F2: A991            '..'            _ModalDialog                     ; A991
000012F4: 2F0C            '/.'            MOVE.L   A4,-(A7)            
000012F6: A982            '..'            _CloseDialog                     ; A982
000012F8: 302E FF54       '0..T'          MOVE.W   -$00AC(A6),D0       
000012FC: 285F            '(_'            MOVEA.L  (A7)+,A4            
000012FE: 4E5E            'N^'            UNLK     A6                  
00001300: 4E75            'Nu'            RTS                          
00001302: 8D46 696E       '.Fin'          PACK     D6,D6,#$696E        
00001306: 6454            'dT'            BCC.S    *+$0056             ; 0000135C
00001308: 6F70            'op'            BLE.S    *+$0072             ; 0000137A
0000130A: 5363            'Sc'            SUBQ.W   #$1,-(A3)           
0000130C: 6F72            'or'            BLE.S    *+$0074             ; 00001380
0000130E: 6573            'es'            BCS.S    *+$0075             ; 00001383
00001310: 0000            '..'            DC.W     $0000            

File: Scarab, Resource 23, Type: CODE
First jump table entry offset = $8580, Jump table entries used = 6
Segment size = $1410 [5136]
00000000: 4E56 FF5E       'NV.^'          LINK     A6,#$FF5E           
00000004: 48E7 0318       'H...'          MOVEM.L  D6/D7/A3/A4,-(A7)   
00000008: 49EE FFAC       'I...'          LEA      -$0054(A6),A4       
0000000C: 3D7C 0068 FF60  '=|.h.`'        MOVE.W   #$0068,-$00A0(A6)   
00000012: 3D7C 0028 FF5E  '=|.(.^'        MOVE.W   #$0028,-$00A2(A6)   
00000018: 4AAD FA82       'J...'          TST.L    -$057E(A5)          
0000001C: 661E            'f.'            BNE.S    *+$0020             ; 0000003C
0000001E: 2F2E FF5E       '/..^'          MOVE.L   -$00A2(A6),-(A7)    
00000022: 2F3C 0000 1DAC  '/<....'        MOVE.L   #$00001DAC,-(A7)    
00000028: 2F3C 0000 1DBA  '/<....'        MOVE.L   #$00001DBA,-(A7)    
0000002E: 42A7            'B.'            CLR.L    -(A7)               
00000030: 486E FF62       'Hn.b'          PEA      -$009E(A6)          
00000034: 3F3C 0001       '?<..'          MOVE.W   #$0001,-(A7)        
00000038: A9EA            '..'            _Pack3                       ; A9EA
0000003A: 601A            '`.'            BRA.S    *+$001C             ; 00000056
0000003C: 2F2E FF5E       '/..^'          MOVE.L   -$00A2(A6),-(A7)    
00000040: 2F3C 0000 1DC6  '/<....'        MOVE.L   #$00001DC6,-(A7)    
00000046: 2F2D FA82       '/-..'          MOVE.L   -$057E(A5),-(A7)    
0000004A: 42A7            'B.'            CLR.L    -(A7)               
0000004C: 486E FF62       'Hn.b'          PEA      -$009E(A6)          
00000050: 3F3C 0001       '?<..'          MOVE.W   #$0001,-(A7)        
00000054: A9EA            '..'            _Pack3                       ; A9EA
00000056: 4A2E FF62       'J..b'          TST.B    -$009E(A6)          
0000005A: 6700 0800       'g...'          BEQ      *+$0802             ; 0000085C
0000005E: 486E FF62       'Hn.b'          PEA      -$009E(A6)          
00000062: 2F3C 5353 5246  '/<SSRF'        MOVE.L   #$53535246,-(A7)    ; 'SSRF'
00000068: 486E FFAC       'Hn..'          PEA      -$0054(A6)          
0000006C: 4EBA 0D5A       'N..Z'          JSR      *+$0D5C             ; 00000DC8
00000070: 4A40            'J@'            TST.W    D0                  
00000072: 4FEF 000C       'O...'          LEA      $000C(A7),A7        
00000076: 6700 07E4       'g...'          BEQ      *+$07E6             ; 0000085C
0000007A: 197C 0003 001B  '.|....'        MOVE.B   #$03,$001B(A4)      
00000080: 42AC 001C       'B...'          CLR.L    $001C(A4)           
00000084: 4267            'Bg'            CLR.W    -(A7)               
00000086: 2F0C            '/.'            MOVE.L   A4,-(A7)            
00000088: 4227            'B''            CLR.B    -(A7)               
0000008A: 4EAD 0162       'N..b'          JSR      $0162(A5)           
0000008E: 3C1F            '<.'            MOVE.W   (A7)+,D6            
00000090: 4A46            'JF'            TST.W    D6                  
00000092: 6716            'g.'            BEQ.S    *+$0018             ; 000000AA
00000094: 3F06            '?.'            MOVE.W   D6,-(A7)            
00000096: 2F3C 0000 1DD4  '/<....'        MOVE.L   #$00001DD4,-(A7)    
0000009C: 4EBA 1190       'N...'          JSR      *+$1192             ; 0000122E
000000A0: 2E8C            '..'            MOVE.L   A4,(A7)             
000000A2: 4EBA 12BA       'N...'          JSR      *+$12BC             ; 0000135E
000000A6: 6000 07B4       '`...'          BRA      *+$07B6             ; 0000085C
000000AA: 4AAD 9672       'J..r'          TST.L    -$698E(A5)          
000000AE: 671A            'g.'            BEQ.S    *+$001C             ; 000000CA
000000B0: 4878 001C       'Hx..'          PEA      $001C               
000000B4: 41ED 9B78       'A..x'          LEA      -$6488(A5),A0       
000000B8: 202D 9672       ' -.r'          MOVE.L   -$698E(A5),D0       
000000BC: 9088            '..'            SUB.L    A0,D0               
000000BE: 2F00            '/.'            MOVE.L   D0,-(A7)            
000000C0: 4EAD 005A       'N..Z'          JSR      $005A(A5)           
000000C4: 2B40 9672       '+@.r'          MOVE.L   D0,-$698E(A5)       
000000C8: 6006            '`.'            BRA.S    *+$0008             ; 000000D0
000000CA: 70FF            'p.'            MOVEQ    #$FF,D0             
000000CC: 2B40 9672       '+@.r'          MOVE.L   D0,-$698E(A5)       
000000D0: 2D7C 0001 0004  '-|....'        MOVE.L   #$00010004,-$0004(A6) 
          FFFC            '..'    
000000D8: 41EE FFFC       'A...'          LEA      -$0004(A6),A0       
000000DC: 2948 0020       ')H. '          MOVE.L   A0,$0020(A4)        
000000E0: 7004            'p.'            MOVEQ    #$04,D0             
000000E2: 2940 0024       ')@.$'          MOVE.L   D0,$0024(A4)        
000000E6: 397C 0001 002C  '9|...,'        MOVE.W   #$0001,$002C(A4)    
000000EC: 42AC 002E       'B...'          CLR.L    $002E(A4)           
000000F0: 2F0C            '/.'            MOVE.L   A4,-(A7)            
000000F2: 4EBA 116C       'N..l'          JSR      *+$116E             ; 00001260
000000F6: 4A40            'J@'            TST.W    D0                  
000000F8: 588F            'X.'            ADDQ.L   #$4,A7              
000000FA: 6700 0736       'g..6'          BEQ      *+$0738             ; 00000832
000000FE: 41ED 9672       'A..r'          LEA      -$698E(A5),A0       
00000102: 2948 0020       ')H. '          MOVE.L   A0,$0020(A4)        
00000106: 7004            'p.'            MOVEQ    #$04,D0             
00000108: 2940 0024       ')@.$'          MOVE.L   D0,$0024(A4)        
0000010C: 397C 0001 002C  '9|...,'        MOVE.W   #$0001,$002C(A4)    
00000112: 297C 0000 4C94  ')|..L.'        MOVE.L   #$00004C94,$002E(A4) 
          002E            '..'    
0000011A: 2F0C            '/.'            MOVE.L   A4,-(A7)            
0000011C: 4EBA 1142       'N..B'          JSR      *+$1144             ; 00001260
00000120: 4A40            'J@'            TST.W    D0                  
00000122: 588F            'X.'            ADDQ.L   #$4,A7              
00000124: 6700 070C       'g...'          BEQ      *+$070E             ; 00000832
00000128: 41ED 9676       'A..v'          LEA      -$698A(A5),A0       
0000012C: 2948 0020       ')H. '          MOVE.L   A0,$0020(A4)        
00000130: 7004            'p.'            MOVEQ    #$04,D0             
00000132: 2940 0024       ')@.$'          MOVE.L   D0,$0024(A4)        
00000136: 426C 002C       'Bl.,'          CLR.W    $002C(A4)           
0000013A: 2F0C            '/.'            MOVE.L   A4,-(A7)            
0000013C: 4EBA 1122       'N.."'          JSR      *+$1124             ; 00001260
00000140: 4A40            'J@'            TST.W    D0                  
00000142: 588F            'X.'            ADDQ.L   #$4,A7              
00000144: 6700 06EC       'g...'          BEQ      *+$06EE             ; 00000832
00000148: 41ED 967A       'A..z'          LEA      -$6986(A5),A0       
0000014C: 2948 0020       ')H. '          MOVE.L   A0,$0020(A4)        
00000150: 7004            'p.'            MOVEQ    #$04,D0             
00000152: 2940 0024       ')@.$'          MOVE.L   D0,$0024(A4)        
00000156: 426C 002C       'Bl.,'          CLR.W    $002C(A4)           
0000015A: 2F0C            '/.'            MOVE.L   A4,-(A7)            
0000015C: 4EBA 1102       'N...'          JSR      *+$1104             ; 00001260
00000160: 4A40            'J@'            TST.W    D0                  
00000162: 588F            'X.'            ADDQ.L   #$4,A7              
00000164: 6700 06CC       'g...'          BEQ      *+$06CE             ; 00000832
00000168: 41ED 967E       'A..~'          LEA      -$6982(A5),A0       
0000016C: 2948 0020       ')H. '          MOVE.L   A0,$0020(A4)        
00000170: 7004            'p.'            MOVEQ    #$04,D0             
00000172: 2940 0024       ')@.$'          MOVE.L   D0,$0024(A4)        
00000176: 426C 002C       'Bl.,'          CLR.W    $002C(A4)           
0000017A: 2F0C            '/.'            MOVE.L   A4,-(A7)            
0000017C: 4EBA 10E2       'N...'          JSR      *+$10E4             ; 00001260
00000180: 4A40            'J@'            TST.W    D0                  
00000182: 588F            'X.'            ADDQ.L   #$4,A7              
00000184: 6700 06AC       'g...'          BEQ      *+$06AE             ; 00000832
00000188: 41ED 9B48       'A..H'          LEA      -$64B8(A5),A0       
0000018C: 2948 0020       ')H. '          MOVE.L   A0,$0020(A4)        
00000190: 7002            'p.'            MOVEQ    #$02,D0             
00000192: 2940 0024       ')@.$'          MOVE.L   D0,$0024(A4)        
00000196: 426C 002C       'Bl.,'          CLR.W    $002C(A4)           
0000019A: 2F0C            '/.'            MOVE.L   A4,-(A7)            
0000019C: 4EBA 10C2       'N...'          JSR      *+$10C4             ; 00001260
000001A0: 4A40            'J@'            TST.W    D0                  
000001A2: 588F            'X.'            ADDQ.L   #$4,A7              
000001A4: 6700 068C       'g...'          BEQ      *+$068E             ; 00000832
000001A8: 41ED 9B4A       'A..J'          LEA      -$64B6(A5),A0       
000001AC: 2948 0020       ')H. '          MOVE.L   A0,$0020(A4)        
000001B0: 7002            'p.'            MOVEQ    #$02,D0             
000001B2: 2940 0024       ')@.$'          MOVE.L   D0,$0024(A4)        
000001B6: 426C 002C       'Bl.,'          CLR.W    $002C(A4)           
000001BA: 2F0C            '/.'            MOVE.L   A4,-(A7)            
000001BC: 4EBA 10A2       'N...'          JSR      *+$10A4             ; 00001260
000001C0: 4A40            'J@'            TST.W    D0                  
000001C2: 588F            'X.'            ADDQ.L   #$4,A7              
000001C4: 6700 066C       'g..l'          BEQ      *+$066E             ; 00000832
000001C8: 41ED 9682       'A...'          LEA      -$697E(A5),A0       
000001CC: 2948 0020       ')H. '          MOVE.L   A0,$0020(A4)        
000001D0: 7002            'p.'            MOVEQ    #$02,D0             
000001D2: 2940 0024       ')@.$'          MOVE.L   D0,$0024(A4)        
000001D6: 426C 002C       'Bl.,'          CLR.W    $002C(A4)           
000001DA: 2F0C            '/.'            MOVE.L   A4,-(A7)            
000001DC: 4EBA 1082       'N...'          JSR      *+$1084             ; 00001260
000001E0: 4A40            'J@'            TST.W    D0                  
000001E2: 588F            'X.'            ADDQ.L   #$4,A7              
000001E4: 6700 064C       'g..L'          BEQ      *+$064E             ; 00000832
000001E8: 41ED 9684       'A...'          LEA      -$697C(A5),A0       
000001EC: 2948 0020       ')H. '          MOVE.L   A0,$0020(A4)        
000001F0: 7002            'p.'            MOVEQ    #$02,D0             
000001F2: 2940 0024       ')@.$'          MOVE.L   D0,$0024(A4)        
000001F6: 426C 002C       'Bl.,'          CLR.W    $002C(A4)           
000001FA: 2F0C            '/.'            MOVE.L   A4,-(A7)            
000001FC: 4EBA 1062       'N..b'          JSR      *+$1064             ; 00001260
00000200: 4A40            'J@'            TST.W    D0                  
00000202: 588F            'X.'            ADDQ.L   #$4,A7              
00000204: 6700 062C       'g..,'          BEQ      *+$062E             ; 00000832
00000208: 41ED 9686       'A...'          LEA      -$697A(A5),A0       
0000020C: 2948 0020       ')H. '          MOVE.L   A0,$0020(A4)        
00000210: 7002            'p.'            MOVEQ    #$02,D0             
00000212: 2940 0024       ')@.$'          MOVE.L   D0,$0024(A4)        
00000216: 426C 002C       'Bl.,'          CLR.W    $002C(A4)           
0000021A: 2F0C            '/.'            MOVE.L   A4,-(A7)            
0000021C: 4EBA 1042       'N..B'          JSR      *+$1044             ; 00001260
00000220: 4A40            'J@'            TST.W    D0                  
00000222: 588F            'X.'            ADDQ.L   #$4,A7              
00000224: 6700 060C       'g...'          BEQ      *+$060E             ; 00000832
00000228: 41ED 9688       'A...'          LEA      -$6978(A5),A0       
0000022C: 2948 0020       ')H. '          MOVE.L   A0,$0020(A4)        
00000230: 7002            'p.'            MOVEQ    #$02,D0             
00000232: 2940 0024       ')@.$'          MOVE.L   D0,$0024(A4)        
00000236: 426C 002C       'Bl.,'          CLR.W    $002C(A4)           
0000023A: 2F0C            '/.'            MOVE.L   A4,-(A7)            
0000023C: 4EBA 1022       'N.."'          JSR      *+$1024             ; 00001260
00000240: 4A40            'J@'            TST.W    D0                  
00000242: 588F            'X.'            ADDQ.L   #$4,A7              
00000244: 6700 05EC       'g...'          BEQ      *+$05EE             ; 00000832
00000248: 41ED 968A       'A...'          LEA      -$6976(A5),A0       
0000024C: 2948 0020       ')H. '          MOVE.L   A0,$0020(A4)        
00000250: 7002            'p.'            MOVEQ    #$02,D0             
00000252: 2940 0024       ')@.$'          MOVE.L   D0,$0024(A4)        
00000256: 426C 002C       'Bl.,'          CLR.W    $002C(A4)           
0000025A: 2F0C            '/.'            MOVE.L   A4,-(A7)            
0000025C: 4EBA 1002       'N...'          JSR      *+$1004             ; 00001260
00000260: 4A40            'J@'            TST.W    D0                  
00000262: 588F            'X.'            ADDQ.L   #$4,A7              
00000264: 6700 05CC       'g...'          BEQ      *+$05CE             ; 00000832
00000268: 41ED 968C       'A...'          LEA      -$6974(A5),A0       
0000026C: 2948 0020       ')H. '          MOVE.L   A0,$0020(A4)        
00000270: 7002            'p.'            MOVEQ    #$02,D0             
00000272: 2940 0024       ')@.$'          MOVE.L   D0,$0024(A4)        
00000276: 426C 002C       'Bl.,'          CLR.W    $002C(A4)           
0000027A: 2F0C            '/.'            MOVE.L   A4,-(A7)            
0000027C: 4EBA 0FE2       'N...'          JSR      *+$0FE4             ; 00001260
00000280: 4A40            'J@'            TST.W    D0                  
00000282: 588F            'X.'            ADDQ.L   #$4,A7              
00000284: 6700 05AC       'g...'          BEQ      *+$05AE             ; 00000832
00000288: 41ED 968E       'A...'          LEA      -$6972(A5),A0       
0000028C: 2948 0020       ')H. '          MOVE.L   A0,$0020(A4)        
00000290: 7002            'p.'            MOVEQ    #$02,D0             
00000292: 2940 0024       ')@.$'          MOVE.L   D0,$0024(A4)        
00000296: 426C 002C       'Bl.,'          CLR.W    $002C(A4)           
0000029A: 2F0C            '/.'            MOVE.L   A4,-(A7)            
0000029C: 4EBA 0FC2       'N...'          JSR      *+$0FC4             ; 00001260
000002A0: 4A40            'J@'            TST.W    D0                  
000002A2: 588F            'X.'            ADDQ.L   #$4,A7              
000002A4: 6700 058C       'g...'          BEQ      *+$058E             ; 00000832
000002A8: 41ED EA20       'A.. '          LEA      -$15E0(A5),A0       
000002AC: 2948 0020       ')H. '          MOVE.L   A0,$0020(A4)        
000002B0: 7002            'p.'            MOVEQ    #$02,D0             
000002B2: 2940 0024       ')@.$'          MOVE.L   D0,$0024(A4)        
000002B6: 426C 002C       'Bl.,'          CLR.W    $002C(A4)           
000002BA: 2F0C            '/.'            MOVE.L   A4,-(A7)            
000002BC: 4EBA 0FA2       'N...'          JSR      *+$0FA4             ; 00001260
000002C0: 4A40            'J@'            TST.W    D0                  
000002C2: 588F            'X.'            ADDQ.L   #$4,A7              
000002C4: 6700 056C       'g..l'          BEQ      *+$056E             ; 00000832
000002C8: 41ED EA22       'A.."'          LEA      -$15DE(A5),A0       
000002CC: 2948 0020       ')H. '          MOVE.L   A0,$0020(A4)        
000002D0: 7002            'p.'            MOVEQ    #$02,D0             
000002D2: 2940 0024       ')@.$'          MOVE.L   D0,$0024(A4)        
000002D6: 426C 002C       'Bl.,'          CLR.W    $002C(A4)           
000002DA: 2F0C            '/.'            MOVE.L   A4,-(A7)            
000002DC: 4EBA 0F82       'N...'          JSR      *+$0F84             ; 00001260
000002E0: 4A40            'J@'            TST.W    D0                  
000002E2: 588F            'X.'            ADDQ.L   #$4,A7              
000002E4: 6700 054C       'g..L'          BEQ      *+$054E             ; 00000832
000002E8: 41ED 9690       'A...'          LEA      -$6970(A5),A0       
000002EC: 2948 0020       ')H. '          MOVE.L   A0,$0020(A4)        
000002F0: 7002            'p.'            MOVEQ    #$02,D0             
000002F2: 2940 0024       ')@.$'          MOVE.L   D0,$0024(A4)        
000002F6: 426C 002C       'Bl.,'          CLR.W    $002C(A4)           
000002FA: 2F0C            '/.'            MOVE.L   A4,-(A7)            
000002FC: 4EBA 0F62       'N..b'          JSR      *+$0F64             ; 00001260
00000300: 4A40            'J@'            TST.W    D0                  
00000302: 588F            'X.'            ADDQ.L   #$4,A7              
00000304: 6700 052C       'g..,'          BEQ      *+$052E             ; 00000832
00000308: 41ED 9692       'A...'          LEA      -$696E(A5),A0       
0000030C: 2948 0020       ')H. '          MOVE.L   A0,$0020(A4)        
00000310: 7002            'p.'            MOVEQ    #$02,D0             
00000312: 2940 0024       ')@.$'          MOVE.L   D0,$0024(A4)        
00000316: 426C 002C       'Bl.,'          CLR.W    $002C(A4)           
0000031A: 2F0C            '/.'            MOVE.L   A4,-(A7)            
0000031C: 4EBA 0F42       'N..B'          JSR      *+$0F44             ; 00001260
00000320: 4A40            'J@'            TST.W    D0                  
00000322: 588F            'X.'            ADDQ.L   #$4,A7              
00000324: 6700 050C       'g...'          BEQ      *+$050E             ; 00000832
00000328: 41ED EA24       'A..$'          LEA      -$15DC(A5),A0       
0000032C: 2948 0020       ')H. '          MOVE.L   A0,$0020(A4)        
00000330: 7002            'p.'            MOVEQ    #$02,D0             
00000332: 2940 0024       ')@.$'          MOVE.L   D0,$0024(A4)        
00000336: 426C 002C       'Bl.,'          CLR.W    $002C(A4)           
0000033A: 2F0C            '/.'            MOVE.L   A4,-(A7)            
0000033C: 4EBA 0F22       'N.."'          JSR      *+$0F24             ; 00001260
00000340: 4A40            'J@'            TST.W    D0                  
00000342: 588F            'X.'            ADDQ.L   #$4,A7              
00000344: 6700 04EC       'g...'          BEQ      *+$04EE             ; 00000832
00000348: 41ED 9694       'A...'          LEA      -$696C(A5),A0       
0000034C: 2948 0020       ')H. '          MOVE.L   A0,$0020(A4)        
00000350: 7002            'p.'            MOVEQ    #$02,D0             
00000352: 2940 0024       ')@.$'          MOVE.L   D0,$0024(A4)        
00000356: 426C 002C       'Bl.,'          CLR.W    $002C(A4)           
0000035A: 2F0C            '/.'            MOVE.L   A4,-(A7)            
0000035C: 4EBA 0F02       'N...'          JSR      *+$0F04             ; 00001260
00000360: 4A40            'J@'            TST.W    D0                  
00000362: 588F            'X.'            ADDQ.L   #$4,A7              
00000364: 6700 04CC       'g...'          BEQ      *+$04CE             ; 00000832
00000368: 41ED EA26       'A..&'          LEA      -$15DA(A5),A0       
0000036C: 2948 0020       ')H. '          MOVE.L   A0,$0020(A4)        
00000370: 7002            'p.'            MOVEQ    #$02,D0             
00000372: 2940 0024       ')@.$'          MOVE.L   D0,$0024(A4)        
00000376: 426C 002C       'Bl.,'          CLR.W    $002C(A4)           
0000037A: 2F0C            '/.'            MOVE.L   A4,-(A7)            
0000037C: 4EBA 0EE2       'N...'          JSR      *+$0EE4             ; 00001260
00000380: 4A40            'J@'            TST.W    D0                  
00000382: 588F            'X.'            ADDQ.L   #$4,A7              
00000384: 6700 04AC       'g...'          BEQ      *+$04AE             ; 00000832
00000388: 41ED 9696       'A...'          LEA      -$696A(A5),A0       
0000038C: 2948 0020       ')H. '          MOVE.L   A0,$0020(A4)        
00000390: 7002            'p.'            MOVEQ    #$02,D0             
00000392: 2940 0024       ')@.$'          MOVE.L   D0,$0024(A4)        
00000396: 426C 002C       'Bl.,'          CLR.W    $002C(A4)           
0000039A: 2F0C            '/.'            MOVE.L   A4,-(A7)            
0000039C: 4EBA 0EC2       'N...'          JSR      *+$0EC4             ; 00001260
000003A0: 4A40            'J@'            TST.W    D0                  
000003A2: 588F            'X.'            ADDQ.L   #$4,A7              
000003A4: 6700 048C       'g...'          BEQ      *+$048E             ; 00000832
000003A8: 41ED 9698       'A...'          LEA      -$6968(A5),A0       
000003AC: 2948 0020       ')H. '          MOVE.L   A0,$0020(A4)        
000003B0: 7001            'p.'            MOVEQ    #$01,D0             
000003B2: 2940 0024       ')@.$'          MOVE.L   D0,$0024(A4)        
000003B6: 426C 002C       'Bl.,'          CLR.W    $002C(A4)           
000003BA: 2F0C            '/.'            MOVE.L   A4,-(A7)            
000003BC: 4EBA 0EA2       'N...'          JSR      *+$0EA4             ; 00001260
000003C0: 4A40            'J@'            TST.W    D0                  
000003C2: 588F            'X.'            ADDQ.L   #$4,A7              
000003C4: 6700 046C       'g..l'          BEQ      *+$046E             ; 00000832
000003C8: 41ED 9699       'A...'          LEA      -$6967(A5),A0       
000003CC: 2948 0020       ')H. '          MOVE.L   A0,$0020(A4)        
000003D0: 7001            'p.'            MOVEQ    #$01,D0             
000003D2: 2940 0024       ')@.$'          MOVE.L   D0,$0024(A4)        
000003D6: 426C 002C       'Bl.,'          CLR.W    $002C(A4)           
000003DA: 2F0C            '/.'            MOVE.L   A4,-(A7)            
000003DC: 4EBA 0E82       'N...'          JSR      *+$0E84             ; 00001260
000003E0: 4A40            'J@'            TST.W    D0                  
000003E2: 588F            'X.'            ADDQ.L   #$4,A7              
000003E4: 6700 044C       'g..L'          BEQ      *+$044E             ; 00000832
000003E8: 41ED 969A       'A...'          LEA      -$6966(A5),A0       
000003EC: 2948 0020       ')H. '          MOVE.L   A0,$0020(A4)        
000003F0: 7001            'p.'            MOVEQ    #$01,D0             
000003F2: 2940 0024       ')@.$'          MOVE.L   D0,$0024(A4)        
000003F6: 426C 002C       'Bl.,'          CLR.W    $002C(A4)           
000003FA: 2F0C            '/.'            MOVE.L   A4,-(A7)            
000003FC: 4EBA 0E62       'N..b'          JSR      *+$0E64             ; 00001260
00000400: 4A40            'J@'            TST.W    D0                  
00000402: 588F            'X.'            ADDQ.L   #$4,A7              
00000404: 6700 042C       'g..,'          BEQ      *+$042E             ; 00000832
00000408: 41ED 969B       'A...'          LEA      -$6965(A5),A0       
0000040C: 2948 0020       ')H. '          MOVE.L   A0,$0020(A4)        
00000410: 7001            'p.'            MOVEQ    #$01,D0             
00000412: 2940 0024       ')@.$'          MOVE.L   D0,$0024(A4)        
00000416: 426C 002C       'Bl.,'          CLR.W    $002C(A4)           
0000041A: 2F0C            '/.'            MOVE.L   A4,-(A7)            
0000041C: 4EBA 0E42       'N..B'          JSR      *+$0E44             ; 00001260
00000420: 4A40            'J@'            TST.W    D0                  
00000422: 588F            'X.'            ADDQ.L   #$4,A7              
00000424: 6700 040C       'g...'          BEQ      *+$040E             ; 00000832
00000428: 41ED 969C       'A...'          LEA      -$6964(A5),A0       
0000042C: 2948 0020       ')H. '          MOVE.L   A0,$0020(A4)        
00000430: 7001            'p.'            MOVEQ    #$01,D0             
00000432: 2940 0024       ')@.$'          MOVE.L   D0,$0024(A4)        
00000436: 426C 002C       'Bl.,'          CLR.W    $002C(A4)           
0000043A: 2F0C            '/.'            MOVE.L   A4,-(A7)            
0000043C: 4EBA 0E22       'N.."'          JSR      *+$0E24             ; 00001260
00000440: 4A40            'J@'            TST.W    D0                  
00000442: 588F            'X.'            ADDQ.L   #$4,A7              
00000444: 6700 03EC       'g...'          BEQ      *+$03EE             ; 00000832
00000448: 41ED 969D       'A...'          LEA      -$6963(A5),A0       
0000044C: 2948 0020       ')H. '          MOVE.L   A0,$0020(A4)        
00000450: 7001            'p.'            MOVEQ    #$01,D0             
00000452: 2940 0024       ')@.$'          MOVE.L   D0,$0024(A4)        
00000456: 426C 002C       'Bl.,'          CLR.W    $002C(A4)           
0000045A: 2F0C            '/.'            MOVE.L   A4,-(A7)            
0000045C: 4EBA 0E02       'N...'          JSR      *+$0E04             ; 00001260
00000460: 4A40            'J@'            TST.W    D0                  
00000462: 588F            'X.'            ADDQ.L   #$4,A7              
00000464: 6700 03CC       'g...'          BEQ      *+$03CE             ; 00000832
00000468: 41ED 969E       'A...'          LEA      -$6962(A5),A0       
0000046C: 2948 0020       ')H. '          MOVE.L   A0,$0020(A4)        
00000470: 7001            'p.'            MOVEQ    #$01,D0             
00000472: 2940 0024       ')@.$'          MOVE.L   D0,$0024(A4)        
00000476: 426C 002C       'Bl.,'          CLR.W    $002C(A4)           
0000047A: 2F0C            '/.'            MOVE.L   A4,-(A7)            
0000047C: 4EBA 0DE2       'N...'          JSR      *+$0DE4             ; 00001260
00000480: 4A40            'J@'            TST.W    D0                  
00000482: 588F            'X.'            ADDQ.L   #$4,A7              
00000484: 6700 03AC       'g...'          BEQ      *+$03AE             ; 00000832
00000488: 41ED 969F       'A...'          LEA      -$6961(A5),A0       
0000048C: 2948 0020       ')H. '          MOVE.L   A0,$0020(A4)        
00000490: 7001            'p.'            MOVEQ    #$01,D0             
00000492: 2940 0024       ')@.$'          MOVE.L   D0,$0024(A4)        
00000496: 426C 002C       'Bl.,'          CLR.W    $002C(A4)           
0000049A: 2F0C            '/.'            MOVE.L   A4,-(A7)            
0000049C: 4EBA 0DC2       'N...'          JSR      *+$0DC4             ; 00001260
000004A0: 4A40            'J@'            TST.W    D0                  
000004A2: 588F            'X.'            ADDQ.L   #$4,A7              
000004A4: 6700 038C       'g...'          BEQ      *+$038E             ; 00000832
000004A8: 41ED 96A0       'A...'          LEA      -$6960(A5),A0       
000004AC: 2948 0020       ')H. '          MOVE.L   A0,$0020(A4)        
000004B0: 7001            'p.'            MOVEQ    #$01,D0             
000004B2: 2940 0024       ')@.$'          MOVE.L   D0,$0024(A4)        
000004B6: 426C 002C       'Bl.,'          CLR.W    $002C(A4)           
000004BA: 2F0C            '/.'            MOVE.L   A4,-(A7)            
000004BC: 4EBA 0DA2       'N...'          JSR      *+$0DA4             ; 00001260
000004C0: 4A40            'J@'            TST.W    D0                  
000004C2: 588F            'X.'            ADDQ.L   #$4,A7              
000004C4: 6700 036C       'g..l'          BEQ      *+$036E             ; 00000832
000004C8: 7E00            '~.'            MOVEQ    #$00,D7             
000004CA: 6000 00C0       '`...'          BRA      *+$00C2             ; 0000058C
000004CE: 2007            ' .'            MOVE.L   D7,D0               
000004D0: 48C0            'H.'            EXT.L    D0                  
000004D2: E988            '..'            LSL.L    #$4,D0              
000004D4: 204D            ' M'            MOVEA.L  A5,A0               
000004D6: D1C0            '..'            ADDA.L   D0,A0               
000004D8: 4AA8 C744       'J..D'          TST.L    -$38BC(A0)          
000004DC: 675E            'g^'            BEQ.S    *+$0060             ; 0000053C
000004DE: 2007            ' .'            MOVE.L   D7,D0               
000004E0: 48C0            'H.'            EXT.L    D0                  
000004E2: E988            '..'            LSL.L    #$4,D0              
000004E4: 204D            ' M'            MOVEA.L  A5,A0               
000004E6: D1C0            '..'            ADDA.L   D0,A0               
000004E8: 2668 C744       '&h.D'          MOVEA.L  -$38BC(A0),A3       
000004EC: 2F0C            '/.'            MOVE.L   A4,-(A7)            
000004EE: 2007            ' .'            MOVE.L   D7,D0               
000004F0: 48C0            'H.'            EXT.L    D0                  
000004F2: E988            '..'            LSL.L    #$4,D0              
000004F4: 204D            ' M'            MOVEA.L  A5,A0               
000004F6: D1C0            '..'            ADDA.L   D0,A0               
000004F8: 2F28 C744       '/(.D'          MOVE.L   -$38BC(A0),-(A7)    
000004FC: 4EBA 0C4A       'N..J'          JSR      *+$0C4C             ; 00001148
00000500: 2207            '".'            MOVE.L   D7,D1               
00000502: 48C1            'H.'            EXT.L    D1                  
00000504: E989            '..'            LSL.L    #$4,D1              
00000506: 204D            ' M'            MOVEA.L  A5,A0               
00000508: D1C1            '..'            ADDA.L   D1,A0               
0000050A: 2140 C744       '!@.D'          MOVE.L   D0,-$38BC(A0)       
0000050E: 2007            ' .'            MOVE.L   D7,D0               
00000510: 48C0            'H.'            EXT.L    D0                  
00000512: E988            '..'            LSL.L    #$4,D0              
00000514: 204D            ' M'            MOVEA.L  A5,A0               
00000516: D1C0            '..'            ADDA.L   D0,A0               
00000518: 4AA8 C744       'J..D'          TST.L    -$38BC(A0)          
0000051C: 508F            'P.'            ADDQ.L   #$8,A7              
0000051E: 661C            'f.'            BNE.S    *+$001E             ; 0000053C
00000520: 2007            ' .'            MOVE.L   D7,D0               
00000522: 48C0            'H.'            EXT.L    D0                  
00000524: E988            '..'            LSL.L    #$4,D0              
00000526: 204D            ' M'            MOVEA.L  A5,A0               
00000528: D1C0            '..'            ADDA.L   D0,A0               
0000052A: 214B C744       '!K.D'          MOVE.L   A3,-$38BC(A0)       
0000052E: 2F0C            '/.'            MOVE.L   A4,-(A7)            
00000530: 3F07            '?.'            MOVE.W   D7,-(A7)            
00000532: 4EBA 0984       'N...'          JSR      *+$0986             ; 00000EB8
00000536: 5C8F            '\.'            ADDQ.L   #$6,A7              
00000538: 6000 02F8       '`...'          BRA      *+$02FA             ; 00000832
0000053C: 2007            ' .'            MOVE.L   D7,D0               
0000053E: 48C0            'H.'            EXT.L    D0                  
00000540: E988            '..'            LSL.L    #$4,D0              
00000542: 204D            ' M'            MOVEA.L  A5,A0               
00000544: D1C0            '..'            ADDA.L   D0,A0               
00000546: 4AA8 C740       'J..@'          TST.L    -$38C0(A0)          
0000054A: 672E            'g.'            BEQ.S    *+$0030             ; 0000057A
0000054C: 4878 001C       'Hx..'          PEA      $001C               
00000550: 41ED 9B78       'A..x'          LEA      -$6488(A5),A0       
00000554: 2007            ' .'            MOVE.L   D7,D0               
00000556: 48C0            'H.'            EXT.L    D0                  
00000558: E988            '..'            LSL.L    #$4,D0              
0000055A: 224D            '"M'            MOVEA.L  A5,A1               
0000055C: D3C0            '..'            ADDA.L   D0,A1               
0000055E: 2029 C740       ' ).@'          MOVE.L   -$38C0(A1),D0       
00000562: 9088            '..'            SUB.L    A0,D0               
00000564: 2F00            '/.'            MOVE.L   D0,-(A7)            
00000566: 4EAD 005A       'N..Z'          JSR      $005A(A5)           
0000056A: 2207            '".'            MOVE.L   D7,D1               
0000056C: 48C1            'H.'            EXT.L    D1                  
0000056E: E989            '..'            LSL.L    #$4,D1              
00000570: 204D            ' M'            MOVEA.L  A5,A0               
00000572: D1C1            '..'            ADDA.L   D1,A0               
00000574: 2140 C740       '!@.@'          MOVE.L   D0,-$38C0(A0)       
00000578: 6010            '`.'            BRA.S    *+$0012             ; 0000058A
0000057A: 2007            ' .'            MOVE.L   D7,D0               
0000057C: 48C0            'H.'            EXT.L    D0                  
0000057E: E988            '..'            LSL.L    #$4,D0              
00000580: 204D            ' M'            MOVEA.L  A5,A0               
00000582: D1C0            '..'            ADDA.L   D0,A0               
00000584: 70FF            'p.'            MOVEQ    #$FF,D0             
00000586: 2140 C740       '!@.@'          MOVE.L   D0,-$38C0(A0)       
0000058A: 5247            'RG'            ADDQ.W   #$1,D7              
0000058C: 302D 968C       '0-..'          MOVE.W   -$6974(A5),D0       
00000590: C1ED 968E       '....'          MULS.W   -$6972(A5),D0       
00000594: B047            '.G'            CMP.W    D7,D0               
00000596: 6E00 FF36       'n..6'          BGT      *-$00C8             ; 000004CE
0000059A: 7E00            '~.'            MOVEQ    #$00,D7             
0000059C: 6000 015A       '`..Z'          BRA      *+$015C             ; 000006F8
000005A0: 701C            'p.'            MOVEQ    #$1C,D0             
000005A2: C1C7            '..'            MULS.W   D7,D0               
000005A4: 204D            ' M'            MOVEA.L  A5,A0               
000005A6: D1C0            '..'            ADDA.L   D0,A0               
000005A8: 0828 0005 9B82  '.(....'        BTST     #$05,-$647E(A0)     
000005AE: 6700 0146       'g..F'          BEQ      *+$0148             ; 000006F6
000005B2: 701C            'p.'            MOVEQ    #$1C,D0             
000005B4: C1C7            '..'            MULS.W   D7,D0               
000005B6: 204D            ' M'            MOVEA.L  A5,A0               
000005B8: D1C0            '..'            ADDA.L   D0,A0               
000005BA: 4AA8 9B84       'J...'          TST.L    -$647C(A0)          
000005BE: 6764            'gd'            BEQ.S    *+$0066             ; 00000624
000005C0: 701C            'p.'            MOVEQ    #$1C,D0             
000005C2: C1C7            '..'            MULS.W   D7,D0               
000005C4: 204D            ' M'            MOVEA.L  A5,A0               
000005C6: D1C0            '..'            ADDA.L   D0,A0               
000005C8: 2668 9B84       '&h..'          MOVEA.L  -$647C(A0),A3       
000005CC: 2F0C            '/.'            MOVE.L   A4,-(A7)            
000005CE: 701C            'p.'            MOVEQ    #$1C,D0             
000005D0: C1C7            '..'            MULS.W   D7,D0               
000005D2: 204D            ' M'            MOVEA.L  A5,A0               
000005D4: D1C0            '..'            ADDA.L   D0,A0               
000005D6: 2F28 9B84       '/(..'          MOVE.L   -$647C(A0),-(A7)    
000005DA: 4EBA 0B6C       'N..l'          JSR      *+$0B6E             ; 00001148
000005DE: 721C            'r.'            MOVEQ    #$1C,D1             
000005E0: C3C7            '..'            MULS.W   D7,D1               
000005E2: 204D            ' M'            MOVEA.L  A5,A0               
000005E4: D1C1            '..'            ADDA.L   D1,A0               
000005E6: 2140 9B84       '!@..'          MOVE.L   D0,-$647C(A0)       
000005EA: 701C            'p.'            MOVEQ    #$1C,D0             
000005EC: C1C7            '..'            MULS.W   D7,D0               
000005EE: 204D            ' M'            MOVEA.L  A5,A0               
000005F0: D1C0            '..'            ADDA.L   D0,A0               
000005F2: 4AA8 9B84       'J...'          TST.L    -$647C(A0)          
000005F6: 508F            'P.'            ADDQ.L   #$8,A7              
000005F8: 662A            'f*'            BNE.S    *+$002C             ; 00000624
000005FA: 701C            'p.'            MOVEQ    #$1C,D0             
000005FC: C1C7            '..'            MULS.W   D7,D0               
000005FE: 204D            ' M'            MOVEA.L  A5,A0               
00000600: D1C0            '..'            ADDA.L   D0,A0               
00000602: 214B 9B84       '!K..'          MOVE.L   A3,-$647C(A0)       
00000606: 2F0C            '/.'            MOVE.L   A4,-(A7)            
00000608: 302D 968C       '0-..'          MOVE.W   -$6974(A5),D0       
0000060C: C1ED 968E       '....'          MULS.W   -$6972(A5),D0       
00000610: 3F00            '?.'            MOVE.W   D0,-(A7)            
00000612: 4EBA 08A4       'N...'          JSR      *+$08A6             ; 00000EB8
00000616: 2E8C            '..'            MOVE.L   A4,(A7)             
00000618: 3F07            '?.'            MOVE.W   D7,-(A7)            
0000061A: 4EBA 0962       'N..b'          JSR      *+$0964             ; 00000F7E
0000061E: 508F            'P.'            ADDQ.L   #$8,A7              
00000620: 6000 0210       '`...'          BRA      *+$0212             ; 00000832
00000624: 701C            'p.'            MOVEQ    #$1C,D0             
00000626: C1C7            '..'            MULS.W   D7,D0               
00000628: 204D            ' M'            MOVEA.L  A5,A0               
0000062A: D1C0            '..'            ADDA.L   D0,A0               
0000062C: 4AA8 9B88       'J...'          TST.L    -$6478(A0)          
00000630: 672A            'g*'            BEQ.S    *+$002C             ; 0000065C
00000632: 4878 001C       'Hx..'          PEA      $001C               
00000636: 41ED 9B78       'A..x'          LEA      -$6488(A5),A0       
0000063A: 701C            'p.'            MOVEQ    #$1C,D0             
0000063C: C1C7            '..'            MULS.W   D7,D0               
0000063E: 224D            '"M'            MOVEA.L  A5,A1               
00000640: D3C0            '..'            ADDA.L   D0,A1               
00000642: 2029 9B88       ' )..'          MOVE.L   -$6478(A1),D0       
00000646: 9088            '..'            SUB.L    A0,D0               
00000648: 2F00            '/.'            MOVE.L   D0,-(A7)            
0000064A: 4EAD 005A       'N..Z'          JSR      $005A(A5)           
0000064E: 721C            'r.'            MOVEQ    #$1C,D1             
00000650: C3C7            '..'            MULS.W   D7,D1               
00000652: 204D            ' M'            MOVEA.L  A5,A0               
00000654: D1C1            '..'            ADDA.L   D1,A0               
00000656: 2140 9B88       '!@..'          MOVE.L   D0,-$6478(A0)       
0000065A: 600E            '`.'            BRA.S    *+$0010             ; 0000066A
0000065C: 701C            'p.'            MOVEQ    #$1C,D0             
0000065E: C1C7            '..'            MULS.W   D7,D0               
00000660: 204D            ' M'            MOVEA.L  A5,A0               
00000662: D1C0            '..'            ADDA.L   D0,A0               
00000664: 70FF            'p.'            MOVEQ    #$FF,D0             
00000666: 2140 9B88       '!@..'          MOVE.L   D0,-$6478(A0)       
0000066A: 701C            'p.'            MOVEQ    #$1C,D0             
0000066C: C1C7            '..'            MULS.W   D7,D0               
0000066E: 204D            ' M'            MOVEA.L  A5,A0               
00000670: D1C0            '..'            ADDA.L   D0,A0               
00000672: 4AA8 9B8C       'J...'          TST.L    -$6474(A0)          
00000676: 672A            'g*'            BEQ.S    *+$002C             ; 000006A2
00000678: 4878 001C       'Hx..'          PEA      $001C               
0000067C: 41ED 9B78       'A..x'          LEA      -$6488(A5),A0       
00000680: 701C            'p.'            MOVEQ    #$1C,D0             
00000682: C1C7            '..'            MULS.W   D7,D0               
00000684: 224D            '"M'            MOVEA.L  A5,A1               
00000686: D3C0            '..'            ADDA.L   D0,A1               
00000688: 2029 9B8C       ' )..'          MOVE.L   -$6474(A1),D0       
0000068C: 9088            '..'            SUB.L    A0,D0               
0000068E: 2F00            '/.'            MOVE.L   D0,-(A7)            
00000690: 4EAD 005A       'N..Z'          JSR      $005A(A5)           
00000694: 721C            'r.'            MOVEQ    #$1C,D1             
00000696: C3C7            '..'            MULS.W   D7,D1               
00000698: 204D            ' M'            MOVEA.L  A5,A0               
0000069A: D1C1            '..'            ADDA.L   D1,A0               
0000069C: 2140 9B8C       '!@..'          MOVE.L   D0,-$6474(A0)       
000006A0: 600E            '`.'            BRA.S    *+$0010             ; 000006B0
000006A2: 701C            'p.'            MOVEQ    #$1C,D0             
000006A4: C1C7            '..'            MULS.W   D7,D0               
000006A6: 204D            ' M'            MOVEA.L  A5,A0               
000006A8: D1C0            '..'            ADDA.L   D0,A0               
000006AA: 70FF            'p.'            MOVEQ    #$FF,D0             
000006AC: 2140 9B8C       '!@..'          MOVE.L   D0,-$6474(A0)       
000006B0: 701C            'p.'            MOVEQ    #$1C,D0             
000006B2: C1C7            '..'            MULS.W   D7,D0               
000006B4: 204D            ' M'            MOVEA.L  A5,A0               
000006B6: D1C0            '..'            ADDA.L   D0,A0               
000006B8: 4AA8 9B90       'J...'          TST.L    -$6470(A0)          
000006BC: 672A            'g*'            BEQ.S    *+$002C             ; 000006E8
000006BE: 4878 001C       'Hx..'          PEA      $001C               
000006C2: 41ED 9B78       'A..x'          LEA      -$6488(A5),A0       
000006C6: 701C            'p.'            MOVEQ    #$1C,D0             
000006C8: C1C7            '..'            MULS.W   D7,D0               
000006CA: 224D            '"M'            MOVEA.L  A5,A1               
000006CC: D3C0            '..'            ADDA.L   D0,A1               
000006CE: 2029 9B90       ' )..'          MOVE.L   -$6470(A1),D0       
000006D2: 9088            '..'            SUB.L    A0,D0               
000006D4: 2F00            '/.'            MOVE.L   D0,-(A7)            
000006D6: 4EAD 005A       'N..Z'          JSR      $005A(A5)           
000006DA: 721C            'r.'            MOVEQ    #$1C,D1             
000006DC: C3C7            '..'            MULS.W   D7,D1               
000006DE: 204D            ' M'            MOVEA.L  A5,A0               
000006E0: D1C1            '..'            ADDA.L   D1,A0               
000006E2: 2140 9B90       '!@..'          MOVE.L   D0,-$6470(A0)       
000006E6: 600E            '`.'            BRA.S    *+$0010             ; 000006F6
000006E8: 701C            'p.'            MOVEQ    #$1C,D0             
000006EA: C1C7            '..'            MULS.W   D7,D0               
000006EC: 204D            ' M'            MOVEA.L  A5,A0               
000006EE: D1C0            '..'            ADDA.L   D0,A0               
000006F0: 70FF            'p.'            MOVEQ    #$FF,D0             
000006F2: 2140 9B90       '!@..'          MOVE.L   D0,-$6470(A0)       
000006F6: 5247            'RG'            ADDQ.W   #$1,D7              
000006F8: 0C47 0190       '.G..'          CMPI.W   #$0190,D7           
000006FC: 6D00 FEA2       'm...'          BLT      *-$015C             ; 000005A0
00000700: 3E2D 9694       '>-..'          MOVE.W   -$696C(A5),D7       
00000704: 606E            '`n'            BRA.S    *+$0070             ; 00000774
00000706: 7014            'p.'            MOVEQ    #$14,D0             
00000708: C1C7            '..'            MULS.W   D7,D0               
0000070A: 204D            ' M'            MOVEA.L  A5,A0               
0000070C: D1C0            '..'            ADDA.L   D0,A0               
0000070E: 4AA8 E03C       'J..<'          TST.L    -$1FC4(A0)          
00000712: 672A            'g*'            BEQ.S    *+$002C             ; 0000073E
00000714: 4878 001C       'Hx..'          PEA      $001C               
00000718: 41ED 9B78       'A..x'          LEA      -$6488(A5),A0       
0000071C: 7014            'p.'            MOVEQ    #$14,D0             
0000071E: C1C7            '..'            MULS.W   D7,D0               
00000720: 224D            '"M'            MOVEA.L  A5,A1               
00000722: D3C0            '..'            ADDA.L   D0,A1               
00000724: 2029 E03C       ' ).<'          MOVE.L   -$1FC4(A1),D0       
00000728: 9088            '..'            SUB.L    A0,D0               
0000072A: 2F00            '/.'            MOVE.L   D0,-(A7)            
0000072C: 4EAD 005A       'N..Z'          JSR      $005A(A5)           
00000730: 7214            'r.'            MOVEQ    #$14,D1             
00000732: C3C7            '..'            MULS.W   D7,D1               
00000734: 204D            ' M'            MOVEA.L  A5,A0               
00000736: D1C1            '..'            ADDA.L   D1,A0               
00000738: 2140 E03C       '!@.<'          MOVE.L   D0,-$1FC4(A0)       
0000073C: 600E            '`.'            BRA.S    *+$0010             ; 0000074C
0000073E: 7014            'p.'            MOVEQ    #$14,D0             
00000740: C1C7            '..'            MULS.W   D7,D0               
00000742: 204D            ' M'            MOVEA.L  A5,A0               
00000744: D1C0            '..'            ADDA.L   D0,A0               
00000746: 70FF            'p.'            MOVEQ    #$FF,D0             
00000748: 2140 E03C       '!@.<'          MOVE.L   D0,-$1FC4(A0)       
0000074C: 7014            'p.'            MOVEQ    #$14,D0             
0000074E: C1C7            '..'            MULS.W   D7,D0               
00000750: 204D            ' M'            MOVEA.L  A5,A0               
00000752: D1C0            '..'            ADDA.L   D0,A0               
00000754: 2028 E040       ' (.@'          MOVE.L   -$1FC0(A0),D0       
00000758: 90B8 0904       '....'          SUB.L    $0904,D0            
0000075C: 7214            'r.'            MOVEQ    #$14,D1             
0000075E: C3C7            '..'            MULS.W   D7,D1               
00000760: 204D            ' M'            MOVEA.L  A5,A0               
00000762: D1C1            '..'            ADDA.L   D1,A0               
00000764: 2140 E040       '!@.@'          MOVE.L   D0,-$1FC0(A0)       
00000768: 7014            'p.'            MOVEQ    #$14,D0             
0000076A: C1C7            '..'            MULS.W   D7,D0               
0000076C: 204D            ' M'            MOVEA.L  A5,A0               
0000076E: D1C0            '..'            ADDA.L   D0,A0               
00000770: 3E28 E048       '>(.H'          MOVE.W   -$1FB8(A0),D7       
00000774: 4A47            'JG'            TST.W    D7                  
00000776: 6C8E            'l.'            BGE.S    *-$0070             ; 00000706
00000778: 41ED C738       'A..8'          LEA      -$38C8(A5),A0       
0000077C: 2948 0020       ')H. '          MOVE.L   A0,$0020(A4)        
00000780: 297C 0000 1900  ')|....'        MOVE.L   #$00001900,$0024(A4) 
          0024            '.$'    
00000788: 397C 0001 002C  '9|...,'        MOVE.W   #$0001,$002C(A4)    
0000078E: 7004            'p.'            MOVEQ    #$04,D0             
00000790: 2940 002E       ')@..'          MOVE.L   D0,$002E(A4)        
00000794: 2F0C            '/.'            MOVE.L   A4,-(A7)            
00000796: 4EBA 0AC8       'N...'          JSR      *+$0ACA             ; 00001260
0000079A: 4A40            'J@'            TST.W    D0                  
0000079C: 588F            'X.'            ADDQ.L   #$4,A7              
0000079E: 6772            'gr'            BEQ.S    *+$0074             ; 00000812
000007A0: 41ED 9B78       'A..x'          LEA      -$6488(A5),A0       
000007A4: 2948 0020       ')H. '          MOVE.L   A0,$0020(A4)        
000007A8: 297C 0000 2BC0  ')|..+.'        MOVE.L   #$00002BC0,$0024(A4) 
          0024            '.$'    
000007B0: 426C 002C       'Bl.,'          CLR.W    $002C(A4)           
000007B4: 2F0C            '/.'            MOVE.L   A4,-(A7)            
000007B6: 4EBA 0AA8       'N...'          JSR      *+$0AAA             ; 00001260
000007BA: 4A40            'J@'            TST.W    D0                  
000007BC: 588F            'X.'            ADDQ.L   #$4,A7              
000007BE: 6752            'gR'            BEQ.S    *+$0054             ; 00000812
000007C0: 41ED E038       'A..8'          LEA      -$1FC8(A5),A0       
000007C4: 2948 0020       ')H. '          MOVE.L   A0,$0020(A4)        
000007C8: 297C 0000 07D0  ')|....'        MOVE.L   #$000007D0,$0024(A4) 
          0024            '.$'    
000007D0: 426C 002C       'Bl.,'          CLR.W    $002C(A4)           
000007D4: 2F0C            '/.'            MOVE.L   A4,-(A7)            
000007D6: 4EBA 0A88       'N...'          JSR      *+$0A8A             ; 00001260
000007DA: 4A40            'J@'            TST.W    D0                  
000007DC: 588F            'X.'            ADDQ.L   #$4,A7              
000007DE: 6732            'g2'            BEQ.S    *+$0034             ; 00000812
000007E0: 2F0C            '/.'            MOVE.L   A4,-(A7)            
000007E2: 4EBA 0BF2       'N...'          JSR      *+$0BF4             ; 000013D6
000007E6: 4257            'BW'            CLR.W    (A7)                
000007E8: 2F0C            '/.'            MOVE.L   A4,-(A7)            
000007EA: 4227            'B''            CLR.B    -(A7)               
000007EC: 4EAD 0182       'N...'          JSR      $0182(A5)           
000007F0: 3C1F            '<.'            MOVE.W   (A7)+,D6            
000007F2: 4A46            'JF'            TST.W    D6                  
000007F4: 548F            'T.'            ADDQ.L   #$2,A7              
000007F6: 6710            'g.'            BEQ.S    *+$0012             ; 00000808
000007F8: 3F06            '?.'            MOVE.W   D6,-(A7)            
000007FA: 2F3C 0000 1DF4  '/<....'        MOVE.L   #$00001DF4,-(A7)    
00000800: 4EBA 0A2C       'N..,'          JSR      *+$0A2E             ; 0000122E
00000804: 5C8F            '\.'            ADDQ.L   #$6,A7              
00000806: 602A            '`*'            BRA.S    *+$002C             ; 00000832
00000808: 206D 9B70       ' m.p'          MOVEA.L  -$6490(A5),A0       
0000080C: 2F10            '/.'            MOVE.L   (A0),-(A7)          
0000080E: A851            '.Q'            _SetCursor                     ; A851
00000810: A9F4            '..'            _ExitToShell                     ; A9F4
00000812: 2F0C            '/.'            MOVE.L   A4,-(A7)            
00000814: 302D 968C       '0-..'          MOVE.W   -$6974(A5),D0       
00000818: C1ED 968E       '....'          MULS.W   -$6972(A5),D0       
0000081C: 3F00            '?.'            MOVE.W   D0,-(A7)            
0000081E: 4EBA 0698       'N...'          JSR      *+$069A             ; 00000EB8
00000822: 2E8C            '..'            MOVE.L   A4,(A7)             
00000824: 3F3C 0190       '?<..'          MOVE.W   #$0190,-(A7)        
00000828: 4EBA 0754       'N..T'          JSR      *+$0756             ; 00000F7E
0000082C: 4EBA 089E       'N...'          JSR      *+$08A0             ; 000010CC
00000830: 508F            'P.'            ADDQ.L   #$8,A7              
00000832: 70FF            'p.'            MOVEQ    #$FF,D0             
00000834: B0AD 9672       '...r'          CMP.L    -$698E(A5),D0       
00000838: 6606            'f.'            BNE.S    *+$0008             ; 00000840
0000083A: 42AD 9672       'B..r'          CLR.L    -$698E(A5)          
0000083E: 6016            '`.'            BRA.S    *+$0018             ; 00000856
00000840: 4878 001C       'Hx..'          PEA      $001C               
00000844: 2F2D 9672       '/-.r'          MOVE.L   -$698E(A5),-(A7)    
00000848: 4EAD 0042       'N..B'          JSR      $0042(A5)           
0000084C: 41ED 9B78       'A..x'          LEA      -$6488(A5),A0       
00000850: D088            '..'            ADD.L    A0,D0               
00000852: 2B40 9672       '+@.r'          MOVE.L   D0,-$698E(A5)       
00000856: 2F0C            '/.'            MOVE.L   A4,-(A7)            
00000858: 4EBA 0B04       'N...'          JSR      *+$0B06             ; 0000135E
0000085C: 4CEE 18C0 FF4E  'L....N'        MOVEM.L  -$00B2(A6),D6/D7/A3/A4 
00000862: 4E5E            'N^'            UNLK     A6                  
00000864: 4E75            'Nu'            RTS                          
00000866: 8853            '.S'            OR.W     (A3),D4             
00000868: 6176            'av'            BSR.S    *+$0078             ; 000008E0
0000086A: 6547            'eG'            BCS.S    *+$0049             ; 000008B3
0000086C: 616D            'am'            BSR.S    *+$006F             ; 000008DB
0000086E: 6500 0000       'e...'          BCS      *+$0002             ; 00000870
00000872: 4E56 FFAC       'NV..'          LINK     A6,#$FFAC           
00000876: 48E7 0118       'H...'          MOVEM.L  D7/A3/A4,-(A7)      
0000087A: 286E 0008       '(n..'          MOVEA.L  $0008(A6),A4        
0000087E: 47EE FFAC       'G...'          LEA      -$0054(A6),A3       
00000882: 41EC 0008       'A...'          LEA      $0008(A4),A0        
00000886: 2B48 FA82       '+H..'          MOVE.L   A0,-$057E(A5)       
0000088A: 42AB 000C       'B...'          CLR.L    $000C(A3)           
0000088E: 41EC 0008       'A...'          LEA      $0008(A4),A0        
00000892: 2748 0012       ''H..'          MOVE.L   A0,$0012(A3)        
00000896: 3754 0016       '7T..'          MOVE.W   (A4),$0016(A3)      
0000089A: 176C 0007 001A  '.l....'        MOVE.B   $0007(A4),$001A(A3) 
000008A0: 177C 0001 001B  '.|....'        MOVE.B   #$01,$001B(A3)      
000008A6: 42AB 001C       'B...'          CLR.L    $001C(A3)           
000008AA: 4267            'Bg'            CLR.W    -(A7)               
000008AC: 486E FFAC       'Hn..'          PEA      -$0054(A6)          
000008B0: 4227            'B''            CLR.B    -(A7)               
000008B2: 4EAD 0162       'N..b'          JSR      $0162(A5)           
000008B6: 3E1F            '>.'            MOVE.W   (A7)+,D7            
000008B8: 4A47            'JG'            TST.W    D7                  
000008BA: 6710            'g.'            BEQ.S    *+$0012             ; 000008CC
000008BC: 3F07            '?.'            MOVE.W   D7,-(A7)            
000008BE: 2F3C 0000 1E0A  '/<....'        MOVE.L   #$00001E0A,-(A7)    
000008C4: 4EBA 0968       'N..h'          JSR      *+$096A             ; 0000122E
000008C8: A9F4            '..'            _ExitToShell                     ; A9F4
000008CA: 5C8F            '\.'            ADDQ.L   #$6,A7              
000008CC: 41EE FFFC       'A...'          LEA      -$0004(A6),A0       
000008D0: 2748 0020       ''H. '          MOVE.L   A0,$0020(A3)        
000008D4: 7004            'p.'            MOVEQ    #$04,D0             
000008D6: 2740 0024       ''@.$'          MOVE.L   D0,$0024(A3)        
000008DA: 377C 0001 002C  '7|...,'        MOVE.W   #$0001,$002C(A3)    
000008E0: 42AB 002E       'B...'          CLR.L    $002E(A3)           
000008E4: 2F0B            '/.'            MOVE.L   A3,-(A7)            
000008E6: 4EBA 0A02       'N...'          JSR      *+$0A04             ; 000012EA
000008EA: 4A40            'J@'            TST.W    D0                  
000008EC: 588F            'X.'            ADDQ.L   #$4,A7              
000008EE: 660A            'f.'            BNE.S    *+$000C             ; 000008FA
000008F0: 2F0B            '/.'            MOVE.L   A3,-(A7)            
000008F2: 4EBA 0AE2       'N...'          JSR      *+$0AE4             ; 000013D6
000008F6: A9F4            '..'            _ExitToShell                     ; A9F4
000008F8: 588F            'X.'            ADDQ.L   #$4,A7              
000008FA: 202E FFFC       ' ...'          MOVE.L   -$0004(A6),D0       
000008FE: 0280 0000 FFFF  '......'        ANDI.L   #$0000FFFF,D0       
00000904: 5980            'Y.'            SUBQ.L   #$4,D0              
00000906: 660C            'f.'            BNE.S    *+$000E             ; 00000914
00000908: 202E FFFC       ' ...'          MOVE.L   -$0004(A6),D0       
0000090C: 7210            'r.'            MOVEQ    #$10,D1             
0000090E: E2A0            '..'            ASR.L    D1,D0               
00000910: 5380            'S.'            SUBQ.L   #$1,D0              
00000912: 6728            'g('            BEQ.S    *+$002A             ; 0000093C
00000914: 2F3C 0000 1E2A  '/<...*'        MOVE.L   #$00001E2A,-(A7)    
0000091A: 2F3C 0000 1E2C  '/<...,'        MOVE.L   #$00001E2C,-(A7)    
00000920: 2F3C 0000 1E2E  '/<....'        MOVE.L   #$00001E2E,-(A7)    
00000926: 2F3C 0000 1E58  '/<...X'        MOVE.L   #$00001E58,-(A7)    
0000092C: 4EAD 051A       'N...'          JSR      $051A(A5)           
00000930: 2E8B            '..'            MOVE.L   A3,(A7)             
00000932: 4EBA 0AA2       'N...'          JSR      *+$0AA4             ; 000013D6
00000936: A9F4            '..'            _ExitToShell                     ; A9F4
00000938: 4FEF 0010       'O...'          LEA      $0010(A7),A7        
0000093C: 41ED C738       'A..8'          LEA      -$38C8(A5),A0       
00000940: 2748 0020       ''H. '          MOVE.L   A0,$0020(A3)        
00000944: 277C 0000 1900  ''|....'        MOVE.L   #$00001900,$0024(A3) 
          0024            '.$'    
0000094C: 426B 002C       'Bk.,'          CLR.W    $002C(A3)           
00000950: 2F0B            '/.'            MOVE.L   A3,-(A7)            
00000952: 4EBA 0996       'N...'          JSR      *+$0998             ; 000012EA
00000956: 4A40            'J@'            TST.W    D0                  
00000958: 588F            'X.'            ADDQ.L   #$4,A7              
0000095A: 6700 044C       'g..L'          BEQ      *+$044E             ; 00000DA8
0000095E: 41ED 9B78       'A..x'          LEA      -$6488(A5),A0       
00000962: 2748 0020       ''H. '          MOVE.L   A0,$0020(A3)        
00000966: 277C 0000 2BC0  ''|..+.'        MOVE.L   #$00002BC0,$0024(A3) 
          0024            '.$'    
0000096E: 426B 002C       'Bk.,'          CLR.W    $002C(A3)           
00000972: 2F0B            '/.'            MOVE.L   A3,-(A7)            
00000974: 4EBA 0974       'N..t'          JSR      *+$0976             ; 000012EA
00000978: 4A40            'J@'            TST.W    D0                  
0000097A: 588F            'X.'            ADDQ.L   #$4,A7              
0000097C: 6700 042A       'g..*'          BEQ      *+$042C             ; 00000DA8
00000980: 41ED E038       'A..8'          LEA      -$1FC8(A5),A0       
00000984: 2748 0020       ''H. '          MOVE.L   A0,$0020(A3)        
00000988: 277C 0000 07D0  ''|....'        MOVE.L   #$000007D0,$0024(A3) 
          0024            '.$'    
00000990: 426B 002C       'Bk.,'          CLR.W    $002C(A3)           
00000994: 2F0B            '/.'            MOVE.L   A3,-(A7)            
00000996: 4EBA 0952       'N..R'          JSR      *+$0954             ; 000012EA
0000099A: 4A40            'J@'            TST.W    D0                  
0000099C: 588F            'X.'            ADDQ.L   #$4,A7              
0000099E: 6700 0408       'g...'          BEQ      *+$040A             ; 00000DA8
000009A2: 41ED 9672       'A..r'          LEA      -$698E(A5),A0       
000009A6: 2748 0020       ''H. '          MOVE.L   A0,$0020(A3)        
000009AA: 7004            'p.'            MOVEQ    #$04,D0             
000009AC: 2740 0024       ''@.$'          MOVE.L   D0,$0024(A3)        
000009B0: 426B 002C       'Bk.,'          CLR.W    $002C(A3)           
000009B4: 2F0B            '/.'            MOVE.L   A3,-(A7)            
000009B6: 4EBA 0932       'N..2'          JSR      *+$0934             ; 000012EA
000009BA: 4A40            'J@'            TST.W    D0                  
000009BC: 588F            'X.'            ADDQ.L   #$4,A7              
000009BE: 6700 03E8       'g...'          BEQ      *+$03EA             ; 00000DA8
000009C2: 41ED 9676       'A..v'          LEA      -$698A(A5),A0       
000009C6: 2748 0020       ''H. '          MOVE.L   A0,$0020(A3)        
000009CA: 7004            'p.'            MOVEQ    #$04,D0             
000009CC: 2740 0024       ''@.$'          MOVE.L   D0,$0024(A3)        
000009D0: 426B 002C       'Bk.,'          CLR.W    $002C(A3)           
000009D4: 2F0B            '/.'            MOVE.L   A3,-(A7)            
000009D6: 4EBA 0912       'N...'          JSR      *+$0914             ; 000012EA
000009DA: 4A40            'J@'            TST.W    D0                  
000009DC: 588F            'X.'            ADDQ.L   #$4,A7              
000009DE: 6700 03C8       'g...'          BEQ      *+$03CA             ; 00000DA8
000009E2: 41ED 967A       'A..z'          LEA      -$6986(A5),A0       
000009E6: 2748 0020       ''H. '          MOVE.L   A0,$0020(A3)        
000009EA: 7004            'p.'            MOVEQ    #$04,D0             
000009EC: 2740 0024       ''@.$'          MOVE.L   D0,$0024(A3)        
000009F0: 426B 002C       'Bk.,'          CLR.W    $002C(A3)           
000009F4: 2F0B            '/.'            MOVE.L   A3,-(A7)            
000009F6: 4EBA 08F2       'N...'          JSR      *+$08F4             ; 000012EA
000009FA: 4A40            'J@'            TST.W    D0                  
000009FC: 588F            'X.'            ADDQ.L   #$4,A7              
000009FE: 6700 03A8       'g...'          BEQ      *+$03AA             ; 00000DA8
00000A02: 41ED 967E       'A..~'          LEA      -$6982(A5),A0       
00000A06: 2748 0020       ''H. '          MOVE.L   A0,$0020(A3)        
00000A0A: 7004            'p.'            MOVEQ    #$04,D0             
00000A0C: 2740 0024       ''@.$'          MOVE.L   D0,$0024(A3)        
00000A10: 426B 002C       'Bk.,'          CLR.W    $002C(A3)           
00000A14: 2F0B            '/.'            MOVE.L   A3,-(A7)            
00000A16: 4EBA 08D2       'N...'          JSR      *+$08D4             ; 000012EA
00000A1A: 4A40            'J@'            TST.W    D0                  
00000A1C: 588F            'X.'            ADDQ.L   #$4,A7              
00000A1E: 6700 0388       'g...'          BEQ      *+$038A             ; 00000DA8
00000A22: 41ED 9B48       'A..H'          LEA      -$64B8(A5),A0       
00000A26: 2748 0020       ''H. '          MOVE.L   A0,$0020(A3)        
00000A2A: 7002            'p.'            MOVEQ    #$02,D0             
00000A2C: 2740 0024       ''@.$'          MOVE.L   D0,$0024(A3)        
00000A30: 426B 002C       'Bk.,'          CLR.W    $002C(A3)           
00000A34: 2F0B            '/.'            MOVE.L   A3,-(A7)            
00000A36: 4EBA 08B2       'N...'          JSR      *+$08B4             ; 000012EA
00000A3A: 4A40            'J@'            TST.W    D0                  
00000A3C: 588F            'X.'            ADDQ.L   #$4,A7              
00000A3E: 6700 0368       'g..h'          BEQ      *+$036A             ; 00000DA8
00000A42: 41ED 9B4A       'A..J'          LEA      -$64B6(A5),A0       
00000A46: 2748 0020       ''H. '          MOVE.L   A0,$0020(A3)        
00000A4A: 7002            'p.'            MOVEQ    #$02,D0             
00000A4C: 2740 0024       ''@.$'          MOVE.L   D0,$0024(A3)        
00000A50: 426B 002C       'Bk.,'          CLR.W    $002C(A3)           
00000A54: 2F0B            '/.'            MOVE.L   A3,-(A7)            
00000A56: 4EBA 0892       'N...'          JSR      *+$0894             ; 000012EA
00000A5A: 4A40            'J@'            TST.W    D0                  
00000A5C: 588F            'X.'            ADDQ.L   #$4,A7              
00000A5E: 6700 0348       'g..H'          BEQ      *+$034A             ; 00000DA8
00000A62: 41ED 9682       'A...'          LEA      -$697E(A5),A0       
00000A66: 2748 0020       ''H. '          MOVE.L   A0,$0020(A3)        
00000A6A: 7002            'p.'            MOVEQ    #$02,D0             
00000A6C: 2740 0024       ''@.$'          MOVE.L   D0,$0024(A3)        
00000A70: 426B 002C       'Bk.,'          CLR.W    $002C(A3)           
00000A74: 2F0B            '/.'            MOVE.L   A3,-(A7)            
00000A76: 4EBA 0872       'N..r'          JSR      *+$0874             ; 000012EA
00000A7A: 4A40            'J@'            TST.W    D0                  
00000A7C: 588F            'X.'            ADDQ.L   #$4,A7              
00000A7E: 6700 0328       'g..('          BEQ      *+$032A             ; 00000DA8
00000A82: 41ED 9684       'A...'          LEA      -$697C(A5),A0       
00000A86: 2748 0020       ''H. '          MOVE.L   A0,$0020(A3)        
00000A8A: 7002            'p.'            MOVEQ    #$02,D0             
00000A8C: 2740 0024       ''@.$'          MOVE.L   D0,$0024(A3)        
00000A90: 426B 002C       'Bk.,'          CLR.W    $002C(A3)           
00000A94: 2F0B            '/.'            MOVE.L   A3,-(A7)            
00000A96: 4EBA 0852       'N..R'          JSR      *+$0854             ; 000012EA
00000A9A: 4A40            'J@'            TST.W    D0                  
00000A9C: 588F            'X.'            ADDQ.L   #$4,A7              
00000A9E: 6700 0308       'g...'          BEQ      *+$030A             ; 00000DA8
00000AA2: 41ED 9686       'A...'          LEA      -$697A(A5),A0       
00000AA6: 2748 0020       ''H. '          MOVE.L   A0,$0020(A3)        
00000AAA: 7002            'p.'            MOVEQ    #$02,D0             
00000AAC: 2740 0024       ''@.$'          MOVE.L   D0,$0024(A3)        
00000AB0: 426B 002C       'Bk.,'          CLR.W    $002C(A3)           
00000AB4: 2F0B            '/.'            MOVE.L   A3,-(A7)            
00000AB6: 4EBA 0832       'N..2'          JSR      *+$0834             ; 000012EA
00000ABA: 4A40            'J@'            TST.W    D0                  
00000ABC: 588F            'X.'            ADDQ.L   #$4,A7              
00000ABE: 6700 02E8       'g...'          BEQ      *+$02EA             ; 00000DA8
00000AC2: 41ED 9688       'A...'          LEA      -$6978(A5),A0       
00000AC6: 2748 0020       ''H. '          MOVE.L   A0,$0020(A3)        
00000ACA: 7002            'p.'            MOVEQ    #$02,D0             
00000ACC: 2740 0024       ''@.$'          MOVE.L   D0,$0024(A3)        
00000AD0: 426B 002C       'Bk.,'          CLR.W    $002C(A3)           
00000AD4: 2F0B            '/.'            MOVE.L   A3,-(A7)            
00000AD6: 4EBA 0812       'N...'          JSR      *+$0814             ; 000012EA
00000ADA: 4A40            'J@'            TST.W    D0                  
00000ADC: 588F            'X.'            ADDQ.L   #$4,A7              
00000ADE: 6700 02C8       'g...'          BEQ      *+$02CA             ; 00000DA8
00000AE2: 41ED 968A       'A...'          LEA      -$6976(A5),A0       
00000AE6: 2748 0020       ''H. '          MOVE.L   A0,$0020(A3)        
00000AEA: 7002            'p.'            MOVEQ    #$02,D0             
00000AEC: 2740 0024       ''@.$'          MOVE.L   D0,$0024(A3)        
00000AF0: 426B 002C       'Bk.,'          CLR.W    $002C(A3)           
00000AF4: 2F0B            '/.'            MOVE.L   A3,-(A7)            
00000AF6: 4EBA 07F2       'N...'          JSR      *+$07F4             ; 000012EA
00000AFA: 4A40            'J@'            TST.W    D0                  
00000AFC: 588F            'X.'            ADDQ.L   #$4,A7              
00000AFE: 6700 02A8       'g...'          BEQ      *+$02AA             ; 00000DA8
00000B02: 41ED 968C       'A...'          LEA      -$6974(A5),A0       
00000B06: 2748 0020       ''H. '          MOVE.L   A0,$0020(A3)        
00000B0A: 7002            'p.'            MOVEQ    #$02,D0             
00000B0C: 2740 0024       ''@.$'          MOVE.L   D0,$0024(A3)        
00000B10: 426B 002C       'Bk.,'          CLR.W    $002C(A3)           
00000B14: 2F0B            '/.'            MOVE.L   A3,-(A7)            
00000B16: 4EBA 07D2       'N...'          JSR      *+$07D4             ; 000012EA
00000B1A: 4A40            'J@'            TST.W    D0                  
00000B1C: 588F            'X.'            ADDQ.L   #$4,A7              
00000B1E: 6700 0288       'g...'          BEQ      *+$028A             ; 00000DA8
00000B22: 41ED 968E       'A...'          LEA      -$6972(A5),A0       
00000B26: 2748 0020       ''H. '          MOVE.L   A0,$0020(A3)        
00000B2A: 7002            'p.'            MOVEQ    #$02,D0             
00000B2C: 2740 0024       ''@.$'          MOVE.L   D0,$0024(A3)        
00000B30: 426B 002C       'Bk.,'          CLR.W    $002C(A3)           
00000B34: 2F0B            '/.'            MOVE.L   A3,-(A7)            
00000B36: 4EBA 07B2       'N...'          JSR      *+$07B4             ; 000012EA
00000B3A: 4A40            'J@'            TST.W    D0                  
00000B3C: 588F            'X.'            ADDQ.L   #$4,A7              
00000B3E: 6700 0268       'g..h'          BEQ      *+$026A             ; 00000DA8
00000B42: 41ED EA20       'A.. '          LEA      -$15E0(A5),A0       
00000B46: 2748 0020       ''H. '          MOVE.L   A0,$0020(A3)        
00000B4A: 7002            'p.'            MOVEQ    #$02,D0             
00000B4C: 2740 0024       ''@.$'          MOVE.L   D0,$0024(A3)        
00000B50: 426B 002C       'Bk.,'          CLR.W    $002C(A3)           
00000B54: 2F0B            '/.'            MOVE.L   A3,-(A7)            
00000B56: 4EBA 0792       'N...'          JSR      *+$0794             ; 000012EA
00000B5A: 4A40            'J@'            TST.W    D0                  
00000B5C: 588F            'X.'            ADDQ.L   #$4,A7              
00000B5E: 6700 0248       'g..H'          BEQ      *+$024A             ; 00000DA8
00000B62: 41ED EA22       'A.."'          LEA      -$15DE(A5),A0       
00000B66: 2748 0020       ''H. '          MOVE.L   A0,$0020(A3)        
00000B6A: 7002            'p.'            MOVEQ    #$02,D0             
00000B6C: 2740 0024       ''@.$'          MOVE.L   D0,$0024(A3)        
00000B70: 426B 002C       'Bk.,'          CLR.W    $002C(A3)           
00000B74: 2F0B            '/.'            MOVE.L   A3,-(A7)            
00000B76: 4EBA 0772       'N..r'          JSR      *+$0774             ; 000012EA
00000B7A: 4A40            'J@'            TST.W    D0                  
00000B7C: 588F            'X.'            ADDQ.L   #$4,A7              
00000B7E: 6700 0228       'g..('          BEQ      *+$022A             ; 00000DA8
00000B82: 41ED 9690       'A...'          LEA      -$6970(A5),A0       
00000B86: 2748 0020       ''H. '          MOVE.L   A0,$0020(A3)        
00000B8A: 7002            'p.'            MOVEQ    #$02,D0             
00000B8C: 2740 0024       ''@.$'          MOVE.L   D0,$0024(A3)        
00000B90: 426B 002C       'Bk.,'          CLR.W    $002C(A3)           
00000B94: 2F0B            '/.'            MOVE.L   A3,-(A7)            
00000B96: 4EBA 0752       'N..R'          JSR      *+$0754             ; 000012EA
00000B9A: 4A40            'J@'            TST.W    D0                  
00000B9C: 588F            'X.'            ADDQ.L   #$4,A7              
00000B9E: 6700 0208       'g...'          BEQ      *+$020A             ; 00000DA8
00000BA2: 41ED 9692       'A...'          LEA      -$696E(A5),A0       
00000BA6: 2748 0020       ''H. '          MOVE.L   A0,$0020(A3)        
00000BAA: 7002            'p.'            MOVEQ    #$02,D0             
00000BAC: 2740 0024       ''@.$'          MOVE.L   D0,$0024(A3)        
00000BB0: 426B 002C       'Bk.,'          CLR.W    $002C(A3)           
00000BB4: 2F0B            '/.'            MOVE.L   A3,-(A7)            
00000BB6: 4EBA 0732       'N..2'          JSR      *+$0734             ; 000012EA
00000BBA: 4A40            'J@'            TST.W    D0                  
00000BBC: 588F            'X.'            ADDQ.L   #$4,A7              
00000BBE: 6700 01E8       'g...'          BEQ      *+$01EA             ; 00000DA8
00000BC2: 41ED EA24       'A..$'          LEA      -$15DC(A5),A0       
00000BC6: 2748 0020       ''H. '          MOVE.L   A0,$0020(A3)        
00000BCA: 7002            'p.'            MOVEQ    #$02,D0             
00000BCC: 2740 0024       ''@.$'          MOVE.L   D0,$0024(A3)        
00000BD0: 426B 002C       'Bk.,'          CLR.W    $002C(A3)           
00000BD4: 2F0B            '/.'            MOVE.L   A3,-(A7)            
00000BD6: 4EBA 0712       'N...'          JSR      *+$0714             ; 000012EA
00000BDA: 4A40            'J@'            TST.W    D0                  
00000BDC: 588F            'X.'            ADDQ.L   #$4,A7              
00000BDE: 6700 01C8       'g...'          BEQ      *+$01CA             ; 00000DA8
00000BE2: 41ED 9694       'A...'          LEA      -$696C(A5),A0       
00000BE6: 2748 0020       ''H. '          MOVE.L   A0,$0020(A3)        
00000BEA: 7002            'p.'            MOVEQ    #$02,D0             
00000BEC: 2740 0024       ''@.$'          MOVE.L   D0,$0024(A3)        
00000BF0: 426B 002C       'Bk.,'          CLR.W    $002C(A3)           
00000BF4: 2F0B            '/.'            MOVE.L   A3,-(A7)            
00000BF6: 4EBA 06F2       'N...'          JSR      *+$06F4             ; 000012EA
00000BFA: 4A40            'J@'            TST.W    D0                  
00000BFC: 588F            'X.'            ADDQ.L   #$4,A7              
00000BFE: 6700 01A8       'g...'          BEQ      *+$01AA             ; 00000DA8
00000C02: 41ED EA26       'A..&'          LEA      -$15DA(A5),A0       
00000C06: 2748 0020       ''H. '          MOVE.L   A0,$0020(A3)        
00000C0A: 7002            'p.'            MOVEQ    #$02,D0             
00000C0C: 2740 0024       ''@.$'          MOVE.L   D0,$0024(A3)        
00000C10: 426B 002C       'Bk.,'          CLR.W    $002C(A3)           
00000C14: 2F0B            '/.'            MOVE.L   A3,-(A7)            
00000C16: 4EBA 06D2       'N...'          JSR      *+$06D4             ; 000012EA
00000C1A: 4A40            'J@'            TST.W    D0                  
00000C1C: 588F            'X.'            ADDQ.L   #$4,A7              
00000C1E: 6700 0188       'g...'          BEQ      *+$018A             ; 00000DA8
00000C22: 41ED 9696       'A...'          LEA      -$696A(A5),A0       
00000C26: 2748 0020       ''H. '          MOVE.L   A0,$0020(A3)        
00000C2A: 7002            'p.'            MOVEQ    #$02,D0             
00000C2C: 2740 0024       ''@.$'          MOVE.L   D0,$0024(A3)        
00000C30: 426B 002C       'Bk.,'          CLR.W    $002C(A3)           
00000C34: 2F0B            '/.'            MOVE.L   A3,-(A7)            
00000C36: 4EBA 06B2       'N...'          JSR      *+$06B4             ; 000012EA
00000C3A: 4A40            'J@'            TST.W    D0                  
00000C3C: 588F            'X.'            ADDQ.L   #$4,A7              
00000C3E: 6700 0168       'g..h'          BEQ      *+$016A             ; 00000DA8
00000C42: 41ED 9698       'A...'          LEA      -$6968(A5),A0       
00000C46: 2748 0020       ''H. '          MOVE.L   A0,$0020(A3)        
00000C4A: 7001            'p.'            MOVEQ    #$01,D0             
00000C4C: 2740 0024       ''@.$'          MOVE.L   D0,$0024(A3)        
00000C50: 426B 002C       'Bk.,'          CLR.W    $002C(A3)           
00000C54: 2F0B            '/.'            MOVE.L   A3,-(A7)            
00000C56: 4EBA 0692       'N...'          JSR      *+$0694             ; 000012EA
00000C5A: 4A40            'J@'            TST.W    D0                  
00000C5C: 588F            'X.'            ADDQ.L   #$4,A7              
00000C5E: 6700 0148       'g..H'          BEQ      *+$014A             ; 00000DA8
00000C62: 41ED 9699       'A...'          LEA      -$6967(A5),A0       
00000C66: 2748 0020       ''H. '          MOVE.L   A0,$0020(A3)        
00000C6A: 7001            'p.'            MOVEQ    #$01,D0             
00000C6C: 2740 0024       ''@.$'          MOVE.L   D0,$0024(A3)        
00000C70: 426B 002C       'Bk.,'          CLR.W    $002C(A3)           
00000C74: 2F0B            '/.'            MOVE.L   A3,-(A7)            
00000C76: 4EBA 0672       'N..r'          JSR      *+$0674             ; 000012EA
00000C7A: 4A40            'J@'            TST.W    D0                  
00000C7C: 588F            'X.'            ADDQ.L   #$4,A7              
00000C7E: 6700 0128       'g..('          BEQ      *+$012A             ; 00000DA8
00000C82: 41ED 969A       'A...'          LEA      -$6966(A5),A0       
00000C86: 2748 0020       ''H. '          MOVE.L   A0,$0020(A3)        
00000C8A: 7001            'p.'            MOVEQ    #$01,D0             
00000C8C: 2740 0024       ''@.$'          MOVE.L   D0,$0024(A3)        
00000C90: 426B 002C       'Bk.,'          CLR.W    $002C(A3)           
00000C94: 2F0B            '/.'            MOVE.L   A3,-(A7)            
00000C96: 4EBA 0652       'N..R'          JSR      *+$0654             ; 000012EA
00000C9A: 4A40            'J@'            TST.W    D0                  
00000C9C: 588F            'X.'            ADDQ.L   #$4,A7              
00000C9E: 6700 0108       'g...'          BEQ      *+$010A             ; 00000DA8
00000CA2: 41ED 969B       'A...'          LEA      -$6965(A5),A0       
00000CA6: 2748 0020       ''H. '          MOVE.L   A0,$0020(A3)        
00000CAA: 7001            'p.'            MOVEQ    #$01,D0             
00000CAC: 2740 0024       ''@.$'          MOVE.L   D0,$0024(A3)        
00000CB0: 426B 002C       'Bk.,'          CLR.W    $002C(A3)           
00000CB4: 2F0B            '/.'            MOVE.L   A3,-(A7)            
00000CB6: 4EBA 0632       'N..2'          JSR      *+$0634             ; 000012EA
00000CBA: 4A40            'J@'            TST.W    D0                  
00000CBC: 588F            'X.'            ADDQ.L   #$4,A7              
00000CBE: 6700 00E8       'g...'          BEQ      *+$00EA             ; 00000DA8
00000CC2: 41ED 969C       'A...'          LEA      -$6964(A5),A0       
00000CC6: 2748 0020       ''H. '          MOVE.L   A0,$0020(A3)        
00000CCA: 7001            'p.'            MOVEQ    #$01,D0             
00000CCC: 2740 0024       ''@.$'          MOVE.L   D0,$0024(A3)        
00000CD0: 426B 002C       'Bk.,'          CLR.W    $002C(A3)           
00000CD4: 2F0B            '/.'            MOVE.L   A3,-(A7)            
00000CD6: 4EBA 0612       'N...'          JSR      *+$0614             ; 000012EA
00000CDA: 4A40            'J@'            TST.W    D0                  
00000CDC: 588F            'X.'            ADDQ.L   #$4,A7              
00000CDE: 6700 00C8       'g...'          BEQ      *+$00CA             ; 00000DA8
00000CE2: 41ED 969D       'A...'          LEA      -$6963(A5),A0       
00000CE6: 2748 0020       ''H. '          MOVE.L   A0,$0020(A3)        
00000CEA: 7001            'p.'            MOVEQ    #$01,D0             
00000CEC: 2740 0024       ''@.$'          MOVE.L   D0,$0024(A3)        
00000CF0: 426B 002C       'Bk.,'          CLR.W    $002C(A3)           
00000CF4: 2F0B            '/.'            MOVE.L   A3,-(A7)            
00000CF6: 4EBA 05F2       'N...'          JSR      *+$05F4             ; 000012EA
00000CFA: 4A40            'J@'            TST.W    D0                  
00000CFC: 588F            'X.'            ADDQ.L   #$4,A7              
00000CFE: 6700 00A8       'g...'          BEQ      *+$00AA             ; 00000DA8
00000D02: 41ED 969E       'A...'          LEA      -$6962(A5),A0       
00000D06: 2748 0020       ''H. '          MOVE.L   A0,$0020(A3)        
00000D0A: 7001            'p.'            MOVEQ    #$01,D0             
00000D0C: 2740 0024       ''@.$'          MOVE.L   D0,$0024(A3)        
00000D10: 426B 002C       'Bk.,'          CLR.W    $002C(A3)           
00000D14: 2F0B            '/.'            MOVE.L   A3,-(A7)            
00000D16: 4EBA 05D2       'N...'          JSR      *+$05D4             ; 000012EA
00000D1A: 4A40            'J@'            TST.W    D0                  
00000D1C: 588F            'X.'            ADDQ.L   #$4,A7              
00000D1E: 6700 0088       'g...'          BEQ      *+$008A             ; 00000DA8
00000D22: 41ED 969F       'A...'          LEA      -$6961(A5),A0       
00000D26: 2748 0020       ''H. '          MOVE.L   A0,$0020(A3)        
00000D2A: 7001            'p.'            MOVEQ    #$01,D0             
00000D2C: 2740 0024       ''@.$'          MOVE.L   D0,$0024(A3)        
00000D30: 426B 002C       'Bk.,'          CLR.W    $002C(A3)           
00000D34: 2F0B            '/.'            MOVE.L   A3,-(A7)            
00000D36: 4EBA 05B2       'N...'          JSR      *+$05B4             ; 000012EA
00000D3A: 4A40            'J@'            TST.W    D0                  
00000D3C: 588F            'X.'            ADDQ.L   #$4,A7              
00000D3E: 6768            'gh'            BEQ.S    *+$006A             ; 00000DA8
00000D40: 41ED 96A0       'A...'          LEA      -$6960(A5),A0       
00000D44: 2748 0020       ''H. '          MOVE.L   A0,$0020(A3)        
00000D48: 7001            'p.'            MOVEQ    #$01,D0             
00000D4A: 2740 0024       ''@.$'          MOVE.L   D0,$0024(A3)        
00000D4E: 426B 002C       'Bk.,'          CLR.W    $002C(A3)           
00000D52: 2F0B            '/.'            MOVE.L   A3,-(A7)            
00000D54: 4EBA 0594       'N...'          JSR      *+$0596             ; 000012EA
00000D58: 4A40            'J@'            TST.W    D0                  
00000D5A: 588F            'X.'            ADDQ.L   #$4,A7              
00000D5C: 674A            'gJ'            BEQ.S    *+$004C             ; 00000DA8
00000D5E: 2F0B            '/.'            MOVE.L   A3,-(A7)            
00000D60: 302D 968C       '0-..'          MOVE.W   -$6974(A5),D0       
00000D64: C1ED 968E       '....'          MULS.W   -$6972(A5),D0       
00000D68: 3F00            '?.'            MOVE.W   D0,-(A7)            
00000D6A: 4EBA 014C       'N..L'          JSR      *+$014E             ; 00000EB8
00000D6E: 2E8B            '..'            MOVE.L   A3,(A7)             
00000D70: 3F3C 0190       '?<..'          MOVE.W   #$0190,-(A7)        
00000D74: 4EBA 0208       'N...'          JSR      *+$020A             ; 00000F7E
00000D78: 4EBA 0352       'N..R'          JSR      *+$0354             ; 000010CC
00000D7C: 4AAD 9672       'J..r'          TST.L    -$698E(A5)          
00000D80: 508F            'P.'            ADDQ.L   #$8,A7              
00000D82: 6D18            'm.'            BLT.S    *+$001A             ; 00000D9C
00000D84: 4878 001C       'Hx..'          PEA      $001C               
00000D88: 2F2D 9672       '/-.r'          MOVE.L   -$698E(A5),-(A7)    
00000D8C: 4EAD 0042       'N..B'          JSR      $0042(A5)           
00000D90: 41ED 9B78       'A..x'          LEA      -$6488(A5),A0       
00000D94: D088            '..'            ADD.L    A0,D0               
00000D96: 2B40 9672       '+@.r'          MOVE.L   D0,-$698E(A5)       
00000D9A: 6004            '`.'            BRA.S    *+$0006             ; 00000DA0
00000D9C: 42AD 9672       'B..r'          CLR.L    -$698E(A5)          
00000DA0: 2F0B            '/.'            MOVE.L   A3,-(A7)            
00000DA2: 4EBA 05BA       'N...'          JSR      *+$05BC             ; 0000135E
00000DA6: 6008            '`.'            BRA.S    *+$000A             ; 00000DB0
00000DA8: 2F0B            '/.'            MOVE.L   A3,-(A7)            
00000DAA: 4EBA 062A       'N..*'          JSR      *+$062C             ; 000013D6
00000DAE: A9F4            '..'            _ExitToShell                     ; A9F4
00000DB0: 4CEE 1880 FFA0  'L.....'        MOVEM.L  -$0060(A6),D7/A3/A4 
00000DB6: 4E5E            'N^'            UNLK     A6                  
00000DB8: 4E75            'Nu'            RTS                          
00000DBA: 8A52            '.R'            OR.W     (A2),D5             
00000DBC: 6573            'es'            BCS.S    *+$0075             ; 00000E31
00000DBE: 756D            'um'            DC.W     $756D               ; ????
00000DC0: 6547            'eG'            BCS.S    *+$0049             ; 00000E09
00000DC2: 616D            'am'            BSR.S    *+$006F             ; 00000E31
00000DC4: 6500 0000       'e...'          BCS      *+$0002             ; 00000DC6
00000DC8: 4E56 0000       'NV..'          LINK     A6,#$0000           
00000DCC: 48E7 0118       'H...'          MOVEM.L  D7/A3/A4,-(A7)      
00000DD0: 286E 0008       '(n..'          MOVEA.L  $0008(A6),A4        
00000DD4: 266E 0010       '&n..'          MOVEA.L  $0010(A6),A3        
00000DD8: 42AC 000C       'B...'          CLR.L    $000C(A4)           
00000DDC: 41EB 000A       'A...'          LEA      $000A(A3),A0        
00000DE0: 2948 0012       ')H..'          MOVE.L   A0,$0012(A4)        
00000DE4: 396B 0006 0016  '9k....'        MOVE.W   $0006(A3),$0016(A4) 
00000DEA: 196B 0009 001A  '.k....'        MOVE.B   $0009(A3),$001A(A4) 
00000DF0: 426C 001C       'Bl..'          CLR.W    $001C(A4)           
00000DF4: 4267            'Bg'            CLR.W    -(A7)               
00000DF6: 2F0C            '/.'            MOVE.L   A4,-(A7)            
00000DF8: 4227            'B''            CLR.B    -(A7)               
00000DFA: 4EAD 018A       'N...'          JSR      $018A(A5)           
00000DFE: 3E1F            '>.'            MOVE.W   (A7)+,D7            
00000E00: 0C47 FFD0       '.G..'          CMPI.W   #$FFD0,D7           
00000E04: 662C            'f,'            BNE.S    *+$002E             ; 00000E32
00000E06: 4267            'Bg'            CLR.W    -(A7)               
00000E08: 2F0C            '/.'            MOVE.L   A4,-(A7)            
00000E0A: 4227            'B''            CLR.B    -(A7)               
00000E0C: 4EAD 0192       'N...'          JSR      $0192(A5)           
00000E10: 3E1F            '>.'            MOVE.W   (A7)+,D7            
00000E12: 4A47            'JG'            TST.W    D7                  
00000E14: 6710            'g.'            BEQ.S    *+$0012             ; 00000E26
00000E16: 3F07            '?.'            MOVE.W   D7,-(A7)            
00000E18: 2F3C 0000 1E86  '/<....'        MOVE.L   #$00001E86,-(A7)    
00000E1E: 4EBA 040E       'N...'          JSR      *+$0410             ; 0000122E
00000E22: 7000            'p.'            MOVEQ    #$00,D0             
00000E24: 607C            '`|'            BRA.S    *+$007E             ; 00000EA2
00000E26: 4267            'Bg'            CLR.W    -(A7)               
00000E28: 2F0C            '/.'            MOVE.L   A4,-(A7)            
00000E2A: 4227            'B''            CLR.B    -(A7)               
00000E2C: 4EAD 018A       'N...'          JSR      $018A(A5)           
00000E30: 3E1F            '>.'            MOVE.W   (A7)+,D7            
00000E32: 4A47            'JG'            TST.W    D7                  
00000E34: 6710            'g.'            BEQ.S    *+$0012             ; 00000E46
00000E36: 3F07            '?.'            MOVE.W   D7,-(A7)            
00000E38: 2F3C 0000 1EA4  '/<....'        MOVE.L   #$00001EA4,-(A7)    
00000E3E: 4EBA 03EE       'N...'          JSR      *+$03F0             ; 0000122E
00000E42: 7000            'p.'            MOVEQ    #$00,D0             
00000E44: 605C            '`\'            BRA.S    *+$005E             ; 00000EA2
00000E46: 4267            'Bg'            CLR.W    -(A7)               
00000E48: 2F0C            '/.'            MOVE.L   A4,-(A7)            
00000E4A: 4227            'B''            CLR.B    -(A7)               
00000E4C: 4EAD 019A       'N...'          JSR      $019A(A5)           
00000E50: 3E1F            '>.'            MOVE.W   (A7)+,D7            
00000E52: 4A47            'JG'            TST.W    D7                  
00000E54: 6716            'g.'            BEQ.S    *+$0018             ; 00000E6C
00000E56: 3F07            '?.'            MOVE.W   D7,-(A7)            
00000E58: 2F3C 0000 1EBA  '/<....'        MOVE.L   #$00001EBA,-(A7)    
00000E5E: 4EBA 03CE       'N...'          JSR      *+$03D0             ; 0000122E
00000E62: 2E8C            '..'            MOVE.L   A4,(A7)             
00000E64: 4EBA 04F8       'N...'          JSR      *+$04FA             ; 0000135E
00000E68: 7000            'p.'            MOVEQ    #$00,D0             
00000E6A: 6036            '`6'            BRA.S    *+$0038             ; 00000EA2
00000E6C: 297C 5353 5241  ')|SSRA'        MOVE.L   #$53535241,$0024(A4) ; 'SSRA'
          0024            '.$'    
00000E74: 296E 000C 0020  ')n... '        MOVE.L   $000C(A6),$0020(A4) 
00000E7A: 4267            'Bg'            CLR.W    -(A7)               
00000E7C: 2F0C            '/.'            MOVE.L   A4,-(A7)            
00000E7E: 4227            'B''            CLR.B    -(A7)               
00000E80: 4EAD 01A2       'N...'          JSR      $01A2(A5)           
00000E84: 3E1F            '>.'            MOVE.W   (A7)+,D7            
00000E86: 4A47            'JG'            TST.W    D7                  
00000E88: 6716            'g.'            BEQ.S    *+$0018             ; 00000EA0
00000E8A: 3F07            '?.'            MOVE.W   D7,-(A7)            
00000E8C: 2F3C 0000 1ED4  '/<....'        MOVE.L   #$00001ED4,-(A7)    
00000E92: 4EBA 039A       'N...'          JSR      *+$039C             ; 0000122E
00000E96: 2E8C            '..'            MOVE.L   A4,(A7)             
00000E98: 4EBA 04C4       'N...'          JSR      *+$04C6             ; 0000135E
00000E9C: 7000            'p.'            MOVEQ    #$00,D0             
00000E9E: 6002            '`.'            BRA.S    *+$0004             ; 00000EA2
00000EA0: 7001            'p.'            MOVEQ    #$01,D0             
00000EA2: 4CEE 1880 FFF4  'L.....'        MOVEM.L  -$000C(A6),D7/A3/A4 
00000EA8: 4E5E            'N^'            UNLK     A6                  
00000EAA: 4E75            'Nu'            RTS                          
00000EAC: 894D 616B       '.Mak'          PACK     -(A5),-(A4),#$616B  
00000EB0: 6541            'eA'            BCS.S    *+$0043             ; 00000EF3
00000EB2: 4669 6C65       'File'          NOT.W    $6C65(A1)           
00000EB6: 0000 4E56       '..NV'          ORI.B    #$4E56,D0           ; 'V'
00000EBA: 0000 2F07       '../.'          ORI.B    #$2F07,D0           
00000EBE: 7E00            '~.'            MOVEQ    #$00,D7             
00000EC0: 6000 00A0       '`...'          BRA      *+$00A2             ; 00000F62
00000EC4: 2007            ' .'            MOVE.L   D7,D0               
00000EC6: 48C0            'H.'            EXT.L    D0                  
00000EC8: E988            '..'            LSL.L    #$4,D0              
00000ECA: 204D            ' M'            MOVEA.L  A5,A0               
00000ECC: D1C0            '..'            ADDA.L   D0,A0               
00000ECE: 4AA8 C740       'J..@'          TST.L    -$38C0(A0)          
00000ED2: 6D2C            'm,'            BLT.S    *+$002E             ; 00000F00
00000ED4: 4878 001C       'Hx..'          PEA      $001C               
00000ED8: 2007            ' .'            MOVE.L   D7,D0               
00000EDA: 48C0            'H.'            EXT.L    D0                  
00000EDC: E988            '..'            LSL.L    #$4,D0              
00000EDE: 204D            ' M'            MOVEA.L  A5,A0               
00000EE0: D1C0            '..'            ADDA.L   D0,A0               
00000EE2: 2F28 C740       '/(.@'          MOVE.L   -$38C0(A0),-(A7)    
00000EE6: 4EAD 0042       'N..B'          JSR      $0042(A5)           
00000EEA: 2207            '".'            MOVE.L   D7,D1               
00000EEC: 48C1            'H.'            EXT.L    D1                  
00000EEE: E989            '..'            LSL.L    #$4,D1              
00000EF0: 41ED 9B78       'A..x'          LEA      -$6488(A5),A0       
00000EF4: D088            '..'            ADD.L    A0,D0               
00000EF6: 204D            ' M'            MOVEA.L  A5,A0               
00000EF8: D1C1            '..'            ADDA.L   D1,A0               
00000EFA: 2140 C740       '!@.@'          MOVE.L   D0,-$38C0(A0)       
00000EFE: 600E            '`.'            BRA.S    *+$0010             ; 00000F0E
00000F00: 2007            ' .'            MOVE.L   D7,D0               
00000F02: 48C0            'H.'            EXT.L    D0                  
00000F04: E988            '..'            LSL.L    #$4,D0              
00000F06: 204D            ' M'            MOVEA.L  A5,A0               
00000F08: D1C0            '..'            ADDA.L   D0,A0               
00000F0A: 42A8 C740       'B..@'          CLR.L    -$38C0(A0)          
00000F0E: 2007            ' .'            MOVE.L   D7,D0               
00000F10: 48C0            'H.'            EXT.L    D0                  
00000F12: E988            '..'            LSL.L    #$4,D0              
00000F14: 204D            ' M'            MOVEA.L  A5,A0               
00000F16: D1C0            '..'            ADDA.L   D0,A0               
00000F18: 4AA8 C744       'J..D'          TST.L    -$38BC(A0)          
00000F1C: 6742            'gB'            BEQ.S    *+$0044             ; 00000F60
00000F1E: 2F2E 000A       '/...'          MOVE.L   $000A(A6),-(A7)     
00000F22: 2007            ' .'            MOVE.L   D7,D0               
00000F24: 48C0            'H.'            EXT.L    D0                  
00000F26: E988            '..'            LSL.L    #$4,D0              
00000F28: 204D            ' M'            MOVEA.L  A5,A0               
00000F2A: D1C0            '..'            ADDA.L   D0,A0               
00000F2C: 2F28 C744       '/(.D'          MOVE.L   -$38BC(A0),-(A7)    
00000F30: 4EBA 027C       'N..|'          JSR      *+$027E             ; 000011AE
00000F34: 2207            '".'            MOVE.L   D7,D1               
00000F36: 48C1            'H.'            EXT.L    D1                  
00000F38: E989            '..'            LSL.L    #$4,D1              
00000F3A: 204D            ' M'            MOVEA.L  A5,A0               
00000F3C: D1C1            '..'            ADDA.L   D1,A0               
00000F3E: 2140 C744       '!@.D'          MOVE.L   D0,-$38BC(A0)       
00000F42: 2007            ' .'            MOVE.L   D7,D0               
00000F44: 48C0            'H.'            EXT.L    D0                  
00000F46: E988            '..'            LSL.L    #$4,D0              
00000F48: 204D            ' M'            MOVEA.L  A5,A0               
00000F4A: D1C0            '..'            ADDA.L   D0,A0               
00000F4C: 4AA8 C744       'J..D'          TST.L    -$38BC(A0)          
00000F50: 508F            'P.'            ADDQ.L   #$8,A7              
00000F52: 660C            'f.'            BNE.S    *+$000E             ; 00000F60
00000F54: 2F2E 000A       '/...'          MOVE.L   $000A(A6),-(A7)     
00000F58: 4EBA 047C       'N..|'          JSR      *+$047E             ; 000013D6
00000F5C: A9F4            '..'            _ExitToShell                     ; A9F4
00000F5E: 588F            'X.'            ADDQ.L   #$4,A7              
00000F60: 5247            'RG'            ADDQ.W   #$1,D7              
00000F62: BE6E 0008       '.n..'          CMP.W    $0008(A6),D7        
00000F66: 6D00 FF5C       'm..\'          BLT      *-$00A2             ; 00000EC4
00000F6A: 2E1F            '..'            MOVE.L   (A7)+,D7            
00000F6C: 4E5E            'N^'            UNLK     A6                  
00000F6E: 4E75            'Nu'            RTS                          
00000F70: 8B52            '.R'            OR.W     D5,(A2)             
00000F72: 6573            'es'            BCS.S    *+$0075             ; 00000FE7
00000F74: 746F            'to'            MOVEQ    #$6F,D2             ; 'o'
00000F76: 7265            're'            MOVEQ    #$65,D1             ; 'e'
00000F78: 4D61            'Ma'            DC.W     $4D61               ; ????
00000F7A: 7A65            'ze'            MOVEQ    #$65,D5             ; 'e'
00000F7C: 0000 4E56       '..NV'          ORI.B    #$4E56,D0           ; 'V'
00000F80: 0000 2F07       '../.'          ORI.B    #$2F07,D0           
00000F84: 7E00            '~.'            MOVEQ    #$00,D7             
00000F86: 6000 0126       '`..&'          BRA      *+$0128             ; 000010AE
00000F8A: 701C            'p.'            MOVEQ    #$1C,D0             
00000F8C: C1C7            '..'            MULS.W   D7,D0               
00000F8E: 204D            ' M'            MOVEA.L  A5,A0               
00000F90: D1C0            '..'            ADDA.L   D0,A0               
00000F92: 0828 0005 9B82  '.(....'        BTST     #$05,-$647E(A0)     
00000F98: 6700 0112       'g...'          BEQ      *+$0114             ; 000010AC
00000F9C: 701C            'p.'            MOVEQ    #$1C,D0             
00000F9E: C1C7            '..'            MULS.W   D7,D0               
00000FA0: 204D            ' M'            MOVEA.L  A5,A0               
00000FA2: D1C0            '..'            ADDA.L   D0,A0               
00000FA4: 4AA8 9B88       'J...'          TST.L    -$6478(A0)          
00000FA8: 6D28            'm('            BLT.S    *+$002A             ; 00000FD2
00000FAA: 4878 001C       'Hx..'          PEA      $001C               
00000FAE: 701C            'p.'            MOVEQ    #$1C,D0             
00000FB0: C1C7            '..'            MULS.W   D7,D0               
00000FB2: 204D            ' M'            MOVEA.L  A5,A0               
00000FB4: D1C0            '..'            ADDA.L   D0,A0               
00000FB6: 2F28 9B88       '/(..'          MOVE.L   -$6478(A0),-(A7)    
00000FBA: 4EAD 0042       'N..B'          JSR      $0042(A5)           
00000FBE: 721C            'r.'            MOVEQ    #$1C,D1             
00000FC0: C3C7            '..'            MULS.W   D7,D1               
00000FC2: 41ED 9B78       'A..x'          LEA      -$6488(A5),A0       
00000FC6: D088            '..'            ADD.L    A0,D0               
00000FC8: 204D            ' M'            MOVEA.L  A5,A0               
00000FCA: D1C1            '..'            ADDA.L   D1,A0               
00000FCC: 2140 9B88       '!@..'          MOVE.L   D0,-$6478(A0)       
00000FD0: 600C            '`.'            BRA.S    *+$000E             ; 00000FDE
00000FD2: 701C            'p.'            MOVEQ    #$1C,D0             
00000FD4: C1C7            '..'            MULS.W   D7,D0               
00000FD6: 204D            ' M'            MOVEA.L  A5,A0               
00000FD8: D1C0            '..'            ADDA.L   D0,A0               
00000FDA: 42A8 9B88       'B...'          CLR.L    -$6478(A0)          
00000FDE: 701C            'p.'            MOVEQ    #$1C,D0             
00000FE0: C1C7            '..'            MULS.W   D7,D0               
00000FE2: 204D            ' M'            MOVEA.L  A5,A0               
00000FE4: D1C0            '..'            ADDA.L   D0,A0               
00000FE6: 4AA8 9B8C       'J...'          TST.L    -$6474(A0)          
00000FEA: 6D28            'm('            BLT.S    *+$002A             ; 00001014
00000FEC: 4878 001C       'Hx..'          PEA      $001C               
00000FF0: 701C            'p.'            MOVEQ    #$1C,D0             
00000FF2: C1C7            '..'            MULS.W   D7,D0               
00000FF4: 204D            ' M'            MOVEA.L  A5,A0               
00000FF6: D1C0            '..'            ADDA.L   D0,A0               
00000FF8: 2F28 9B8C       '/(..'          MOVE.L   -$6474(A0),-(A7)    
00000FFC: 4EAD 0042       'N..B'          JSR      $0042(A5)           
00001000: 721C            'r.'            MOVEQ    #$1C,D1             
00001002: C3C7            '..'            MULS.W   D7,D1               
00001004: 41ED 9B78       'A..x'          LEA      -$6488(A5),A0       
00001008: D088            '..'            ADD.L    A0,D0               
0000100A: 204D            ' M'            MOVEA.L  A5,A0               
0000100C: D1C1            '..'            ADDA.L   D1,A0               
0000100E: 2140 9B8C       '!@..'          MOVE.L   D0,-$6474(A0)       
00001012: 600C            '`.'            BRA.S    *+$000E             ; 00001020
00001014: 701C            'p.'            MOVEQ    #$1C,D0             
00001016: C1C7            '..'            MULS.W   D7,D0               
00001018: 204D            ' M'            MOVEA.L  A5,A0               
0000101A: D1C0            '..'            ADDA.L   D0,A0               
0000101C: 42A8 9B8C       'B...'          CLR.L    -$6474(A0)          
00001020: 701C            'p.'            MOVEQ    #$1C,D0             
00001022: C1C7            '..'            MULS.W   D7,D0               
00001024: 204D            ' M'            MOVEA.L  A5,A0               
00001026: D1C0            '..'            ADDA.L   D0,A0               
00001028: 4AA8 9B90       'J...'          TST.L    -$6470(A0)          
0000102C: 6D28            'm('            BLT.S    *+$002A             ; 00001056
0000102E: 4878 001C       'Hx..'          PEA      $001C               
00001032: 701C            'p.'            MOVEQ    #$1C,D0             
00001034: C1C7            '..'            MULS.W   D7,D0               
00001036: 204D            ' M'            MOVEA.L  A5,A0               
00001038: D1C0            '..'            ADDA.L   D0,A0               
0000103A: 2F28 9B90       '/(..'          MOVE.L   -$6470(A0),-(A7)    
0000103E: 4EAD 0042       'N..B'          JSR      $0042(A5)           
00001042: 721C            'r.'            MOVEQ    #$1C,D1             
00001044: C3C7            '..'            MULS.W   D7,D1               
00001046: 41ED 9B78       'A..x'          LEA      -$6488(A5),A0       
0000104A: D088            '..'            ADD.L    A0,D0               
0000104C: 204D            ' M'            MOVEA.L  A5,A0               
0000104E: D1C1            '..'            ADDA.L   D1,A0               
00001050: 2140 9B90       '!@..'          MOVE.L   D0,-$6470(A0)       
00001054: 600C            '`.'            BRA.S    *+$000E             ; 00001062
00001056: 701C            'p.'            MOVEQ    #$1C,D0             
00001058: C1C7            '..'            MULS.W   D7,D0               
0000105A: 204D            ' M'            MOVEA.L  A5,A0               
0000105C: D1C0            '..'            ADDA.L   D0,A0               
0000105E: 42A8 9B90       'B...'          CLR.L    -$6470(A0)          
00001062: 701C            'p.'            MOVEQ    #$1C,D0             
00001064: C1C7            '..'            MULS.W   D7,D0               
00001066: 204D            ' M'            MOVEA.L  A5,A0               
00001068: D1C0            '..'            ADDA.L   D0,A0               
0000106A: 4AA8 9B84       'J...'          TST.L    -$647C(A0)          
0000106E: 673C            'g<'            BEQ.S    *+$003E             ; 000010AC
00001070: 2F2E 000A       '/...'          MOVE.L   $000A(A6),-(A7)     
00001074: 701C            'p.'            MOVEQ    #$1C,D0             
00001076: C1C7            '..'            MULS.W   D7,D0               
00001078: 204D            ' M'            MOVEA.L  A5,A0               
0000107A: D1C0            '..'            ADDA.L   D0,A0               
0000107C: 2F28 9B84       '/(..'          MOVE.L   -$647C(A0),-(A7)    
00001080: 4EBA 012C       'N..,'          JSR      *+$012E             ; 000011AE
00001084: 721C            'r.'            MOVEQ    #$1C,D1             
00001086: C3C7            '..'            MULS.W   D7,D1               
00001088: 204D            ' M'            MOVEA.L  A5,A0               
0000108A: D1C1            '..'            ADDA.L   D1,A0               
0000108C: 2140 9B84       '!@..'          MOVE.L   D0,-$647C(A0)       
00001090: 701C            'p.'            MOVEQ    #$1C,D0             
00001092: C1C7            '..'            MULS.W   D7,D0               
00001094: 204D            ' M'            MOVEA.L  A5,A0               
00001096: D1C0            '..'            ADDA.L   D0,A0               
00001098: 4AA8 9B84       'J...'          TST.L    -$647C(A0)          
0000109C: 508F            'P.'            ADDQ.L   #$8,A7              
0000109E: 660C            'f.'            BNE.S    *+$000E             ; 000010AC
000010A0: 2F2E 000A       '/...'          MOVE.L   $000A(A6),-(A7)     
000010A4: 4EBA 0330       'N..0'          JSR      *+$0332             ; 000013D6
000010A8: A9F4            '..'            _ExitToShell                     ; A9F4
000010AA: 588F            'X.'            ADDQ.L   #$4,A7              
000010AC: 5247            'RG'            ADDQ.W   #$1,D7              
000010AE: BE6E 0008       '.n..'          CMP.W    $0008(A6),D7        
000010B2: 6D00 FED6       'm...'          BLT      *-$0128             ; 00000F8A
000010B6: 2E1F            '..'            MOVE.L   (A7)+,D7            
000010B8: 4E5E            'N^'            UNLK     A6                  
000010BA: 4E75            'Nu'            RTS                          
000010BC: 8D52            '.R'            OR.W     D6,(A2)             
000010BE: 6573            'es'            BCS.S    *+$0075             ; 00001133
000010C0: 746F            'to'            MOVEQ    #$6F,D2             ; 'o'
000010C2: 7265            're'            MOVEQ    #$65,D1             ; 'e'
000010C4: 5468 696E       'Thin'          ADDQ.W   #$2,$696E(A0)       
000010C8: 6773            'gs'            BEQ.S    *+$0075             ; 0000113D
000010CA: 0000 2F07       '../.'          ORI.B    #$2F07,D0           
000010CE: 3E2D 9694       '>-..'          MOVE.W   -$696C(A5),D7       
000010D2: 606C            '`l'            BRA.S    *+$006E             ; 00001140
000010D4: 7014            'p.'            MOVEQ    #$14,D0             
000010D6: C1C7            '..'            MULS.W   D7,D0               
000010D8: 204D            ' M'            MOVEA.L  A5,A0               
000010DA: D1C0            '..'            ADDA.L   D0,A0               
000010DC: 70FF            'p.'            MOVEQ    #$FF,D0             
000010DE: B0A8 E03C       '...<'          CMP.L    -$1FC4(A0),D0       
000010E2: 6728            'g('            BEQ.S    *+$002A             ; 0000110C
000010E4: 4878 001C       'Hx..'          PEA      $001C               
000010E8: 7014            'p.'            MOVEQ    #$14,D0             
000010EA: C1C7            '..'            MULS.W   D7,D0               
000010EC: 204D            ' M'            MOVEA.L  A5,A0               
000010EE: D1C0            '..'            ADDA.L   D0,A0               
000010F0: 2F28 E03C       '/(.<'          MOVE.L   -$1FC4(A0),-(A7)    
000010F4: 4EAD 0042       'N..B'          JSR      $0042(A5)           
000010F8: 7214            'r.'            MOVEQ    #$14,D1             
000010FA: C3C7            '..'            MULS.W   D7,D1               
000010FC: 41ED 9B78       'A..x'          LEA      -$6488(A5),A0       
00001100: D088            '..'            ADD.L    A0,D0               
00001102: 204D            ' M'            MOVEA.L  A5,A0               
00001104: D1C1            '..'            ADDA.L   D1,A0               
00001106: 2140 E03C       '!@.<'          MOVE.L   D0,-$1FC4(A0)       
0000110A: 600C            '`.'            BRA.S    *+$000E             ; 00001118
0000110C: 7014            'p.'            MOVEQ    #$14,D0             
0000110E: C1C7            '..'            MULS.W   D7,D0               
00001110: 204D            ' M'            MOVEA.L  A5,A0               
00001112: D1C0            '..'            ADDA.L   D0,A0               
00001114: 42A8 E03C       'B..<'          CLR.L    -$1FC4(A0)          
00001118: 7014            'p.'            MOVEQ    #$14,D0             
0000111A: C1C7            '..'            MULS.W   D7,D0               
0000111C: 204D            ' M'            MOVEA.L  A5,A0               
0000111E: D1C0            '..'            ADDA.L   D0,A0               
00001120: 2028 E040       ' (.@'          MOVE.L   -$1FC0(A0),D0       
00001124: D0B8 0904       '....'          ADD.L    $0904,D0            
00001128: 7214            'r.'            MOVEQ    #$14,D1             
0000112A: C3C7            '..'            MULS.W   D7,D1               
0000112C: 204D            ' M'            MOVEA.L  A5,A0               
0000112E: D1C1            '..'            ADDA.L   D1,A0               
00001130: 2140 E040       '!@.@'          MOVE.L   D0,-$1FC0(A0)       
00001134: 7014            'p.'            MOVEQ    #$14,D0             
00001136: C1C7            '..'            MULS.W   D7,D0               
00001138: 204D            ' M'            MOVEA.L  A5,A0               
0000113A: D1C0            '..'            ADDA.L   D0,A0               
0000113C: 3E28 E048       '>(.H'          MOVE.W   -$1FB8(A0),D7       
00001140: 4A47            'JG'            TST.W    D7                  
00001142: 6C90            'l.'            BGE.S    *-$006E             ; 000010D4
00001144: 2E1F            '..'            MOVE.L   (A7)+,D7            
00001146: 4E75            'Nu'            RTS                          
00001148: 4E56 FFFA       'NV..'          LINK     A6,#$FFFA           
0000114C: 48E7 0018       'H...'          MOVEM.L  A3/A4,-(A7)         
00001150: 286E 000C       '(n..'          MOVEA.L  $000C(A6),A4        
00001154: 4267            'Bg'            CLR.W    -(A7)               
00001156: 3F2C 0018       '?,..'          MOVE.W   $0018(A4),-(A7)     
0000115A: 486E FFFA       'Hn..'          PEA      -$0006(A6)          
0000115E: 4EAD 01AA       'N...'          JSR      $01AA(A5)           
00001162: 266E FFFA       '&n..'          MOVEA.L  -$0006(A6),A3       
00001166: 206E 0008       ' n..'          MOVEA.L  $0008(A6),A0        
0000116A: 7000            'p.'            MOVEQ    #$00,D0             
0000116C: 1010            '..'            MOVE.B   (A0),D0             
0000116E: 2D40 FFFA       '-@..'          MOVE.L   D0,-$0006(A6)       
00001172: 2948 0020       ')H. '          MOVE.L   A0,$0020(A4)        
00001176: 7001            'p.'            MOVEQ    #$01,D0             
00001178: D0AE FFFA       '....'          ADD.L    -$0006(A6),D0       
0000117C: 2940 0024       ')@.$'          MOVE.L   D0,$0024(A4)        
00001180: 397C 0002 002C  '9|...,'        MOVE.W   #$0002,$002C(A4)    
00001186: 42AC 002E       'B...'          CLR.L    $002E(A4)           
0000118A: 2F0C            '/.'            MOVE.L   A4,-(A7)            
0000118C: 4EBA 00D2       'N...'          JSR      *+$00D4             ; 00001260
00001190: 4A40            'J@'            TST.W    D0                  
00001192: 5C8F            '\.'            ADDQ.L   #$6,A7              
00001194: 6604            'f.'            BNE.S    *+$0006             ; 0000119A
00001196: 7000            'p.'            MOVEQ    #$00,D0             
00001198: 6002            '`.'            BRA.S    *+$0004             ; 0000119C
0000119A: 200B            ' .'            MOVE.L   A3,D0               
0000119C: 4CDF 1800       'L...'          MOVEM.L  (A7)+,A3/A4         
000011A0: 4E5E            'N^'            UNLK     A6                  
000011A2: 4E75            'Nu'            RTS                          
000011A4: 8744 6973       '.Dis'          PACK     D4,D3,#$6973        
000011A8: 6B53            'kS'            BMI.S    *+$0055             ; 000011FD
000011AA: 7472            'tr'            MOVEQ    #$72,D2             ; 'r'
000011AC: 0000 4E56       '..NV'          ORI.B    #$4E56,D0           ; 'V'
000011B0: FFFC            '..'            DC.W     $FFFC               ; ????
000011B2: 48E7 0018       'H...'          MOVEM.L  A3/A4,-(A7)         
000011B6: 286E 000C       '(n..'          MOVEA.L  $000C(A6),A4        
000011BA: 41EE FFFD       'A...'          LEA      -$0003(A6),A0       
000011BE: 2948 0020       ')H. '          MOVE.L   A0,$0020(A4)        
000011C2: 7001            'p.'            MOVEQ    #$01,D0             
000011C4: 2940 0024       ')@.$'          MOVE.L   D0,$0024(A4)        
000011C8: 397C 0001 002C  '9|...,'        MOVE.W   #$0001,$002C(A4)    
000011CE: 296E 0008 002E  ')n....'        MOVE.L   $0008(A6),$002E(A4) 
000011D4: 2F0C            '/.'            MOVE.L   A4,-(A7)            
000011D6: 4EBA 0112       'N...'          JSR      *+$0114             ; 000012EA
000011DA: 4A40            'J@'            TST.W    D0                  
000011DC: 588F            'X.'            ADDQ.L   #$4,A7              
000011DE: 6604            'f.'            BNE.S    *+$0006             ; 000011E4
000011E0: 7000            'p.'            MOVEQ    #$00,D0             
000011E2: 6034            '`4'            BRA.S    *+$0036             ; 00001218
000011E4: 7000            'p.'            MOVEQ    #$00,D0             
000011E6: 102E FFFD       '....'          MOVE.B   -$0003(A6),D0       
000011EA: 5280            'R.'            ADDQ.L   #$1,D0              
000011EC: A11E            '..'            _NewPtr                      ; A11E
000011EE: 2648            '&H'            MOVEA.L  A0,A3               
000011F0: 16AE FFFD       '....'          MOVE.B   -$0003(A6),(A3)     
000011F4: 41EB 0001       'A...'          LEA      $0001(A3),A0        
000011F8: 2948 0020       ')H. '          MOVE.L   A0,$0020(A4)        
000011FC: 7000            'p.'            MOVEQ    #$00,D0             
000011FE: 102E FFFD       '....'          MOVE.B   -$0003(A6),D0       
00001202: 2940 0024       ')@.$'          MOVE.L   D0,$0024(A4)        
00001206: 2F0C            '/.'            MOVE.L   A4,-(A7)            
00001208: 4EBA 00E0       'N...'          JSR      *+$00E2             ; 000012EA
0000120C: 4A40            'J@'            TST.W    D0                  
0000120E: 588F            'X.'            ADDQ.L   #$4,A7              
00001210: 6604            'f.'            BNE.S    *+$0006             ; 00001216
00001212: 7000            'p.'            MOVEQ    #$00,D0             
00001214: 6002            '`.'            BRA.S    *+$0004             ; 00001218
00001216: 200B            ' .'            MOVE.L   A3,D0               
00001218: 4CDF 1800       'L...'          MOVEM.L  (A7)+,A3/A4         
0000121C: 4E5E            'N^'            UNLK     A6                  
0000121E: 4E75            'Nu'            RTS                          
00001220: 8A47            '.G'            OR.W     D7,D5               
00001222: 6574            'et'            BCS.S    *+$0076             ; 00001298
00001224: 4469 736B       'Disk'          NEG.W    $736B(A1)           
00001228: 5374 7200       'Str.'          SUBQ.W   #$1,$00(A4,D7.W*2)  
0000122C: 0000 4E56       '..NV'          ORI.B    #$4E56,D0           ; 'V'
00001230: 0000 2F3C       '../<'          ORI.B    #$2F3C,D0           ; '<'
00001234: 0000 1EEE       '....'          ORI.B    #$1EEE,D0           
00001238: 306E 000C       '0n..'          MOVEA.W  $000C(A6),A0        
0000123C: 2F08            '/.'            MOVE.L   A0,-(A7)            
0000123E: 4EAD 0502       'N...'          JSR      $0502(A5)           
00001242: 2E80            '..'            MOVE.L   D0,(A7)             
00001244: 2F3C 0000 1EF0  '/<....'        MOVE.L   #$00001EF0,-(A7)    
0000124A: 2F2E 0008       '/...'          MOVE.L   $0008(A6),-(A7)     
0000124E: 4EAD 051A       'N...'          JSR      $051A(A5)           
00001252: 4E5E            'N^'            UNLK     A6                  
00001254: 4E75            'Nu'            RTS                          
00001256: 8753            '.S'            OR.W     D3,(A3)             
00001258: 6176            'av'            BSR.S    *+$0078             ; 000012D0
0000125A: 6545            'eE'            BCS.S    *+$0047             ; 000012A1
0000125C: 7272            'rr'            MOVEQ    #$72,D1             ; 'r'
0000125E: 0000 4E56       '..NV'          ORI.B    #$4E56,D0           ; 'V'
00001262: 0000 48E7       '..H.'          ORI.B    #$48E7,D0           
00001266: 0108 286E       '..(n'          MOVEP.W  $286E(A0),D0        
0000126A: 0008 4267       '..Bg'          ORI.B    #$4267,A0           ; 'g'
0000126E: 2F0C            '/.'            MOVE.L   A4,-(A7)            
00001270: 4227            'B''            CLR.B    -(A7)               
00001272: 4EAD 017A       'N..z'          JSR      $017A(A5)           
00001276: 3E1F            '>.'            MOVE.W   (A7)+,D7            
00001278: 4A47            'JG'            TST.W    D7                  
0000127A: 6728            'g('            BEQ.S    *+$002A             ; 000012A4
0000127C: 0C47 FFDE       '.G..'          CMPI.W   #$FFDE,D7           
00001280: 6610            'f.'            BNE.S    *+$0012             ; 00001292
00001282: 3F07            '?.'            MOVE.W   D7,-(A7)            
00001284: 2F3C 0000 1EFA  '/<....'        MOVE.L   #$00001EFA,-(A7)    
0000128A: 4EBA FFA2       'N...'          JSR      *-$005C             ; 0000122E
0000128E: 5C8F            '\.'            ADDQ.L   #$6,A7              
00001290: 600E            '`.'            BRA.S    *+$0010             ; 000012A0
00001292: 3F07            '?.'            MOVE.W   D7,-(A7)            
00001294: 2F3C 0000 1F08  '/<....'        MOVE.L   #$00001F08,-(A7)    
0000129A: 4EBA FF92       'N...'          JSR      *-$006C             ; 0000122E
0000129E: 5C8F            '\.'            ADDQ.L   #$6,A7              
000012A0: 7000            'p.'            MOVEQ    #$00,D0             
000012A2: 6034            '`4'            BRA.S    *+$0036             ; 000012D8
000012A4: 202C 0028       ' ,.('          MOVE.L   $0028(A4),D0        
000012A8: B0AC 0024       '...$'          CMP.L    $0024(A4),D0        
000012AC: 6728            'g('            BEQ.S    *+$002A             ; 000012D6
000012AE: 2F2C 0028       '/,.('          MOVE.L   $0028(A4),-(A7)     
000012B2: 4EAD 0502       'N...'          JSR      $0502(A5)           
000012B6: 2E80            '..'            MOVE.L   D0,(A7)             
000012B8: 2F3C 0000 1F20  '/<... '        MOVE.L   #$00001F20,-(A7)    
000012BE: 2F2C 0024       '/,.$'          MOVE.L   $0024(A4),-(A7)     
000012C2: 4EAD 0502       'N...'          JSR      $0502(A5)           
000012C6: 2E80            '..'            MOVE.L   D0,(A7)             
000012C8: 2F3C 0000 1F30  '/<...0'        MOVE.L   #$00001F30,-(A7)    
000012CE: 4EAD 051A       'N...'          JSR      $051A(A5)           
000012D2: 4FEF 0010       'O...'          LEA      $0010(A7),A7        
000012D6: 7001            'p.'            MOVEQ    #$01,D0             
000012D8: 4CDF 1080       'L...'          MOVEM.L  (A7)+,D7/A4         
000012DC: 4E5E            'N^'            UNLK     A6                  
000012DE: 4E75            'Nu'            RTS                          
000012E0: 876D 7957       '.myW'          OR.W     D3,$7957(A5)        
000012E4: 7269            'ri'            MOVEQ    #$69,D1             ; 'i'
000012E6: 7465            'te'            MOVEQ    #$65,D2             ; 'e'
000012E8: 0000 4E56       '..NV'          ORI.B    #$4E56,D0           ; 'V'
000012EC: 0000 48E7       '..H.'          ORI.B    #$48E7,D0           
000012F0: 0108 286E       '..(n'          MOVEP.W  $286E(A0),D0        
000012F4: 0008 4267       '..Bg'          ORI.B    #$4267,A0           ; 'g'
000012F8: 2F0C            '/.'            MOVE.L   A4,-(A7)            
000012FA: 4227            'B''            CLR.B    -(A7)               
000012FC: 4EAD 0172       'N..r'          JSR      $0172(A5)           
00001300: 3E1F            '>.'            MOVE.W   (A7)+,D7            
00001302: 4A47            'JG'            TST.W    D7                  
00001304: 6710            'g.'            BEQ.S    *+$0012             ; 00001316
00001306: 3F07            '?.'            MOVE.W   D7,-(A7)            
00001308: 2F3C 0000 1F44  '/<...D'        MOVE.L   #$00001F44,-(A7)    
0000130E: 4EBA FF1E       'N...'          JSR      *-$00E0             ; 0000122E
00001312: 7000            'p.'            MOVEQ    #$00,D0             
00001314: 6034            '`4'            BRA.S    *+$0036             ; 0000134A
00001316: 202C 0028       ' ,.('          MOVE.L   $0028(A4),D0        
0000131A: B0AC 0024       '...$'          CMP.L    $0024(A4),D0        
0000131E: 6728            'g('            BEQ.S    *+$002A             ; 00001348
00001320: 2F2C 0028       '/,.('          MOVE.L   $0028(A4),-(A7)     
00001324: 4EAD 0502       'N...'          JSR      $0502(A5)           
00001328: 2E80            '..'            MOVE.L   D0,(A7)             
0000132A: 2F3C 0000 1F5C  '/<...\'        MOVE.L   #$00001F5C,-(A7)    
00001330: 2F2C 0024       '/,.$'          MOVE.L   $0024(A4),-(A7)     
00001334: 4EAD 0502       'N...'          JSR      $0502(A5)           
00001338: 2E80            '..'            MOVE.L   D0,(A7)             
0000133A: 2F3C 0000 1F6A  '/<...j'        MOVE.L   #$00001F6A,-(A7)    
00001340: 4EAD 051A       'N...'          JSR      $051A(A5)           
00001344: 4FEF 0010       'O...'          LEA      $0010(A7),A7        
00001348: 7001            'p.'            MOVEQ    #$01,D0             
0000134A: 4CEE 1080 FFF8  'L.....'        MOVEM.L  -$0008(A6),D7/A4    
00001350: 4E5E            'N^'            UNLK     A6                  
00001352: 4E75            'Nu'            RTS                          
00001354: 866D 7952       '.myR'          OR.W     $7952(A5),D3        
00001358: 6561            'ea'            BCS.S    *+$0063             ; 000013BB
0000135A: 6400 0000       'd...'          BCC      *+$0002             ; 0000135C
0000135E: 4E56 0000       'NV..'          LINK     A6,#$0000           
00001362: 2F07            '/.'            MOVE.L   D7,-(A7)            
00001364: 4267            'Bg'            CLR.W    -(A7)               
00001366: 2F2E 0008       '/...'          MOVE.L   $0008(A6),-(A7)     
0000136A: 4227            'B''            CLR.B    -(A7)               
0000136C: 4EAD 016A       'N..j'          JSR      $016A(A5)           
00001370: 3E1F            '>.'            MOVE.W   (A7)+,D7            
00001372: 4A47            'JG'            TST.W    D7                  
00001374: 670E            'g.'            BEQ.S    *+$0010             ; 00001384
00001376: 3F07            '?.'            MOVE.W   D7,-(A7)            
00001378: 2F3C 0000 1F7E  '/<...~'        MOVE.L   #$00001F7E,-(A7)    
0000137E: 4EBA FEAE       'N...'          JSR      *-$0150             ; 0000122E
00001382: 6040            '`@'            BRA.S    *+$0042             ; 000013C4
00001384: 4267            'Bg'            CLR.W    -(A7)               
00001386: 2F2E 0008       '/...'          MOVE.L   $0008(A6),-(A7)     
0000138A: 4227            'B''            CLR.B    -(A7)               
0000138C: 4EAD 0192       'N...'          JSR      $0192(A5)           
00001390: 3E1F            '>.'            MOVE.W   (A7)+,D7            
00001392: 4A47            'JG'            TST.W    D7                  
00001394: 6710            'g.'            BEQ.S    *+$0012             ; 000013A6
00001396: 3F07            '?.'            MOVE.W   D7,-(A7)            
00001398: 2F3C 0000 1F92  '/<....'        MOVE.L   #$00001F92,-(A7)    
0000139E: 4EBA FE8E       'N...'          JSR      *-$0170             ; 0000122E
000013A2: 7000            'p.'            MOVEQ    #$00,D0             
000013A4: 601E            '`.'            BRA.S    *+$0020             ; 000013C4
000013A6: 4267            'Bg'            CLR.W    -(A7)               
000013A8: 2F2E 0008       '/...'          MOVE.L   $0008(A6),-(A7)     
000013AC: 4227            'B''            CLR.B    -(A7)               
000013AE: 4EAD 0182       'N...'          JSR      $0182(A5)           
000013B2: 3E1F            '>.'            MOVE.W   (A7)+,D7            
000013B4: 4A47            'JG'            TST.W    D7                  
000013B6: 670C            'g.'            BEQ.S    *+$000E             ; 000013C4
000013B8: 3F07            '?.'            MOVE.W   D7,-(A7)            
000013BA: 2F3C 0000 1FA8  '/<....'        MOVE.L   #$00001FA8,-(A7)    
000013C0: 4EBA FE6C       'N..l'          JSR      *-$0192             ; 0000122E
000013C4: 2E2E FFFC       '....'          MOVE.L   -$0004(A6),D7       
000013C8: 4E5E            'N^'            UNLK     A6                  
000013CA: 4E75            'Nu'            RTS                          
000013CC: 8743 6C65       '.Cle'          PACK     D3,D3,#$6C65        
000013D0: 616E            'an'            BSR.S    *+$0070             ; 00001440
000013D2: 7570            'up'            DC.W     $7570               ; ????
000013D4: 0000 4E56       '..NV'          ORI.B    #$4E56,D0           ; 'V'
000013D8: 0000 2F07       '../.'          ORI.B    #$2F07,D0           
000013DC: 4267            'Bg'            CLR.W    -(A7)               
000013DE: 2F2E 0008       '/...'          MOVE.L   $0008(A6),-(A7)     
000013E2: 4227            'B''            CLR.B    -(A7)               
000013E4: 4EAD 016A       'N..j'          JSR      $016A(A5)           
000013E8: 3E1F            '>.'            MOVE.W   (A7)+,D7            
000013EA: 4A47            'JG'            TST.W    D7                  
000013EC: 670E            'g.'            BEQ.S    *+$0010             ; 000013FC
000013EE: 3F07            '?.'            MOVE.W   D7,-(A7)            
000013F0: 2F3C 0000 1FBE  '/<....'        MOVE.L   #$00001FBE,-(A7)    
000013F6: 4EBA FE36       'N..6'          JSR      *-$01C8             ; 0000122E
000013FA: 5C8F            '\.'            ADDQ.L   #$6,A7              
000013FC: 2E1F            '..'            MOVE.L   (A7)+,D7            
000013FE: 4E5E            'N^'            UNLK     A6                  
00001400: 4E75            'Nu'            RTS                          
00001402: 876D 7943       '.myC'          OR.W     D3,$7943(A5)        
00001406: 6C6F            'lo'            BGE.S    *+$0071             ; 00001477
00001408: 7365            'se'            DC.W     $7365               ; ????
0000140A: 0000            '..'            DC.W     $0000            
                    

File: Scarab, Resource 45, Type: CODE
First jump table entry offset = $8350, Jump table entries used = 6
Segment size = $314 [788]
00000000: 4E56 0000       'NV..'          LINK     A6,#$0000           
00000004: 2F3C 0000 1534  '/<...4'        MOVE.L   #$00001534,-(A7)    
0000000A: 4EAD 00F2       'N...'          JSR      $00F2(A5)           
0000000E: 3E80            '>.'            MOVE.W   D0,(A7)             
00000010: 302D 9B48       '0-.H'          MOVE.W   -$64B8(A5),D0       
00000014: 48C0            'H.'            EXT.L    D0                  
00000016: E988            '..'            LSL.L    #$4,D0              
00000018: 204D            ' M'            MOVEA.L  A5,A0               
0000001A: D1C0            '..'            ADDA.L   D0,A0               
0000001C: 2F28 C740       '/(.@'          MOVE.L   -$38C0(A0),-(A7)    
00000020: 4EAD 00D2       'N...'          JSR      $00D2(A5)           
00000024: 4A80            'J.'            TST.L    D0                  
00000026: 508F            'P.'            ADDQ.L   #$8,A7              
00000028: 6704            'g.'            BEQ.S    *+$0006             ; 0000002E
0000002A: 7000            'p.'            MOVEQ    #$00,D0             
0000002C: 6022            '`"'            BRA.S    *+$0024             ; 00000050
0000002E: 206E 0008       ' n..'          MOVEA.L  $0008(A6),A0        
00000032: 0828 0001 0009  '.(....'        BTST     #$01,$0009(A0)      
00000038: 6704            'g.'            BEQ.S    *+$0006             ; 0000003E
0000003A: 7000            'p.'            MOVEQ    #$00,D0             
0000003C: 6012            '`.'            BRA.S    *+$0014             ; 00000050
0000003E: 3F3C 000F       '?<..'          MOVE.W   #$000F,-(A7)        
00000042: 4EAD 050A       'N...'          JSR      $050A(A5)           
00000046: B06D 9684       '.m..'          CMP.W    -$697C(A5),D0       
0000004A: 5CC0            '\.'            SGE      D0                  
0000004C: 4400            'D.'            NEG.B    D0                  
0000004E: 4880            'H.'            EXT.W    D0                  
00000050: 4E5E            'N^'            UNLK     A6                  
00000052: 4E75            'Nu'            RTS                          
00000054: 8A73 7072       '.spr'          OR.W     $72(A3,D7.W),D5     
00000058: 696E            'in'            BVS.S    *+$0070             ; 000000C8
0000005A: 6774            'gt'            BEQ.S    *+$0076             ; 000000D0
0000005C: 7261            'ra'            MOVEQ    #$61,D1             ; 'a'
0000005E: 7000            'p.'            MOVEQ    #$00,D0             
00000060: 0000 4E56       '..NV'          ORI.B    #$4E56,D0           ; 'V'
00000064: 0000 206E       '.. n'          ORI.B    #$206E,D0           ; 'n'
00000068: 0008 0068       '...h'          ORI.B    #$68,A0             ; 'h'
0000006C: 0002 0008       '....'          ORI.B    #$08,D2             
00000070: 0268 FEFF 000A  '.h....'        ANDI.W   #$FEFF,$000A(A0)    
00000076: 117C 0001 0006  '.|....'        MOVE.B   #$01,$0006(A0)      
0000007C: 4EBA 0236       'N..6'          JSR      *+$0238             ; 000002B4
00000080: 4E5E            'N^'            UNLK     A6                  
00000082: 4E75            'Nu'            RTS                          
00000084: 8474 7269       '.tri'          OR.W     $69(A4,D7.W*2),D2   
00000088: 7000            'p.'            MOVEQ    #$00,D0             
0000008A: 0000 4E56       '..NV'          ORI.B    #$4E56,D0           ; 'V'
0000008E: 0000 2F2E       '../.'          ORI.B    #$2F2E,D0           ; '.'
00000092: 0008 4EBA       '..N.'          ORI.B    #$4EBA,A0           
00000096: FF6A            '.j'            DC.W     $FF6A               ; ????
00000098: 4A40            'J@'            TST.W    D0                  
0000009A: 588F            'X.'            ADDQ.L   #$4,A7              
0000009C: 672E            'g.'            BEQ.S    *+$0030             ; 000000CC
0000009E: 2F3C 0000 153A  '/<...:'        MOVE.L   #$0000153A,-(A7)    
000000A4: 4EAD 040A       'N...'          JSR      $040A(A5)           
000000A8: 2EAE 0008       '....'          MOVE.L   $0008(A6),(A7)      
000000AC: 4EBA FFB4       'N...'          JSR      *-$004A             ; 00000062
000000B0: 3EBC 000A       '>...'          MOVE.W   #$000A,(A7)         
000000B4: 4EAD 050A       'N...'          JSR      $050A(A5)           
000000B8: 7214            'r.'            MOVEQ    #$14,D1             
000000BA: 9240            '.@'            SUB.W    D0,D1               
000000BC: 4441            'DA'            NEG.W    D1                  
000000BE: 3E81            '>.'            MOVE.W   D1,(A7)             
000000C0: 4EAD 0492       'N...'          JSR      $0492(A5)           
000000C4: 4257            'BW'            CLR.W    (A7)                
000000C6: 4EAD 0462       'N..b'          JSR      $0462(A5)           
000000CA: 588F            'X.'            ADDQ.L   #$4,A7              
000000CC: 4E5E            'N^'            UNLK     A6                  
000000CE: 4E75            'Nu'            RTS                          
000000D0: 8973 7065       '.spe'          OR.W     D4,$65(A3,D7.W)     
000000D4: 6172            'ar'            BSR.S    *+$0074             ; 00000148
000000D6: 7472            'tr'            MOVEQ    #$72,D2             ; 'r'
000000D8: 6170            'ap'            BSR.S    *+$0072             ; 0000014A
000000DA: 0000 4E56       '..NV'          ORI.B    #$4E56,D0           ; 'V'
000000DE: 0000 2F0C       '../.'          ORI.B    #$2F0C,D0           
000000E2: 2F2E 0008       '/...'          MOVE.L   $0008(A6),-(A7)     
000000E6: 4EBA FF18       'N...'          JSR      *-$00E6             ; 00000000
000000EA: 4A40            'J@'            TST.W    D0                  
000000EC: 588F            'X.'            ADDQ.L   #$4,A7              
000000EE: 673E            'g>'            BEQ.S    *+$0040             ; 0000012E
000000F0: 2F3C 0000 1566  '/<...f'        MOVE.L   #$00001566,-(A7)    
000000F6: 4EAD 040A       'N...'          JSR      $040A(A5)           
000000FA: 2EAE 0008       '....'          MOVE.L   $0008(A6),(A7)      
000000FE: 4EBA FF62       'N..b'          JSR      *-$009C             ; 00000062
00000102: 4A2D 9699       'J-..'          TST.B    -$6967(A5)          
00000106: 588F            'X.'            ADDQ.L   #$4,A7              
00000108: 6724            'g$'            BEQ.S    *+$0026             ; 0000012E
0000010A: 2F3C 0000 1590  '/<....'        MOVE.L   #$00001590,-(A7)    
00000110: 4EAD 00F2       'N...'          JSR      $00F2(A5)           
00000114: 3E80            '>.'            MOVE.W   D0,(A7)             
00000116: 2F2D 9672       '/-.r'          MOVE.L   -$698E(A5),-(A7)    
0000011A: 4EAD 00D2       'N...'          JSR      $00D2(A5)           
0000011E: 2840            '(@'            MOVEA.L  D0,A4               
00000120: 200C            ' .'            MOVE.L   A4,D0               
00000122: 508F            'P.'            ADDQ.L   #$8,A7              
00000124: 6708            'g.'            BEQ.S    *+$000A             ; 0000012E
00000126: 2F0C            '/.'            MOVE.L   A4,-(A7)            
00000128: 4EAD 034A       'N..J'          JSR      $034A(A5)           
0000012C: 588F            'X.'            ADDQ.L   #$4,A7              
0000012E: 285F            '(_'            MOVEA.L  (A7)+,A4            
00000130: 4E5E            'N^'            UNLK     A6                  
00000132: 4E75            'Nu'            RTS                          
00000134: 8877            '.w'            DC.W     $8877               ; ????
00000136: 696E            'in'            BVS.S    *+$0070             ; 000001A6
00000138: 6474            'dt'            BCC.S    *+$0076             ; 000001AE
0000013A: 7261            'ra'            MOVEQ    #$61,D1             ; 'a'
0000013C: 7000            'p.'            MOVEQ    #$00,D0             
0000013E: 0000 4E56       '..NV'          ORI.B    #$4E56,D0           ; 'V'
00000142: 0000 2F2E       '../.'          ORI.B    #$2F2E,D0           ; '.'
00000146: 0008 4EBA       '..N.'          ORI.B    #$4EBA,A0           
0000014A: FEB6            '..'            DC.W     $FEB6               ; ????
0000014C: 4A40            'J@'            TST.W    D0                  
0000014E: 588F            'X.'            ADDQ.L   #$4,A7              
00000150: 672E            'g.'            BEQ.S    *+$0030             ; 00000180
00000152: 2F3C 0000 1596  '/<....'        MOVE.L   #$00001596,-(A7)    
00000158: 4EAD 040A       'N...'          JSR      $040A(A5)           
0000015C: 2EAE 0008       '....'          MOVE.L   $0008(A6),(A7)      
00000160: 4EBA FF00       'N...'          JSR      *-$00FE             ; 00000062
00000164: 3EBC FFFB       '>...'          MOVE.W   #$FFFB,(A7)         
00000168: 4EAD 0492       'N...'          JSR      $0492(A5)           
0000016C: 3EBC 004B       '>..K'          MOVE.W   #$004B,(A7)         
00000170: 42A7            'B.'            CLR.L    -(A7)               
00000172: 486D 043A       'Hm.:'          PEA      $043A(A5)           
00000176: 42A7            'B.'            CLR.L    -(A7)               
00000178: 4EAD 010A       'N...'          JSR      $010A(A5)           
0000017C: 4FEF 0010       'O...'          LEA      $0010(A7),A7        
00000180: 4E5E            'N^'            UNLK     A6                  
00000182: 4E75            'Nu'            RTS                          
00000184: 8864            '.d'            OR.W     -(A4),D4            
00000186: 6172            'ar'            BSR.S    *+$0074             ; 000001FA
00000188: 7474            'tt'            MOVEQ    #$74,D2             ; 't'
0000018A: 7261            'ra'            MOVEQ    #$61,D1             ; 'a'
0000018C: 7000            'p.'            MOVEQ    #$00,D0             
0000018E: 0000 4E56       '..NV'          ORI.B    #$4E56,D0           ; 'V'
00000192: 0000 2F07       '../.'          ORI.B    #$2F07,D0           
00000196: 2F2E 0008       '/...'          MOVE.L   $0008(A6),-(A7)     
0000019A: 4EBA FE64       'N..d'          JSR      *-$019A             ; 00000000
0000019E: 4A40            'J@'            TST.W    D0                  
000001A0: 588F            'X.'            ADDQ.L   #$4,A7              
000001A2: 6700 0092       'g...'          BEQ      *+$0094             ; 00000236
000001A6: 2F3C 0000 15BC  '/<....'        MOVE.L   #$000015BC,-(A7)    
000001AC: 4EAD 040A       'N...'          JSR      $040A(A5)           
000001B0: 2EAE 0008       '....'          MOVE.L   $0008(A6),(A7)      
000001B4: 4EBA FEAC       'N...'          JSR      *-$0152             ; 00000062
000001B8: 4AAD C744       'J..D'          TST.L    -$38BC(A5)          
000001BC: 588F            'X.'            ADDQ.L   #$4,A7              
000001BE: 670A            'g.'            BEQ.S    *+$000C             ; 000001CA
000001C0: 206D C744       ' m.D'          MOVEA.L  -$38BC(A5),A0       
000001C4: A01F            '..'            _DisposePtr                     ; A01F
000001C6: 42AD C744       'B..D'          CLR.L    -$38BC(A5)          
000001CA: 7E01            '~.'            MOVEQ    #$01,D7             
000001CC: 6050            '`P'            BRA.S    *+$0052             ; 0000021E
000001CE: 2007            ' .'            MOVE.L   D7,D0               
000001D0: 48C0            'H.'            EXT.L    D0                  
000001D2: E988            '..'            LSL.L    #$4,D0              
000001D4: 204D            ' M'            MOVEA.L  A5,A0               
000001D6: D1C0            '..'            ADDA.L   D0,A0               
000001D8: 0268 FDFF C73A  '.h...:'        ANDI.W   #$FDFF,-$38C6(A0)   
000001DE: 2007            ' .'            MOVE.L   D7,D0               
000001E0: 48C0            'H.'            EXT.L    D0                  
000001E2: E988            '..'            LSL.L    #$4,D0              
000001E4: 204D            ' M'            MOVEA.L  A5,A0               
000001E6: D1C0            '..'            ADDA.L   D0,A0               
000001E8: 0268 DFFF C73A  '.h...:'        ANDI.W   #$DFFF,-$38C6(A0)   
000001EE: 2007            ' .'            MOVE.L   D7,D0               
000001F0: 48C0            'H.'            EXT.L    D0                  
000001F2: E988            '..'            LSL.L    #$4,D0              
000001F4: 204D            ' M'            MOVEA.L  A5,A0               
000001F6: D1C0            '..'            ADDA.L   D0,A0               
000001F8: 4AA8 C744       'J..D'          TST.L    -$38BC(A0)          
000001FC: 671E            'g.'            BEQ.S    *+$0020             ; 0000021C
000001FE: 2007            ' .'            MOVE.L   D7,D0               
00000200: 48C0            'H.'            EXT.L    D0                  
00000202: E988            '..'            LSL.L    #$4,D0              
00000204: 204D            ' M'            MOVEA.L  A5,A0               
00000206: D1C0            '..'            ADDA.L   D0,A0               
00000208: 2068 C744       ' h.D'          MOVEA.L  -$38BC(A0),A0       
0000020C: A01F            '..'            _DisposePtr                     ; A01F
0000020E: 2007            ' .'            MOVE.L   D7,D0               
00000210: 48C0            'H.'            EXT.L    D0                  
00000212: E988            '..'            LSL.L    #$4,D0              
00000214: 204D            ' M'            MOVEA.L  A5,A0               
00000216: D1C0            '..'            ADDA.L   D0,A0               
00000218: 42A8 C744       'B..D'          CLR.L    -$38BC(A0)          
0000021C: 5247            'RG'            ADDQ.W   #$1,D7              
0000021E: 302D 968C       '0-..'          MOVE.W   -$6974(A5),D0       
00000222: C1ED 968E       '....'          MULS.W   -$6972(A5),D0       
00000226: B047            '.G'            CMP.W    D7,D0               
00000228: 6EA4            'n.'            BGT.S    *-$005A             ; 000001CE
0000022A: 4A6D 9B48       'Jm.H'          TST.W    -$64B8(A5)          
0000022E: 6706            'g.'            BEQ.S    *+$0008             ; 00000236
00000230: 1B7C 0001 969A  '.|....'        MOVE.B   #$01,-$6966(A5)     
00000236: 2E1F            '..'            MOVE.L   (A7)+,D7            
00000238: 4E5E            'N^'            UNLK     A6                  
0000023A: 4E75            'Nu'            RTS                          
0000023C: 8977            '.w'            DC.W     $8977               ; ????
0000023E: 6174            'at'            BSR.S    *+$0076             ; 000002B4
00000240: 6572            'er'            BCS.S    *+$0074             ; 000002B4
00000242: 7472            'tr'            MOVEQ    #$72,D2             ; 'r'
00000244: 6170            'ap'            BSR.S    *+$0072             ; 000002B6
00000246: 0000 2F3C       '../<'          ORI.B    #$2F3C,D0           ; '<'
0000024A: A805            '..'            _SndPlay                     ; A805
0000024C: 0001 4EAD       '..N.'          ORI.B    #$4EAD,D1           
00000250: 0332 4A40       '.2J@'          BTST     D1,$40(A2,D4.L*2)   
00000254: 588F            'X.'            ADDQ.L   #$4,A7              
00000256: 660E            'f.'            BNE.S    *+$0010             ; 00000266
00000258: 4267            'Bg'            CLR.W    -(A7)               
0000025A: 3F3C 0190       '?<..'          MOVE.W   #$0190,-(A7)        
0000025E: 42A7            'B.'            CLR.L    -(A7)               
00000260: A986            '..'            _StopAlert                     ; A986
00000262: A9F4            '..'            _ExitToShell                     ; A9F4
00000264: 548F            'T.'            ADDQ.L   #$2,A7              
00000266: 4E75            'Nu'            RTS                          
00000268: 4E56 FFFC       'NV..'          LINK     A6,#$FFFC           
0000026C: 2F07            '/.'            MOVE.L   D7,-(A7)            
0000026E: 7E00            '~.'            MOVEQ    #$00,D7             
00000270: 6028            '`('            BRA.S    *+$002A             ; 0000029A
00000272: 4267            'Bg'            CLR.W    -(A7)               
00000274: A94C            '.L'            _FlashMenuBar                     ; A94C
00000276: 43EE FFFC       'C...'          LEA      -$0004(A6),A1       
0000027A: 307C 0006       '0|..'          MOVEA.W  #$0006,A0           
0000027E: A03B            '.;'            _Delay                       ; A03B
00000280: 2280            '".'            MOVE.L   D0,(A1)             
00000282: 4267            'Bg'            CLR.W    -(A7)               
00000284: A94C            '.L'            _FlashMenuBar                     ; A94C
00000286: 0C47 0002       '.G..'          CMPI.W   #$0002,D7           
0000028A: 6C0C            'l.'            BGE.S    *+$000E             ; 00000298
0000028C: 43EE FFFC       'C...'          LEA      -$0004(A6),A1       
00000290: 307C 0006       '0|..'          MOVEA.W  #$0006,A0           
00000294: A03B            '.;'            _Delay                       ; A03B
00000296: 2280            '".'            MOVE.L   D0,(A1)             
00000298: 5247            'RG'            ADDQ.W   #$1,D7              
0000029A: 0C47 0003       '.G..'          CMPI.W   #$0003,D7           
0000029E: 6DD2            'm.'            BLT.S    *-$002C             ; 00000272
000002A0: 2E1F            '..'            MOVE.L   (A7)+,D7            
000002A2: 4E5E            'N^'            UNLK     A6                  
000002A4: 4E75            'Nu'            RTS                          
000002A6: 8B53            '.S'            OR.W     D5,(A3)             
000002A8: 696C            'il'            BVS.S    *+$006E             ; 00000316
000002AA: 656E            'en'            BCS.S    *+$0070             ; 0000031A
000002AC: 7453            'tS'            MOVEQ    #$53,D2             ; 'S'
000002AE: 6F75            'ou'            BLE.S    *+$0077             ; 00000325
000002B0: 6E64            'nd'            BGT.S    *+$0066             ; 00000316
000002B2: 0000 4E56       '..NV'          ORI.B    #$4E56,D0           ; 'V'
000002B6: FFFA            '..'            DC.W     $FFFA               ; ????
000002B8: 4A2D 969F       'J-..'          TST.B    -$6961(A5)          
000002BC: 6642            'fB'            BNE.S    *+$0044             ; 00000300
000002BE: 41EE FFFA       'A...'          LEA      -$0006(A6),A0       
000002C2: 4218            'B.'            CLR.B    (A0)+               
000002C4: 10B8 0260       '...`'          MOVE.B   $0260,(A0)          
000002C8: 4A6E FFFA       'Jn..'          TST.W    -$0006(A6)          
000002CC: 6606            'f.'            BNE.S    *+$0008             ; 000002D4
000002CE: 4EBA FF98       'N...'          JSR      *-$0066             ; 00000268
000002D2: 602C            '`,'            BRA.S    *+$002E             ; 00000300
000002D4: 42A7            'B.'            CLR.L    -(A7)               
000002D6: 2F3C 736E 6420  '/<snd '        MOVE.L   #$736E6420,-(A7)    ; 'snd '
000002DC: 3F3C 2000       '?< .'          MOVE.W   #$2000,-(A7)        
000002E0: A9A0            '..'            _GetResource                     ; A9A0
000002E2: 2D5F FFFC       '-_..'          MOVE.L   (A7)+,-$0004(A6)    
000002E6: 4AAE FFFC       'J...'          TST.L    -$0004(A6)          
000002EA: 6606            'f.'            BNE.S    *+$0008             ; 000002F2
000002EC: 4EBA FF7A       'N..z'          JSR      *-$0084             ; 00000268
000002F0: 600E            '`.'            BRA.S    *+$0010             ; 00000300
000002F2: 4267            'Bg'            CLR.W    -(A7)               
000002F4: 42A7            'B.'            CLR.L    -(A7)               
000002F6: 2F2E FFFC       '/...'          MOVE.L   -$0004(A6),-(A7)    
000002FA: 4227            'B''            CLR.B    -(A7)               
000002FC: A805            '..'            _SndPlay                     ; A805
000002FE: 548F            'T.'            ADDQ.L   #$2,A7              
00000300: 4E5E            'N^'            UNLK     A6                  
00000302: 4E75            'Nu'            RTS                          
00000304: 8954            '.T'            OR.W     D4,(A4)             
00000306: 7261            'ra'            MOVEQ    #$61,D1             ; 'a'
00000308: 7053            'pS'            MOVEQ    #$53,D0             ; 'S'
0000030A: 6F75            'ou'            BLE.S    *+$0077             ; 00000381
0000030C: 6E64            'nd'            BGT.S    *+$0066             ; 00000372
0000030E: 0000            '..'            DC.W     $0000            

File: Scarab, Resource 42, Type: CODE
First jump table entry offset = $8340, Jump table entries used = 2
Segment size = $13C [316]
00000000: 4E56 FFFE       'NV..'          LINK     A6,#$FFFE           
00000004: 2F0C            '/.'            MOVE.L   A4,-(A7)            
00000006: 286E 0008       '(n..'          MOVEA.L  $0008(A6),A4        
0000000A: 2F3C 0000 1452  '/<...R'        MOVE.L   #$00001452,-(A7)    
00000010: 4EAD 00F2       'N...'          JSR      $00F2(A5)           
00000014: 3E80            '>.'            MOVE.W   D0,(A7)             
00000016: 302D 9B48       '0-.H'          MOVE.W   -$64B8(A5),D0       
0000001A: 48C0            'H.'            EXT.L    D0                  
0000001C: E988            '..'            LSL.L    #$4,D0              
0000001E: 204D            ' M'            MOVEA.L  A5,A0               
00000020: D1C0            '..'            ADDA.L   D0,A0               
00000022: 2F28 C740       '/(.@'          MOVE.L   -$38C0(A0),-(A7)    
00000026: 4EAD 00D2       'N...'          JSR      $00D2(A5)           
0000002A: 4A80            'J.'            TST.L    D0                  
0000002C: 508F            'P.'            ADDQ.L   #$8,A7              
0000002E: 6742            'gB'            BEQ.S    *+$0044             ; 00000072
00000030: 4267            'Bg'            CLR.W    -(A7)               
00000032: 2F0C            '/.'            MOVE.L   A4,-(A7)            
00000034: 4EAD 024A       'N..J'          JSR      $024A(A5)           
00000038: 2840            '(@'            MOVEA.L  D0,A4               
0000003A: 200C            ' .'            MOVE.L   A4,D0               
0000003C: 5C8F            '\.'            ADDQ.L   #$6,A7              
0000003E: 6752            'gR'            BEQ.S    *+$0054             ; 00000092
00000040: 302C 0002       '0,..'          MOVE.W   $0002(A4),D0        
00000044: 48C0            'H.'            EXT.L    D0                  
00000046: D1AD 967E       '...~'          ADD.L    D0,-$6982(A5)       
0000004A: 7005            'p.'            MOVEQ    #$05,D0             
0000004C: C1EC 0002       '....'          MULS.W   $0002(A4),D0        
00000050: D1AD 9676       '...v'          ADD.L    D0,-$698A(A5)       
00000054: 2F2D 967E       '/-.~'          MOVE.L   -$6982(A5),-(A7)    
00000058: 2F3C 0000 1458  '/<...X'        MOVE.L   #$00001458,-(A7)    
0000005E: 4EAD 040A       'N...'          JSR      $040A(A5)           
00000062: 4257            'BW'            CLR.W    (A7)                
00000064: 4EAD 0462       'N..b'          JSR      $0462(A5)           
00000068: 2E8C            '..'            MOVE.L   A4,(A7)             
0000006A: 4EAD 0542       'N..B'          JSR      $0542(A5)           
0000006E: 508F            'P.'            ADDQ.L   #$8,A7              
00000070: 6020            '` '            BRA.S    *+$0022             ; 00000092
00000072: 2F3C 0000 1486  '/<....'        MOVE.L   #$00001486,-(A7)    
00000078: 2F3C 0000 1488  '/<....'        MOVE.L   #$00001488,-(A7)    
0000007E: 2F3C 0000 148A  '/<....'        MOVE.L   #$0000148A,-(A7)    
00000084: 2F3C 0000 148C  '/<....'        MOVE.L   #$0000148C,-(A7)    
0000008A: 4EAD 051A       'N...'          JSR      $051A(A5)           
0000008E: 4FEF 0010       'O...'          LEA      $0010(A7),A7        
00000092: 285F            '(_'            MOVEA.L  (A7)+,A4            
00000094: 4E5E            'N^'            UNLK     A6                  
00000096: 4E75            'Nu'            RTS                          
00000098: 8467            '.g'            OR.W     -(A7),D2            
0000009A: 6F6C            'ol'            BLE.S    *+$006E             ; 00000108
0000009C: 6400 0000       'd...'          BCC      *+$0002             ; 0000009E
000000A0: 4E56 0000       'NV..'          LINK     A6,#$0000           
000000A4: 2F0B            '/.'            MOVE.L   A3,-(A7)            
000000A6: 266E 000C       '&n..'          MOVEA.L  $000C(A6),A3        
000000AA: 200B            ' .'            MOVE.L   A3,D0               
000000AC: 6776            'gv'            BEQ.S    *+$0078             ; 00000124
000000AE: 2F3C 0000 14B4  '/<....'        MOVE.L   #$000014B4,-(A7)    
000000B4: 4EAD 00F2       'N...'          JSR      $00F2(A5)           
000000B8: B053            '.S'            CMP.W    (A3),D0             
000000BA: 588F            'X.'            ADDQ.L   #$4,A7              
000000BC: 6666            'ff'            BNE.S    *+$0068             ; 00000124
000000BE: 206E 0008       ' n..'          MOVEA.L  $0008(A6),A0        
000000C2: 2050            ' P'            MOVEA.L  (A0),A0             
000000C4: 3F28 0002       '?(..'          MOVE.W   $0002(A0),-(A7)     
000000C8: 4EAD 050A       'N...'          JSR      $050A(A5)           
000000CC: 48C0            'H.'            EXT.L    D0                  
000000CE: 81FC 0010       '....'          DIVS.W   #$0010,D0           
000000D2: 548F            'T.'            ADDQ.L   #$2,A7              
000000D4: 674E            'gN'            BEQ.S    *+$0050             ; 00000124
000000D6: 4A2B 0006       'J+..'          TST.B    $0006(A3)           
000000DA: 661E            'f.'            BNE.S    *+$0020             ; 000000FA
000000DC: 2F3C 0000 14BA  '/<....'        MOVE.L   #$000014BA,-(A7)    
000000E2: 4EAD 040A       'N...'          JSR      $040A(A5)           
000000E6: 2E8B            '..'            MOVE.L   A3,(A7)             
000000E8: 4EAD 0202       'N...'          JSR      $0202(A5)           
000000EC: 3EAD 9B4A       '>..J'          MOVE.W   -$64B6(A5),(A7)     
000000F0: 3F2D 9B48       '?-.H'          MOVE.W   -$64B8(A5),-(A7)    
000000F4: 4EAD 0132       'N..2'          JSR      $0132(A5)           
000000F8: 5C8F            '\.'            ADDQ.L   #$6,A7              
000000FA: 2F3C 0000 14F0  '/<....'        MOVE.L   #$000014F0,-(A7)    
00000100: 4EAD 040A       'N...'          JSR      $040A(A5)           
00000104: 006B 0010 000A  '.k....'        ORI.W    #$0010,$000A(A3)    
0000010A: 006B 0020 000A  '.k. ..'        ORI.W    #$0020,$000A(A3)    
00000110: 206E 0008       ' n..'          MOVEA.L  $0008(A6),A0        
00000114: 2E90            '..'            MOVE.L   (A0),(A7)           
00000116: 486B 0010       'Hk..'          PEA      $0010(A3)           
0000011A: 4EAD 00DA       'N...'          JSR      $00DA(A5)           
0000011E: 206E 0008       ' n..'          MOVEA.L  $0008(A6),A0        
00000122: 4290            'B.'            CLR.L    (A0)                
00000124: 266E FFFC       '&n..'          MOVEA.L  -$0004(A6),A3       
00000128: 4E5E            'N^'            UNLK     A6                  
0000012A: 4E75            'Nu'            RTS                          
0000012C: 8974 6872       '.thr'          OR.W     D4,$72(A4,D6.L)     
00000130: 6F77            'ow'            BLE.S    *+$0079             ; 000001A9
00000132: 676F            'go'            BEQ.S    *+$0071             ; 000001A3
00000134: 6C64            'ld'            BGE.S    *+$0066             ; 0000019A
00000136: 0000            '..'            DC.W     $0000            

File: Scarab, Resource 39, Type: CODE
First jump table entry offset = $8328, Jump table entries used = 3
Segment size = $158 [344]
00000000: 4E56 0000       'NV..'          LINK     A6,#$0000           
00000004: 2F0C            '/.'            MOVE.L   A4,-(A7)            
00000006: 286E 0008       '(n..'          MOVEA.L  $0008(A6),A4        
0000000A: 4AAC 0010       'J...'          TST.L    $0010(A4)           
0000000E: 6748            'gH'            BEQ.S    *+$004A             ; 00000058
00000010: 206C 0010       ' l..'          MOVEA.L  $0010(A4),A0        
00000014: 4A68 0002       'Jh..'          TST.W    $0002(A0)           
00000018: 673E            'g>'            BEQ.S    *+$0040             ; 00000058
0000001A: 3F3C 0002       '?<..'          MOVE.W   #$0002,-(A7)        
0000001E: 4EAD 050A       'N...'          JSR      $050A(A5)           
00000022: 4A40            'J@'            TST.W    D0                  
00000024: 548F            'T.'            ADDQ.L   #$2,A7              
00000026: 6630            'f0'            BNE.S    *+$0032             ; 00000058
00000028: 206C 0010       ' l..'          MOVEA.L  $0010(A4),A0        
0000002C: 5368 0002       'Sh..'          SUBQ.W   #$1,$0002(A0)       
00000030: 4EAD 048A       'N...'          JSR      $048A(A5)           
00000034: 206C 0010       ' l..'          MOVEA.L  $0010(A4),A0        
00000038: 4A68 0002       'Jh..'          TST.W    $0002(A0)           
0000003C: 660E            'f.'            BNE.S    *+$0010             ; 0000004C
0000003E: 2F3C 0000 13B2  '/<....'        MOVE.L   #$000013B2,-(A7)    
00000044: 4EAD 040A       'N...'          JSR      $040A(A5)           
00000048: 588F            'X.'            ADDQ.L   #$4,A7              
0000004A: 600C            '`.'            BRA.S    *+$000E             ; 00000058
0000004C: 2F3C 0000 13E0  '/<....'        MOVE.L   #$000013E0,-(A7)    
00000052: 4EAD 040A       'N...'          JSR      $040A(A5)           
00000056: 588F            'X.'            ADDQ.L   #$4,A7              
00000058: 4A2D 9699       'J-..'          TST.B    -$6967(A5)          
0000005C: 6720            'g '            BEQ.S    *+$0022             ; 0000007E
0000005E: 422D 9699       'B-..'          CLR.B    -$6967(A5)          
00000062: 3F2D 9B4A       '?-.J'          MOVE.W   -$64B6(A5),-(A7)    
00000066: 3F2D 9B48       '?-.H'          MOVE.W   -$64B8(A5),-(A7)    
0000006A: 4EAD 0132       'N..2'          JSR      $0132(A5)           
0000006E: 2E8C            '..'            MOVE.L   A4,(A7)             
00000070: 4EAD 011A       'N...'          JSR      $011A(A5)           
00000074: 3E80            '>.'            MOVE.W   D0,(A7)             
00000076: 4EAD 0102       'N...'          JSR      $0102(A5)           
0000007A: 588F            'X.'            ADDQ.L   #$4,A7              
0000007C: 605E            '`^'            BRA.S    *+$0060             ; 000000DC
0000007E: 4AAC 0010       'J...'          TST.L    $0010(A4)           
00000082: 670A            'g.'            BEQ.S    *+$000C             ; 0000008E
00000084: 206C 0010       ' l..'          MOVEA.L  $0010(A4),A0        
00000088: 4A68 0002       'Jh..'          TST.W    $0002(A0)           
0000008C: 6622            'f"'            BNE.S    *+$0024             ; 000000B0
0000008E: 2F3C 0000 1406  '/<....'        MOVE.L   #$00001406,-(A7)    
00000094: 2F3C 0000 1408  '/<....'        MOVE.L   #$00001408,-(A7)    
0000009A: 2F3C 0000 140A  '/<....'        MOVE.L   #$0000140A,-(A7)    
000000A0: 2F3C 0000 140C  '/<....'        MOVE.L   #$0000140C,-(A7)    
000000A6: 4EAD 051A       'N...'          JSR      $051A(A5)           
000000AA: 4FEF 0010       'O...'          LEA      $0010(A7),A7        
000000AE: 602C            '`,'            BRA.S    *+$002E             ; 000000DC
000000B0: 1B7C 0001 9699  '.|....'        MOVE.B   #$01,-$6967(A5)     
000000B6: 3F2D 9B4A       '?-.J'          MOVE.W   -$64B6(A5),-(A7)    
000000BA: 3F2D 9B48       '?-.H'          MOVE.W   -$64B8(A5),-(A7)    
000000BE: 4EAD 0132       'N..2'          JSR      $0132(A5)           
000000C2: 3EBC 0096       '>...'          MOVE.W   #$0096,(A7)         
000000C6: 2F0C            '/.'            MOVE.L   A4,-(A7)            
000000C8: 486D 041A       'Hm..'          PEA      $041A(A5)           
000000CC: 42A7            'B.'            CLR.L    -(A7)               
000000CE: 4EAD 010A       'N...'          JSR      $010A(A5)           
000000D2: 4257            'BW'            CLR.W    (A7)                
000000D4: 4EAD 013A       'N..:'          JSR      $013A(A5)           
000000D8: 4FEF 0010       'O...'          LEA      $0010(A7),A7        
000000DC: 285F            '(_'            MOVEA.L  (A7)+,A4            
000000DE: 4E5E            'N^'            UNLK     A6                  
000000E0: 4E75            'Nu'            RTS                          
000000E2: 876C 616E       '.lan'          OR.W     D3,$616E(A4)        
000000E6: 7465            'te'            MOVEQ    #$65,D2             ; 'e'
000000E8: 726E            'rn'            MOVEQ    #$6E,D1             ; 'n'
000000EA: 0000 4E56       '..NV'          ORI.B    #$4E56,D0           ; 'V'
000000EE: 0000 4A2D       '..J-'          ORI.B    #$4A2D,D0           ; '-'
000000F2: 9699            '..'            SUB.L    (A1)+,D3            
000000F4: 672A            'g*'            BEQ.S    *+$002C             ; 00000120
000000F6: 2F3C 0000 1424  '/<...$'        MOVE.L   #$00001424,-(A7)    
000000FC: 4EAD 040A       'N...'          JSR      $040A(A5)           
00000100: 422D 9699       'B-..'          CLR.B    -$6967(A5)          
00000104: 3EAD 9B4A       '>..J'          MOVE.W   -$64B6(A5),(A7)     
00000108: 3F2D 9B48       '?-.H'          MOVE.W   -$64B8(A5),-(A7)    
0000010C: 4EAD 0132       'N..2'          JSR      $0132(A5)           
00000110: 2EAE 0008       '....'          MOVE.L   $0008(A6),(A7)      
00000114: 4EAD 011A       'N...'          JSR      $011A(A5)           
00000118: 3E80            '>.'            MOVE.W   D0,(A7)             
0000011A: 4EAD 0102       'N...'          JSR      $0102(A5)           
0000011E: 5C8F            '\.'            ADDQ.L   #$6,A7              
00000120: 4E5E            'N^'            UNLK     A6                  
00000122: 4E75            'Nu'            RTS                          
00000124: 8B64            '.d'            OR.W     D5,-(A4)            
00000126: 726F            'ro'            MOVEQ    #$6F,D1             ; 'o'
00000128: 706C            'pl'            MOVEQ    #$6C,D0             ; 'l'
0000012A: 616E            'an'            BSR.S    *+$0070             ; 0000019A
0000012C: 7465            'te'            MOVEQ    #$65,D2             ; 'e'
0000012E: 726E            'rn'            MOVEQ    #$6E,D1             ; 'n'
00000130: 0000 4E56       '..NV'          ORI.B    #$4E56,D0           ; 'V'
00000134: 0000 206E       '.. n'          ORI.B    #$206E,D0           ; 'n'
00000138: 0008 2F10       '../.'          ORI.B    #$2F10,A0           
0000013C: 4EBA FFAE       'N...'          JSR      *-$0050             ; 000000EC
00000140: 4E5E            'N^'            UNLK     A6                  
00000142: 4E75            'Nu'            RTS                          
00000144: 8C74 6872       '.thr'          OR.W     $72(A4,D6.L),D6     
00000148: 6F77            'ow'            BLE.S    *+$0079             ; 000001C1
0000014A: 6C61            'la'            BGE.S    *+$0063             ; 000001AD
0000014C: 6E74            'nt'            BGT.S    *+$0076             ; 000001C2
0000014E: 6572            'er'            BCS.S    *+$0074             ; 000001C2
00000150: 6E00 0000       'n...'          BGT      *+$0002             ; 00000152

File: Scarab, Resource 32, Type: CODE
First jump table entry offset = $8320, Jump table entries used = 1
Segment size = $296 [662]
00000000: 4E56 0000       'NV..'          LINK     A6,#$0000           
00000004: 48E7 0318       'H...'          MOVEM.L  D6/D7/A3/A4,-(A7)   
00000008: 3E2D 9B48       '>-.H'          MOVE.W   -$64B8(A5),D7       
0000000C: 7C00            '|.'            MOVEQ    #$00,D6             
0000000E: 2007            ' .'            MOVE.L   D7,D0               
00000010: 48C0            'H.'            EXT.L    D0                  
00000012: E988            '..'            LSL.L    #$4,D0              
00000014: 204D            ' M'            MOVEA.L  A5,A0               
00000016: D1C0            '..'            ADDA.L   D0,A0               
00000018: 302D 9B4A       '0-.J'          MOVE.W   -$64B6(A5),D0       
0000001C: 48C0            'H.'            EXT.L    D0                  
0000001E: C0A8 C738       '...8'          AND.L    -$38C8(A0),D0       
00000022: 6620            'f '            BNE.S    *+$0022             ; 00000044
00000024: 2F3C 0000 128A  '/<....'        MOVE.L   #$0000128A,-(A7)    
0000002A: 2F3C 0000 128C  '/<....'        MOVE.L   #$0000128C,-(A7)    
00000030: 2F3C 0000 128E  '/<....'        MOVE.L   #$0000128E,-(A7)    
00000036: 2F3C 0000 1290  '/<....'        MOVE.L   #$00001290,-(A7)    
0000003C: 4EAD 051A       'N...'          JSR      $051A(A5)           
00000040: 6000 023E       '`..>'          BRA      *+$0240             ; 00000280
00000044: 3F2D 9B4A       '?-.J'          MOVE.W   -$64B6(A5),-(A7)    
00000048: 3F07            '?.'            MOVE.W   D7,-(A7)            
0000004A: 4EAD 03AA       'N...'          JSR      $03AA(A5)           
0000004E: 3E00            '>.'            MOVE.W   D0,D7               
00000050: 2EBC 0010 0000  '......'        MOVE.L   #$00100000,(A7)     
00000056: 2007            ' .'            MOVE.L   D7,D0               
00000058: 48C0            'H.'            EXT.L    D0                  
0000005A: E988            '..'            LSL.L    #$4,D0              
0000005C: 204D            ' M'            MOVEA.L  A5,A0               
0000005E: D1C0            '..'            ADDA.L   D0,A0               
00000060: 2F28 C740       '/(.@'          MOVE.L   -$38C0(A0),-(A7)    
00000064: 4EAD 00EA       'N...'          JSR      $00EA(A5)           
00000068: 2640            '&@'            MOVEA.L  D0,A3               
0000006A: 508F            'P.'            ADDQ.L   #$8,A7              
0000006C: 6012            '`.'            BRA.S    *+$0014             ; 00000080
0000006E: 2F3C 0010 0000  '/<....'        MOVE.L   #$00100000,-(A7)    
00000074: 2F2B 0014       '/+..'          MOVE.L   $0014(A3),-(A7)     
00000078: 4EAD 00EA       'N...'          JSR      $00EA(A5)           
0000007C: 2640            '&@'            MOVEA.L  D0,A3               
0000007E: 508F            'P.'            ADDQ.L   #$8,A7              
00000080: 200B            ' .'            MOVE.L   A3,D0               
00000082: 6708            'g.'            BEQ.S    *+$000A             ; 0000008C
00000084: 0C2B 0001 0006  '.+....'        CMPI.B   #$01,$0006(A3)      
0000008A: 66E2            'f.'            BNE.S    *-$001C             ; 0000006E
0000008C: 200B            ' .'            MOVE.L   A3,D0               
0000008E: 663A            'f:'            BNE.S    *+$003C             ; 000000CA
00000090: 2F3C 0010 0000  '/<....'        MOVE.L   #$00100000,-(A7)    
00000096: 2007            ' .'            MOVE.L   D7,D0               
00000098: 48C0            'H.'            EXT.L    D0                  
0000009A: E988            '..'            LSL.L    #$4,D0              
0000009C: 204D            ' M'            MOVEA.L  A5,A0               
0000009E: D1C0            '..'            ADDA.L   D0,A0               
000000A0: 2F28 C740       '/(.@'          MOVE.L   -$38C0(A0),-(A7)    
000000A4: 4EAD 00EA       'N...'          JSR      $00EA(A5)           
000000A8: 2640            '&@'            MOVEA.L  D0,A3               
000000AA: 508F            'P.'            ADDQ.L   #$8,A7              
000000AC: 6012            '`.'            BRA.S    *+$0014             ; 000000C0
000000AE: 2F3C 0010 0000  '/<....'        MOVE.L   #$00100000,-(A7)    
000000B4: 2F2B 0014       '/+..'          MOVE.L   $0014(A3),-(A7)     
000000B8: 4EAD 00EA       'N...'          JSR      $00EA(A5)           
000000BC: 2640            '&@'            MOVEA.L  D0,A3               
000000BE: 508F            'P.'            ADDQ.L   #$8,A7              
000000C0: 200B            ' .'            MOVE.L   A3,D0               
000000C2: 6706            'g.'            BEQ.S    *+$0008             ; 000000CA
000000C4: 4A2B 0006       'J+..'          TST.B    $0006(A3)           
000000C8: 66E4            'f.'            BNE.S    *-$001A             ; 000000AE
000000CA: 200B            ' .'            MOVE.L   A3,D0               
000000CC: 663C            'f<'            BNE.S    *+$003E             ; 0000010A
000000CE: 2F3C 0010 0000  '/<....'        MOVE.L   #$00100000,-(A7)    
000000D4: 2007            ' .'            MOVE.L   D7,D0               
000000D6: 48C0            'H.'            EXT.L    D0                  
000000D8: E988            '..'            LSL.L    #$4,D0              
000000DA: 204D            ' M'            MOVEA.L  A5,A0               
000000DC: D1C0            '..'            ADDA.L   D0,A0               
000000DE: 2F28 C740       '/(.@'          MOVE.L   -$38C0(A0),-(A7)    
000000E2: 4EAD 00EA       'N...'          JSR      $00EA(A5)           
000000E6: 2640            '&@'            MOVEA.L  D0,A3               
000000E8: 508F            'P.'            ADDQ.L   #$8,A7              
000000EA: 6012            '`.'            BRA.S    *+$0014             ; 000000FE
000000EC: 2F3C 0010 0000  '/<....'        MOVE.L   #$00100000,-(A7)    
000000F2: 2F2B 0014       '/+..'          MOVE.L   $0014(A3),-(A7)     
000000F6: 4EAD 00EA       'N...'          JSR      $00EA(A5)           
000000FA: 2640            '&@'            MOVEA.L  D0,A3               
000000FC: 508F            'P.'            ADDQ.L   #$8,A7              
000000FE: 200B            ' .'            MOVE.L   A3,D0               
00000100: 6708            'g.'            BEQ.S    *+$000A             ; 0000010A
00000102: 0C2B 0002 0006  '.+....'        CMPI.B   #$02,$0006(A3)      
00000108: 66E2            'f.'            BNE.S    *-$001C             ; 000000EC
0000010A: 200B            ' .'            MOVE.L   A3,D0               
0000010C: 6700 00AC       'g...'          BEQ      *+$00AE             ; 000001BA
00000110: 4A2B 0006       'J+..'          TST.B    $0006(A3)           
00000114: 663C            'f<'            BNE.S    *+$003E             ; 00000152
00000116: 2F3C 0000 12AE  '/<....'        MOVE.L   #$000012AE,-(A7)    
0000011C: 4EAD 040A       'N...'          JSR      $040A(A5)           
00000120: 3EBC 0001       '>...'          MOVE.W   #$0001,(A7)         
00000124: 2F0B            '/.'            MOVE.L   A3,-(A7)            
00000126: 486D 97F6       'Hm..'          PEA      -$680A(A5)          
0000012A: 4EAD 0412       'N...'          JSR      $0412(A5)           
0000012E: 2EBC 0000 12BC  '......'        MOVE.L   #$000012BC,(A7)     
00000134: 4EAD 040A       'N...'          JSR      $040A(A5)           
00000138: 2E8B            '..'            MOVE.L   A3,(A7)             
0000013A: 4EAD 0202       'N...'          JSR      $0202(A5)           
0000013E: 3EAD 9B4A       '>..J'          MOVE.W   -$64B6(A5),(A7)     
00000142: 3F2D 9B48       '?-.H'          MOVE.W   -$64B8(A5),-(A7)    
00000146: 4EAD 0132       'N..2'          JSR      $0132(A5)           
0000014A: 4FEF 000E       'O...'          LEA      $000E(A7),A7        
0000014E: 6000 0130       '`..0'          BRA      *+$0132             ; 00000280
00000152: 0C2B 0001 0006  '.+....'        CMPI.B   #$01,$0006(A3)      
00000158: 6650            'fP'            BNE.S    *+$0052             ; 000001AA
0000015A: 4A2B 0009       'J+..'          TST.B    $0009(A3)           
0000015E: 6A18            'j.'            BPL.S    *+$001A             ; 00000178
00000160: 2F3C 0000 12C0  '/<....'        MOVE.L   #$000012C0,-(A7)    
00000166: 4EAD 040A       'N...'          JSR      $040A(A5)           
0000016A: 2EBC 0000 12EE  '......'        MOVE.L   #$000012EE,(A7)     
00000170: 4EAD 040A       'N...'          JSR      $040A(A5)           
00000174: 6000 010A       '`...'          BRA      *+$010C             ; 00000280
00000178: 006B 0010 000A  '.k....'        ORI.W    #$0010,$000A(A3)    
0000017E: 3F3C 0002       '?<..'          MOVE.W   #$0002,-(A7)        
00000182: 4EAD 050A       'N...'          JSR      $050A(A5)           
00000186: 4A40            'J@'            TST.W    D0                  
00000188: 548F            'T.'            ADDQ.L   #$2,A7              
0000018A: 6608            'f.'            BNE.S    *+$000A             ; 00000194
0000018C: 006B 0020 000A  '.k. ..'        ORI.W    #$0020,$000A(A3)    
00000192: 6006            '`.'            BRA.S    *+$0008             ; 0000019A
00000194: 026B FFDF 000A  '.k....'        ANDI.W   #$FFDF,$000A(A3)    
0000019A: 2F3C 0000 130E  '/<....'        MOVE.L   #$0000130E,-(A7)    
000001A0: 4EAD 040A       'N...'          JSR      $040A(A5)           
000001A4: 588F            'X.'            ADDQ.L   #$4,A7              
000001A6: 6000 00D8       '`...'          BRA      *+$00DA             ; 00000280
000001AA: 2F3C 0000 133C  '/<...<'        MOVE.L   #$0000133C,-(A7)    
000001B0: 4EAD 040A       'N...'          JSR      $040A(A5)           
000001B4: 588F            'X.'            ADDQ.L   #$4,A7              
000001B6: 6000 00C8       '`...'          BRA      *+$00CA             ; 00000280
000001BA: 3F3C 000A       '?<..'          MOVE.W   #$000A,-(A7)        
000001BE: 4EAD 050A       'N...'          JSR      $050A(A5)           
000001C2: 4A40            'J@'            TST.W    D0                  
000001C4: 548F            'T.'            ADDQ.L   #$2,A7              
000001C6: 661E            'f.'            BNE.S    *+$0020             ; 000001E6
000001C8: 2F3C 0000 1376  '/<...v'        MOVE.L   #$00001376,-(A7)    
000001CE: 4EAD 040A       'N...'          JSR      $040A(A5)           
000001D2: 206E 0008       ' n..'          MOVEA.L  $0008(A6),A0        
000001D6: 0068 0040 0008  '.h.@..'        ORI.W    #$0040,$0008(A0)    
000001DC: 2E88            '..'            MOVE.L   A0,(A7)             
000001DE: 4EAD 0092       'N...'          JSR      $0092(A5)           
000001E2: 6000 009C       '`...'          BRA      *+$009E             ; 00000280
000001E6: 4878 0040       'Hx.@'          PEA      $0040               
000001EA: 2007            ' .'            MOVE.L   D7,D0               
000001EC: 48C0            'H.'            EXT.L    D0                  
000001EE: E988            '..'            LSL.L    #$4,D0              
000001F0: 204D            ' M'            MOVEA.L  A5,A0               
000001F2: D1C0            '..'            ADDA.L   D0,A0               
000001F4: 2F28 C740       '/(.@'          MOVE.L   -$38C0(A0),-(A7)    
000001F8: 4EAD 00EA       'N...'          JSR      $00EA(A5)           
000001FC: 2840            '(@'            MOVEA.L  D0,A4               
000001FE: 200C            ' .'            MOVE.L   A4,D0               
00000200: 508F            'P.'            ADDQ.L   #$8,A7              
00000202: 6732            'g2'            BEQ.S    *+$0034             ; 00000236
00000204: 082C 0001 0009  '.,....'        BTST     #$01,$0009(A4)      
0000020A: 662A            'f*'            BNE.S    *+$002C             ; 00000236
0000020C: 082C 0000 000A  '.,....'        BTST     #$00,$000A(A4)      
00000212: 6612            'f.'            BNE.S    *+$0014             ; 00000226
00000214: 3F3C 0003       '?<..'          MOVE.W   #$0003,-(A7)        
00000218: 4EAD 050A       'N...'          JSR      $050A(A5)           
0000021C: 4A40            'J@'            TST.W    D0                  
0000021E: 548F            'T.'            ADDQ.L   #$2,A7              
00000220: 6614            'f.'            BNE.S    *+$0016             ; 00000236
00000222: 7C01            '|.'            MOVEQ    #$01,D6             
00000224: 6010            '`.'            BRA.S    *+$0012             ; 00000236
00000226: 3F3C 0008       '?<..'          MOVE.W   #$0008,-(A7)        
0000022A: 4EAD 050A       'N...'          JSR      $050A(A5)           
0000022E: 4A40            'J@'            TST.W    D0                  
00000230: 548F            'T.'            ADDQ.L   #$2,A7              
00000232: 6602            'f.'            BNE.S    *+$0004             ; 00000236
00000234: 7C01            '|.'            MOVEQ    #$01,D6             
00000236: 4A06            'J.'            TST.B    D6                  
00000238: 673A            'g:'            BEQ.S    *+$003C             ; 00000274
0000023A: 2F3C 0000 1390  '/<....'        MOVE.L   #$00001390,-(A7)    
00000240: 4EAD 040A       'N...'          JSR      $040A(A5)           
00000244: 3EBC 0001       '>...'          MOVE.W   #$0001,(A7)         
00000248: 2F0C            '/.'            MOVE.L   A4,-(A7)            
0000024A: 486D 97F6       'Hm..'          PEA      -$680A(A5)          
0000024E: 4EAD 0412       'N...'          JSR      $0412(A5)           
00000252: 2EBC 0000 139C  '......'        MOVE.L   #$0000139C,(A7)     
00000258: 4EAD 040A       'N...'          JSR      $040A(A5)           
0000025C: 2E8C            '..'            MOVE.L   A4,(A7)             
0000025E: 4EAD 037A       'N..z'          JSR      $037A(A5)           
00000262: 3EAD 9B4A       '>..J'          MOVE.W   -$64B6(A5),(A7)     
00000266: 3F2D 9B48       '?-.H'          MOVE.W   -$64B8(A5),-(A7)    
0000026A: 4EAD 0132       'N..2'          JSR      $0132(A5)           
0000026E: 4FEF 000E       'O...'          LEA      $000E(A7),A7        
00000272: 600C            '`.'            BRA.S    *+$000E             ; 00000280
00000274: 2F3C 0000 13A0  '/<....'        MOVE.L   #$000013A0,-(A7)    
0000027A: 4EAD 040A       'N...'          JSR      $040A(A5)           
0000027E: 588F            'X.'            ADDQ.L   #$4,A7              
00000280: 4CEE 18C0 FFF0  'L.....'        MOVEM.L  -$0010(A6),D6/D7/A3/A4 
00000286: 4E5E            'N^'            UNLK     A6                  
00000288: 4E75            'Nu'            RTS                          
0000028A: 8470            '.p'            DC.W     $8470               ; ????
0000028C: 6F6C            'ol'            BLE.S    *+$006E             ; 000002FA
0000028E: 6500 0000       'e...'          BCS      *+$0002             ; 00000290


File: Scarab, Resource 30, Type: CODE
First jump table entry offset = $82E0, Jump table entries used = 2
Segment size = $576 [1398]
00000000: 206D 9B70       ' m.p'          MOVEA.L  -$6490(A5),A0       
00000004: 2F10            '/.'            MOVE.L   (A0),-(A7)          
00000006: A851            '.Q'            _SetCursor                     ; A851
00000008: 302D 968C       '0-..'          MOVE.W   -$6974(A5),D0       
0000000C: C1ED 968E       '....'          MULS.W   -$6972(A5),D0       
00000010: C1FC 000A       '....'          MULS.W   #$000A,D0           
00000014: D1AD 9676       '...v'          ADD.L    D0,-$698A(A5)       
00000018: 4EAD 0122       'N.."'          JSR      $0122(A5)           
0000001C: 526D 968A       'Rm..'          ADDQ.W   #$1,-$6976(A5)      
00000020: 0C6D 0014 968A  '.m....'        CMPI.W   #$0014,-$6976(A5)   
00000026: 6E0E            'n.'            BGT.S    *+$0010             ; 00000036
00000028: 3B6D 968A 968C  ';m....'        MOVE.W   -$6976(A5),-$6974(A5) 
0000002E: 3B6D 968A 968E  ';m....'        MOVE.W   -$6976(A5),-$6972(A5) 
00000034: 600C            '`.'            BRA.S    *+$000E             ; 00000042
00000036: 3B7C 0014 968C  ';|....'        MOVE.W   #$0014,-$6974(A5)   
0000003C: 3B7C 0014 968E  ';|....'        MOVE.W   #$0014,-$6972(A5)   
00000042: 4EAD 02AA       'N...'          JSR      $02AA(A5)           
00000046: 4EAD 02B2       'N...'          JSR      $02B2(A5)           
0000004A: 486D 02B2       'Hm..'          PEA      $02B2(A5)           
0000004E: A9F1            '..'            _UnLoadSeg                     ; A9F1
00000050: 3F2D 9B48       '?-.H'          MOVE.W   -$64B8(A5),-(A7)    
00000054: 4EAD 01E2       'N...'          JSR      $01E2(A5)           
00000058: 4EBA 005C       'N..\'          JSR      *+$005E             ; 000000B6
0000005C: 4EBA 00C8       'N...'          JSR      *+$00CA             ; 00000126
00000060: 3EAD 9B4A       '>..J'          MOVE.W   -$64B6(A5),(A7)     
00000064: 3F2D 9B48       '?-.H'          MOVE.W   -$64B8(A5),-(A7)    
00000068: 4EAD 0132       'N..2'          JSR      $0132(A5)           
0000006C: 4EAD 0072       'N..r'          JSR      $0072(A5)           
00000070: 4257            'BW'            CLR.W    (A7)                
00000072: 4EAD 0462       'N..b'          JSR      $0462(A5)           
00000076: 4257            'BW'            CLR.W    (A7)                
00000078: 4EAD 013A       'N..:'          JSR      $013A(A5)           
0000007C: 4EAD 01C2       'N...'          JSR      $01C2(A5)           
00000080: A850            '.P'            _InitCursor                     ; A850
00000082: 588F            'X.'            ADDQ.L   #$4,A7              
00000084: 4E75            'Nu'            RTS                          
00000086: 2F07            '/.'            MOVE.L   D7,-(A7)            
00000088: 7001            'p.'            MOVEQ    #$01,D0             
0000008A: D06D 968A       '.m..'          ADD.W    -$6976(A5),D0       
0000008E: 3F00            '?.'            MOVE.W   D0,-(A7)            
00000090: 2F3C 0000 10BA  '/<....'        MOVE.L   #$000010BA,-(A7)    
00000096: 4EAD 056A       'N..j'          JSR      $056A(A5)           
0000009A: 3E00            '>.'            MOVE.W   D0,D7               
0000009C: 0C47 0003       '.G..'          CMPI.W   #$0003,D7           
000000A0: 5C8F            '\.'            ADDQ.L   #$6,A7              
000000A2: 6F0E            'o.'            BLE.S    *+$0010             ; 000000B2
000000A4: 0C47 01F4       '.G..'          CMPI.W   #$01F4,D7           
000000A8: 6C08            'l.'            BGE.S    *+$000A             ; 000000B2
000000AA: 70FF            'p.'            MOVEQ    #$FF,D0             
000000AC: D047            '.G'            ADD.W    D7,D0               
000000AE: 3B40 968A       ';@..'          MOVE.W   D0,-$6976(A5)       
000000B2: 2E1F            '..'            MOVE.L   (A7)+,D7            
000000B4: 4E75            'Nu'            RTS                          
000000B6: 2F07            '/.'            MOVE.L   D7,-(A7)            
000000B8: 7E00            '~.'            MOVEQ    #$00,D7             
000000BA: 6060            '``'            BRA.S    *+$0062             ; 0000011C
000000BC: 701C            'p.'            MOVEQ    #$1C,D0             
000000BE: C1C7            '..'            MULS.W   D7,D0               
000000C0: 204D            ' M'            MOVEA.L  A5,A0               
000000C2: D1C0            '..'            ADDA.L   D0,A0               
000000C4: 4A28 9B82       'J(..'          TST.B    -$647E(A0)          
000000C8: 6B50            'kP'            BMI.S    *+$0052             ; 0000011A
000000CA: 701C            'p.'            MOVEQ    #$1C,D0             
000000CC: C1C7            '..'            MULS.W   D7,D0               
000000CE: 204D            ' M'            MOVEA.L  A5,A0               
000000D0: D1C0            '..'            ADDA.L   D0,A0               
000000D2: 4A28 9B83       'J(..'          TST.B    -$647D(A0)          
000000D6: 6A0E            'j.'            BPL.S    *+$0010             ; 000000E6
000000D8: 701C            'p.'            MOVEQ    #$1C,D0             
000000DA: C1C7            '..'            MULS.W   D7,D0               
000000DC: 204D            ' M'            MOVEA.L  A5,A0               
000000DE: D1C0            '..'            ADDA.L   D0,A0               
000000E0: 2068 9B84       ' h..'          MOVEA.L  -$647C(A0),A0       
000000E4: A01F            '..'            _DisposePtr                     ; A01F
000000E6: 701C            'p.'            MOVEQ    #$1C,D0             
000000E8: C1C7            '..'            MULS.W   D7,D0               
000000EA: 204D            ' M'            MOVEA.L  A5,A0               
000000EC: D1C0            '..'            ADDA.L   D0,A0               
000000EE: 0828 0004 9B81  '.(....'        BTST     #$04,-$647F(A0)     
000000F4: 6718            'g.'            BEQ.S    *+$001A             ; 0000010E
000000F6: 701C            'p.'            MOVEQ    #$1C,D0             
000000F8: C1C7            '..'            MULS.W   D7,D0               
000000FA: 204D            ' M'            MOVEA.L  A5,A0               
000000FC: D1C0            '..'            ADDA.L   D0,A0               
000000FE: 4868 9B78       'Hh.x'          PEA      -$6488(A0)          
00000102: 4EAD 011A       'N...'          JSR      $011A(A5)           
00000106: 3E80            '>.'            MOVE.W   D0,(A7)             
00000108: 4EAD 0102       'N...'          JSR      $0102(A5)           
0000010C: 588F            'X.'            ADDQ.L   #$4,A7              
0000010E: 701C            'p.'            MOVEQ    #$1C,D0             
00000110: C1C7            '..'            MULS.W   D7,D0               
00000112: 204D            ' M'            MOVEA.L  A5,A0               
00000114: D1C0            '..'            ADDA.L   D0,A0               
00000116: 42A8 9B80       'B...'          CLR.L    -$6480(A0)          
0000011A: 5247            'RG'            ADDQ.W   #$1,D7              
0000011C: 0C47 0190       '.G..'          CMPI.W   #$0190,D7           
00000120: 6D9A            'm.'            BLT.S    *-$0064             ; 000000BC
00000122: 2E1F            '..'            MOVE.L   (A7)+,D7            
00000124: 4E75            'Nu'            RTS                          
00000126: 4E56 FFF6       'NV..'          LINK     A6,#$FFF6           
0000012A: 48E7 1F08       'H...'          MOVEM.L  D3-D7/A4,-(A7)      
0000012E: 2F3C 0000 10C6  '/<....'        MOVE.L   #$000010C6,-(A7)    
00000134: 4EAD 00F2       'N...'          JSR      $00F2(A5)           
00000138: 3D40 FFF8       '=@..'          MOVE.W   D0,-$0008(A6)       
0000013C: 2EBC 0000 10CC  '......'        MOVE.L   #$000010CC,(A7)     
00000142: 4EAD 00F2       'N...'          JSR      $00F2(A5)           
00000146: 3D40 FFF6       '=@..'          MOVE.W   D0,-$000A(A6)       
0000014A: 2EBC 0001 0000  '......'        MOVE.L   #$00010000,(A7)     
00000150: 2F3C 0000 10D2  '/<....'        MOVE.L   #$000010D2,-(A7)    
00000156: 4EAD 00F2       'N...'          JSR      $00F2(A5)           
0000015A: 548F            'T.'            ADDQ.L   #$2,A7              
0000015C: 3E80            '>.'            MOVE.W   D0,(A7)             
0000015E: 4EAD 054A       'N..J'          JSR      $054A(A5)           
00000162: 2840            '(@'            MOVEA.L  D0,A4               
00000164: 302D 968C       '0-..'          MOVE.W   -$6974(A5),D0       
00000168: C1ED 968E       '....'          MULS.W   -$6972(A5),D0       
0000016C: 3E80            '>.'            MOVE.W   D0,(A7)             
0000016E: 4EAD 050A       'N...'          JSR      $050A(A5)           
00000172: 3A00            ':.'            MOVE.W   D0,D5               
00000174: 2E8C            '..'            MOVE.L   A4,(A7)             
00000176: 2005            ' .'            MOVE.L   D5,D0               
00000178: 48C0            'H.'            EXT.L    D0                  
0000017A: E988            '..'            LSL.L    #$4,D0              
0000017C: 204D            ' M'            MOVEA.L  A5,A0               
0000017E: D1C0            '..'            ADDA.L   D0,A0               
00000180: 4868 C740       'Hh.@'          PEA      -$38C0(A0)          
00000184: 4EAD 00DA       'N...'          JSR      $00DA(A5)           
00000188: 2EBC 03E8 0000  '......'        MOVE.L   #$03E80000,(A7)     
0000018E: 3F2E FFF6       '?...'          MOVE.W   -$000A(A6),-(A7)    
00000192: 4EAD 054A       'N..J'          JSR      $054A(A5)           
00000196: 2840            '(@'            MOVEA.L  D0,A4               
00000198: 200C            ' .'            MOVE.L   A4,D0               
0000019A: 4FEF 000C       'O...'          LEA      $000C(A7),A7        
0000019E: 6718            'g.'            BEQ.S    *+$001A             ; 000001B8
000001A0: 006C 0001 000A  '.l....'        ORI.W    #$0001,$000A(A4)    
000001A6: 006D 0010 C73A  '.m...:'        ORI.W    #$0010,-$38C6(A5)   
000001AC: 2F0C            '/.'            MOVE.L   A4,-(A7)            
000001AE: 486D C740       'Hm.@'          PEA      -$38C0(A5)          
000001B2: 4EAD 00DA       'N...'          JSR      $00DA(A5)           
000001B6: 508F            'P.'            ADDQ.L   #$8,A7              
000001B8: 2F3C 03E9 0000  '/<....'        MOVE.L   #$03E90000,-(A7)    
000001BE: 3F2E FFF6       '?...'          MOVE.W   -$000A(A6),-(A7)    
000001C2: 4EAD 054A       'N..J'          JSR      $054A(A5)           
000001C6: 2840            '(@'            MOVEA.L  D0,A4               
000001C8: 200C            ' .'            MOVE.L   A4,D0               
000001CA: 5C8F            '\.'            ADDQ.L   #$6,A7              
000001CC: 673C            'g<'            BEQ.S    *+$003E             ; 0000020A
000001CE: 006C 0008 000A  '.l....'        ORI.W    #$0008,$000A(A4)    
000001D4: 302D 968C       '0-..'          MOVE.W   -$6974(A5),D0       
000001D8: C1ED 968E       '....'          MULS.W   -$6972(A5),D0       
000001DC: 5340            'S@'            SUBQ.W   #$1,D0              
000001DE: 48C0            'H.'            EXT.L    D0                  
000001E0: E988            '..'            LSL.L    #$4,D0              
000001E2: 204D            ' M'            MOVEA.L  A5,A0               
000001E4: D1C0            '..'            ADDA.L   D0,A0               
000001E6: 0068 0080 C73A  '.h...:'        ORI.W    #$0080,-$38C6(A0)   
000001EC: 2F0C            '/.'            MOVE.L   A4,-(A7)            
000001EE: 302D 968C       '0-..'          MOVE.W   -$6974(A5),D0       
000001F2: C1ED 968E       '....'          MULS.W   -$6972(A5),D0       
000001F6: 5340            'S@'            SUBQ.W   #$1,D0              
000001F8: 48C0            'H.'            EXT.L    D0                  
000001FA: E988            '..'            LSL.L    #$4,D0              
000001FC: 204D            ' M'            MOVEA.L  A5,A0               
000001FE: D1C0            '..'            ADDA.L   D0,A0               
00000200: 4868 C740       'Hh.@'          PEA      -$38C0(A0)          
00000204: 4EAD 00DA       'N...'          JSR      $00DA(A5)           
00000208: 508F            'P.'            ADDQ.L   #$8,A7              
0000020A: 4A2D 969B       'J-..'          TST.B    -$6965(A5)          
0000020E: 666E            'fn'            BNE.S    *+$0070             ; 0000027E
00000210: 0C6D 000F 968C  '.m....'        CMPI.W   #$000F,-$6974(A5)   
00000216: 671C            'g.'            BEQ.S    *+$001E             ; 00000234
00000218: 3F3C 00E1       '?<..'          MOVE.W   #$00E1,-(A7)        
0000021C: 4EAD 050A       'N...'          JSR      $050A(A5)           
00000220: 322D 968C       '2-..'          MOVE.W   -$6974(A5),D1       
00000224: C3ED 968E       '....'          MULS.W   -$6972(A5),D1       
00000228: 48C1            'H.'            EXT.L    D1                  
0000022A: 83FC 0004       '....'          DIVS.W   #$0004,D1           
0000022E: B240            '.@'            CMP.W    D0,D1               
00000230: 548F            'T.'            ADDQ.L   #$2,A7              
00000232: 6F4A            'oJ'            BLE.S    *+$004C             ; 0000027E
00000234: 2F3C 0001 0000  '/<....'        MOVE.L   #$00010000,-(A7)    
0000023A: 2F3C 0000 10D6  '/<....'        MOVE.L   #$000010D6,-(A7)    
00000240: 4EAD 00F2       'N...'          JSR      $00F2(A5)           
00000244: 548F            'T.'            ADDQ.L   #$2,A7              
00000246: 3E80            '>.'            MOVE.W   D0,(A7)             
00000248: 4EAD 054A       'N..J'          JSR      $054A(A5)           
0000024C: 2840            '(@'            MOVEA.L  D0,A4               
0000024E: 200C            ' .'            MOVE.L   A4,D0               
00000250: 5C8F            '\.'            ADDQ.L   #$6,A7              
00000252: 672A            'g*'            BEQ.S    *+$002C             ; 0000027E
00000254: 1B7C 0001 969B  '.|....'        MOVE.B   #$01,-$6965(A5)     
0000025A: 2F0C            '/.'            MOVE.L   A4,-(A7)            
0000025C: 302D 968C       '0-..'          MOVE.W   -$6974(A5),D0       
00000260: C1ED 968E       '....'          MULS.W   -$6972(A5),D0       
00000264: 3F00            '?.'            MOVE.W   D0,-(A7)            
00000266: 4EAD 050A       'N...'          JSR      $050A(A5)           
0000026A: 48C0            'H.'            EXT.L    D0                  
0000026C: E988            '..'            LSL.L    #$4,D0              
0000026E: 204D            ' M'            MOVEA.L  A5,A0               
00000270: D1C0            '..'            ADDA.L   D0,A0               
00000272: 548F            'T.'            ADDQ.L   #$2,A7              
00000274: 4868 C740       'Hh.@'          PEA      -$38C0(A0)          
00000278: 4EAD 00DA       'N...'          JSR      $00DA(A5)           
0000027C: 508F            'P.'            ADDQ.L   #$8,A7              
0000027E: 4A2D 969D       'J-..'          TST.B    -$6963(A5)          
00000282: 666E            'fn'            BNE.S    *+$0070             ; 000002F2
00000284: 0C6D 000F 968C  '.m....'        CMPI.W   #$000F,-$6974(A5)   
0000028A: 671C            'g.'            BEQ.S    *+$001E             ; 000002A8
0000028C: 3F3C 00E1       '?<..'          MOVE.W   #$00E1,-(A7)        
00000290: 4EAD 050A       'N...'          JSR      $050A(A5)           
00000294: 322D 968C       '2-..'          MOVE.W   -$6974(A5),D1       
00000298: C3ED 968E       '....'          MULS.W   -$6972(A5),D1       
0000029C: 48C1            'H.'            EXT.L    D1                  
0000029E: 83FC 0004       '....'          DIVS.W   #$0004,D1           
000002A2: B240            '.@'            CMP.W    D0,D1               
000002A4: 548F            'T.'            ADDQ.L   #$2,A7              
000002A6: 6F4A            'oJ'            BLE.S    *+$004C             ; 000002F2
000002A8: 2F3C 0001 0000  '/<....'        MOVE.L   #$00010000,-(A7)    
000002AE: 2F3C 0000 10DC  '/<....'        MOVE.L   #$000010DC,-(A7)    
000002B4: 4EAD 00F2       'N...'          JSR      $00F2(A5)           
000002B8: 548F            'T.'            ADDQ.L   #$2,A7              
000002BA: 3E80            '>.'            MOVE.W   D0,(A7)             
000002BC: 4EAD 054A       'N..J'          JSR      $054A(A5)           
000002C0: 2840            '(@'            MOVEA.L  D0,A4               
000002C2: 200C            ' .'            MOVE.L   A4,D0               
000002C4: 5C8F            '\.'            ADDQ.L   #$6,A7              
000002C6: 672A            'g*'            BEQ.S    *+$002C             ; 000002F2
000002C8: 1B7C 0001 969D  '.|....'        MOVE.B   #$01,-$6963(A5)     
000002CE: 2F0C            '/.'            MOVE.L   A4,-(A7)            
000002D0: 302D 968C       '0-..'          MOVE.W   -$6974(A5),D0       
000002D4: C1ED 968E       '....'          MULS.W   -$6972(A5),D0       
000002D8: 3F00            '?.'            MOVE.W   D0,-(A7)            
000002DA: 4EAD 050A       'N...'          JSR      $050A(A5)           
000002DE: 48C0            'H.'            EXT.L    D0                  
000002E0: E988            '..'            LSL.L    #$4,D0              
000002E2: 204D            ' M'            MOVEA.L  A5,A0               
000002E4: D1C0            '..'            ADDA.L   D0,A0               
000002E6: 548F            'T.'            ADDQ.L   #$2,A7              
000002E8: 4868 C740       'Hh.@'          PEA      -$38C0(A0)          
000002EC: 4EAD 00DA       'N...'          JSR      $00DA(A5)           
000002F0: 508F            'P.'            ADDQ.L   #$8,A7              
000002F2: 4A2D 969C       'J-..'          TST.B    -$6964(A5)          
000002F6: 666E            'fn'            BNE.S    *+$0070             ; 00000366
000002F8: 0C6D 000F 968C  '.m....'        CMPI.W   #$000F,-$6974(A5)   
000002FE: 671C            'g.'            BEQ.S    *+$001E             ; 0000031C
00000300: 3F3C 00E1       '?<..'          MOVE.W   #$00E1,-(A7)        
00000304: 4EAD 050A       'N...'          JSR      $050A(A5)           
00000308: 322D 968C       '2-..'          MOVE.W   -$6974(A5),D1       
0000030C: C3ED 968E       '....'          MULS.W   -$6972(A5),D1       
00000310: 48C1            'H.'            EXT.L    D1                  
00000312: 83FC 0004       '....'          DIVS.W   #$0004,D1           
00000316: B240            '.@'            CMP.W    D0,D1               
00000318: 548F            'T.'            ADDQ.L   #$2,A7              
0000031A: 6F4A            'oJ'            BLE.S    *+$004C             ; 00000366
0000031C: 2F3C 0001 0000  '/<....'        MOVE.L   #$00010000,-(A7)    
00000322: 2F3C 0000 10E4  '/<....'        MOVE.L   #$000010E4,-(A7)    
00000328: 4EAD 00F2       'N...'          JSR      $00F2(A5)           
0000032C: 548F            'T.'            ADDQ.L   #$2,A7              
0000032E: 3E80            '>.'            MOVE.W   D0,(A7)             
00000330: 4EAD 054A       'N..J'          JSR      $054A(A5)           
00000334: 2840            '(@'            MOVEA.L  D0,A4               
00000336: 200C            ' .'            MOVE.L   A4,D0               
00000338: 5C8F            '\.'            ADDQ.L   #$6,A7              
0000033A: 672A            'g*'            BEQ.S    *+$002C             ; 00000366
0000033C: 1B7C 0001 969C  '.|....'        MOVE.B   #$01,-$6964(A5)     
00000342: 2F0C            '/.'            MOVE.L   A4,-(A7)            
00000344: 302D 968C       '0-..'          MOVE.W   -$6974(A5),D0       
00000348: C1ED 968E       '....'          MULS.W   -$6972(A5),D0       
0000034C: 3F00            '?.'            MOVE.W   D0,-(A7)            
0000034E: 4EAD 050A       'N...'          JSR      $050A(A5)           
00000352: 48C0            'H.'            EXT.L    D0                  
00000354: E988            '..'            LSL.L    #$4,D0              
00000356: 204D            ' M'            MOVEA.L  A5,A0               
00000358: D1C0            '..'            ADDA.L   D0,A0               
0000035A: 548F            'T.'            ADDQ.L   #$2,A7              
0000035C: 4868 C740       'Hh.@'          PEA      -$38C0(A0)          
00000360: 4EAD 00DA       'N...'          JSR      $00DA(A5)           
00000364: 508F            'P.'            ADDQ.L   #$8,A7              
00000366: 2F3C 0000 10EA  '/<....'        MOVE.L   #$000010EA,-(A7)    
0000036C: 4EAD 00F2       'N...'          JSR      $00F2(A5)           
00000370: 3E80            '>.'            MOVE.W   D0,(A7)             
00000372: 2F2D 9672       '/-.r'          MOVE.L   -$698E(A5),-(A7)    
00000376: 4EAD 00D2       'N...'          JSR      $00D2(A5)           
0000037A: 4A80            'J.'            TST.L    D0                  
0000037C: 508F            'P.'            ADDQ.L   #$8,A7              
0000037E: 6744            'gD'            BEQ.S    *+$0046             ; 000003C4
00000380: 2F3C 0001 0000  '/<....'        MOVE.L   #$00010000,-(A7)    
00000386: 2F3C 0000 10F2  '/<....'        MOVE.L   #$000010F2,-(A7)    
0000038C: 4EAD 00F2       'N...'          JSR      $00F2(A5)           
00000390: 548F            'T.'            ADDQ.L   #$2,A7              
00000392: 3E80            '>.'            MOVE.W   D0,(A7)             
00000394: 4EAD 054A       'N..J'          JSR      $054A(A5)           
00000398: 2840            '(@'            MOVEA.L  D0,A4               
0000039A: 200C            ' .'            MOVE.L   A4,D0               
0000039C: 5C8F            '\.'            ADDQ.L   #$6,A7              
0000039E: 6724            'g$'            BEQ.S    *+$0026             ; 000003C4
000003A0: 2F0C            '/.'            MOVE.L   A4,-(A7)            
000003A2: 302D 968C       '0-..'          MOVE.W   -$6974(A5),D0       
000003A6: C1ED 968E       '....'          MULS.W   -$6972(A5),D0       
000003AA: 3F00            '?.'            MOVE.W   D0,-(A7)            
000003AC: 4EAD 050A       'N...'          JSR      $050A(A5)           
000003B0: 48C0            'H.'            EXT.L    D0                  
000003B2: E988            '..'            LSL.L    #$4,D0              
000003B4: 204D            ' M'            MOVEA.L  A5,A0               
000003B6: D1C0            '..'            ADDA.L   D0,A0               
000003B8: 548F            'T.'            ADDQ.L   #$2,A7              
000003BA: 4868 C740       'Hh.@'          PEA      -$38C0(A0)          
000003BE: 4EAD 00DA       'N...'          JSR      $00DA(A5)           
000003C2: 508F            'P.'            ADDQ.L   #$8,A7              
000003C4: 7E00            '~.'            MOVEQ    #$00,D7             
000003C6: 607C            '`|'            BRA.S    *+$007E             ; 00000444
000003C8: 7C00            '|.'            MOVEQ    #$00,D6             
000003CA: 6070            '`p'            BRA.S    *+$0072             ; 0000043C
000003CC: 2F3C 0001 0000  '/<....'        MOVE.L   #$00010000,-(A7)    
000003D2: 3F2E FFF8       '?...'          MOVE.W   -$0008(A6),-(A7)    
000003D6: 4EAD 054A       'N..J'          JSR      $054A(A5)           
000003DA: 2840            '(@'            MOVEA.L  D0,A4               
000003DC: 3EBC 0009       '>...'          MOVE.W   #$0009,(A7)         
000003E0: 4EAD 050A       'N...'          JSR      $050A(A5)           
000003E4: 3A00            ':.'            MOVE.W   D0,D5               
000003E6: 2005            ' .'            MOVE.L   D5,D0               
000003E8: 48C0            'H.'            EXT.L    D0                  
000003EA: 81FC 0003       '....'          DIVS.W   #$0003,D0           
000003EE: 4840            'H@'            SWAP     D0                  
000003F0: D047            '.G'            ADD.W    D7,D0               
000003F2: B06D 968C       '.m..'          CMP.W    -$6974(A5),D0       
000003F6: 5C8F            '\.'            ADDQ.L   #$6,A7              
000003F8: 6C40            'l@'            BGE.S    *+$0042             ; 0000043A
000003FA: 2005            ' .'            MOVE.L   D5,D0               
000003FC: 48C0            'H.'            EXT.L    D0                  
000003FE: 81FC 0003       '....'          DIVS.W   #$0003,D0           
00000402: D046            '.F'            ADD.W    D6,D0               
00000404: B06D 968E       '.m..'          CMP.W    -$6972(A5),D0       
00000408: 6C30            'l0'            BGE.S    *+$0032             ; 0000043A
0000040A: 2005            ' .'            MOVE.L   D5,D0               
0000040C: 48C0            'H.'            EXT.L    D0                  
0000040E: 81FC 0003       '....'          DIVS.W   #$0003,D0           
00000412: D046            '.F'            ADD.W    D6,D0               
00000414: C1ED 968C       '....'          MULS.W   -$6974(A5),D0       
00000418: 48C5            'H.'            EXT.L    D5                  
0000041A: 8BFC 0003       '....'          DIVS.W   #$0003,D5           
0000041E: 4845            'HE'            SWAP     D5                  
00000420: DA47            '.G'            ADD.W    D7,D5               
00000422: DA40            '.@'            ADD.W    D0,D5               
00000424: 2F0C            '/.'            MOVE.L   A4,-(A7)            
00000426: 2005            ' .'            MOVE.L   D5,D0               
00000428: 48C0            'H.'            EXT.L    D0                  
0000042A: E988            '..'            LSL.L    #$4,D0              
0000042C: 204D            ' M'            MOVEA.L  A5,A0               
0000042E: D1C0            '..'            ADDA.L   D0,A0               
00000430: 4868 C740       'Hh.@'          PEA      -$38C0(A0)          
00000434: 4EAD 00DA       'N...'          JSR      $00DA(A5)           
00000438: 508F            'P.'            ADDQ.L   #$8,A7              
0000043A: 5646            'VF'            ADDQ.W   #$3,D6              
0000043C: BC6D 968E       '.m..'          CMP.W    -$6972(A5),D6       
00000440: 6D8A            'm.'            BLT.S    *-$0074             ; 000003CC
00000442: 5647            'VG'            ADDQ.W   #$3,D7              
00000444: BE6D 968C       '.m..'          CMP.W    -$6974(A5),D7       
00000448: 6D00 FF7E       'm..~'          BLT      *-$0080             ; 000003C8
0000044C: 302D 968C       '0-..'          MOVE.W   -$6974(A5),D0       
00000450: C1ED 968E       '....'          MULS.W   -$6972(A5),D0       
00000454: 0C40 000A       '.@..'          CMPI.W   #$000A,D0           
00000458: 6C04            'l.'            BGE.S    *+$0006             ; 0000045E
0000045A: 7600            'v.'            MOVEQ    #$00,D3             
0000045C: 6036            '`6'            BRA.S    *+$0038             ; 00000494
0000045E: 302D 968C       '0-..'          MOVE.W   -$6974(A5),D0       
00000462: C1ED 968E       '....'          MULS.W   -$6972(A5),D0       
00000466: 48C0            'H.'            EXT.L    D0                  
00000468: 81FC 0014       '....'          DIVS.W   #$0014,D0           
0000046C: 362D 968E       '6-..'          MOVE.W   -$6972(A5),D3       
00000470: C7ED 968C       '....'          MULS.W   -$6974(A5),D3       
00000474: 48C3            'H.'            EXT.L    D3                  
00000476: 87FC 000A       '....'          DIVS.W   #$000A,D3           
0000047A: D640            '.@'            ADD.W    D0,D3               
0000047C: 302D 968C       '0-..'          MOVE.W   -$6974(A5),D0       
00000480: C1ED 968E       '....'          MULS.W   -$6972(A5),D0       
00000484: 48C0            'H.'            EXT.L    D0                  
00000486: 81FC 000A       '....'          DIVS.W   #$000A,D0           
0000048A: 3F00            '?.'            MOVE.W   D0,-(A7)            
0000048C: 4EAD 050A       'N...'          JSR      $050A(A5)           
00000490: 9640            '.@'            SUB.W    D0,D3               
00000492: 548F            'T.'            ADDQ.L   #$2,A7              
00000494: 7E00            '~.'            MOVEQ    #$00,D7             
00000496: 6000 0080       '`...'          BRA      *+$0082             ; 00000518
0000049A: 4EAD 0552       'N..R'          JSR      $0552(A5)           
0000049E: 3800            '8.'            MOVE.W   D0,D4               
000004A0: 703C            'p<'            MOVEQ    #$3C,D0             ; '<'
000004A2: C1C4            '..'            MULS.W   D4,D0               
000004A4: 204D            ' M'            MOVEA.L  A5,A0               
000004A6: D1C0            '..'            ADDA.L   D0,A0               
000004A8: 3D68 EA34 FFFA  '=h.4..'        MOVE.W   -$15CC(A0),-$0006(A6) 
000004AE: 703C            'p<'            MOVEQ    #$3C,D0             ; '<'
000004B0: C1C4            '..'            MULS.W   D4,D0               
000004B2: 204D            ' M'            MOVEA.L  A5,A0               
000004B4: D1C0            '..'            ADDA.L   D0,A0               
000004B6: 3D68 EA32 FFFE  '=h.2..'        MOVE.W   -$15CE(A0),-$0002(A6) 
000004BC: 302E FFFA       '0...'          MOVE.W   -$0006(A6),D0       
000004C0: B06E FFFE       '.n..'          CMP.W    -$0002(A6),D0       
000004C4: 6608            'f.'            BNE.S    *+$000A             ; 000004CE
000004C6: 3D6E FFFA FFFC  '=n....'        MOVE.W   -$0006(A6),-$0004(A6) 
000004CC: 601A            '`.'            BRA.S    *+$001C             ; 000004E8
000004CE: 302E FFFA       '0...'          MOVE.W   -$0006(A6),D0       
000004D2: 906E FFFE       '.n..'          SUB.W    -$0002(A6),D0       
000004D6: 5240            'R@'            ADDQ.W   #$1,D0              
000004D8: 3F00            '?.'            MOVE.W   D0,-(A7)            
000004DA: 4EAD 050A       'N...'          JSR      $050A(A5)           
000004DE: D06E FFFE       '.n..'          ADD.W    -$0002(A6),D0       
000004E2: 3D40 FFFC       '=@..'          MOVE.W   D0,-$0004(A6)       
000004E6: 548F            'T.'            ADDQ.L   #$2,A7              
000004E8: 4267            'Bg'            CLR.W    -(A7)               
000004EA: 3F2E FFFC       '?...'          MOVE.W   -$0004(A6),-(A7)    
000004EE: 3F04            '?.'            MOVE.W   D4,-(A7)            
000004F0: 4EAD 054A       'N..J'          JSR      $054A(A5)           
000004F4: 2840            '(@'            MOVEA.L  D0,A4               
000004F6: 200C            ' .'            MOVE.L   A4,D0               
000004F8: 5C8F            '\.'            ADDQ.L   #$6,A7              
000004FA: 6762            'gb'            BEQ.S    *+$0064             ; 0000055E
000004FC: 302D 968C       '0-..'          MOVE.W   -$6974(A5),D0       
00000500: C1ED 968E       '....'          MULS.W   -$6972(A5),D0       
00000504: 3F00            '?.'            MOVE.W   D0,-(A7)            
00000506: 4EAD 050A       'N...'          JSR      $050A(A5)           
0000050A: 3A00            ':.'            MOVE.W   D0,D5               
0000050C: 3E85            '>.'            MOVE.W   D5,(A7)             
0000050E: 2F0C            '/.'            MOVE.L   A4,-(A7)            
00000510: 4EAD 053A       'N..:'          JSR      $053A(A5)           
00000514: 5C8F            '\.'            ADDQ.L   #$6,A7              
00000516: 5247            'RG'            ADDQ.W   #$1,D7              
00000518: B647            '.G'            CMP.W    D7,D3               
0000051A: 6E00 FF7E       'n..~'          BGT      *-$0080             ; 0000049A
0000051E: 7E00            '~.'            MOVEQ    #$00,D7             
00000520: 6032            '`2'            BRA.S    *+$0034             ; 00000554
00000522: 302D 968C       '0-..'          MOVE.W   -$6974(A5),D0       
00000526: C1ED 968E       '....'          MULS.W   -$6972(A5),D0       
0000052A: 3F00            '?.'            MOVE.W   D0,-(A7)            
0000052C: 4EAD 050A       'N...'          JSR      $050A(A5)           
00000530: 3A00            ':.'            MOVE.W   D0,D5               
00000532: 2F3C 0001 0000  '/<....'        MOVE.L   #$00010000,-(A7)    
00000538: 3F2E FFF6       '?...'          MOVE.W   -$000A(A6),-(A7)    
0000053C: 4EAD 054A       'N..J'          JSR      $054A(A5)           
00000540: 2840            '(@'            MOVEA.L  D0,A4               
00000542: 200C            ' .'            MOVE.L   A4,D0               
00000544: 508F            'P.'            ADDQ.L   #$8,A7              
00000546: 6716            'g.'            BEQ.S    *+$0018             ; 0000055E
00000548: 3F05            '?.'            MOVE.W   D5,-(A7)            
0000054A: 2F0C            '/.'            MOVE.L   A4,-(A7)            
0000054C: 4EAD 053A       'N..:'          JSR      $053A(A5)           
00000550: 5C8F            '\.'            ADDQ.L   #$6,A7              
00000552: 5247            'RG'            ADDQ.W   #$1,D7              
00000554: 7002            'p.'            MOVEQ    #$02,D0             
00000556: D043            '.C'            ADD.W    D3,D0               
00000558: D043            '.C'            ADD.W    D3,D0               
0000055A: B047            '.G'            CMP.W    D7,D0               
0000055C: 6EC4            'n.'            BGT.S    *-$003A             ; 00000522
0000055E: 4CDF 10F8       'L...'          MOVEM.L  (A7)+,D3-D7/A4      
00000562: 4E5E            'N^'            UNLK     A6                  
00000564: 4E75            'Nu'            RTS                          
00000566: 8953            '.S'            OR.W     D4,(A3)             
00000568: 746F            'to'            MOVEQ    #$6F,D2             ; 'o'
0000056A: 636B            'ck'            BLS.S    *+$006D             ; 000005D7
0000056C: 4D61            'Ma'            DC.W     $4D61               ; ????
0000056E: 7A65            'ze'            MOVEQ    #$65,D5             ; 'e'
00000570: 0000            '..'            DC.W     $0000            

File: Scarab, Resource 26, Type: CODE
First jump table entry offset = $82D8, Jump table entries used = 1
Segment size = $218 [536]
00000000: 4E56 FE46       'NV.F'          LINK     A6,#$FE46           
00000004: 48E7 0018       'H...'          MOVEM.L  A3/A4,-(A7)         
00000008: 302D 9B48       '0-.H'          MOVE.W   -$64B8(A5),D0       
0000000C: 48C0            'H.'            EXT.L    D0                  
0000000E: E988            '..'            LSL.L    #$4,D0              
00000010: 204D            ' M'            MOVEA.L  A5,A0               
00000012: D1C0            '..'            ADDA.L   D0,A0               
00000014: 302D 9B4A       '0-.J'          MOVE.W   -$64B6(A5),D0       
00000018: 48C0            'H.'            EXT.L    D0                  
0000001A: C0A8 C738       '...8'          AND.L    -$38C8(A0),D0       
0000001E: 6720            'g '            BEQ.S    *+$0022             ; 00000040
00000020: 2F3C 0000 0FF6  '/<....'        MOVE.L   #$00000FF6,-(A7)    
00000026: 2F3C 0000 0FF8  '/<....'        MOVE.L   #$00000FF8,-(A7)    
0000002C: 2F3C 0000 0FFA  '/<....'        MOVE.L   #$00000FFA,-(A7)    
00000032: 2F3C 0000 0FFC  '/<....'        MOVE.L   #$00000FFC,-(A7)    
00000038: 4EAD 051A       'N...'          JSR      $051A(A5)           
0000003C: 6000 01C0       '`...'          BRA      *+$01C2             ; 000001FE
00000040: 4878 0400       'Hx..'          PEA      $0400               
00000044: 302D 9B48       '0-.H'          MOVE.W   -$64B8(A5),D0       
00000048: 48C0            'H.'            EXT.L    D0                  
0000004A: E988            '..'            LSL.L    #$4,D0              
0000004C: 204D            ' M'            MOVEA.L  A5,A0               
0000004E: D1C0            '..'            ADDA.L   D0,A0               
00000050: 2F28 C740       '/(.@'          MOVE.L   -$38C0(A0),-(A7)    
00000054: 4EAD 00EA       'N...'          JSR      $00EA(A5)           
00000058: 2640            '&@'            MOVEA.L  D0,A3               
0000005A: 508F            'P.'            ADDQ.L   #$8,A7              
0000005C: 603C            '`<'            BRA.S    *+$003E             ; 0000009A
0000005E: 302D 9B4A       '0-.J'          MOVE.W   -$64B6(A5),D0       
00000062: 48C0            'H.'            EXT.L    D0                  
00000064: C0AB 0008       '....'          AND.L    $0008(A3),D0        
00000068: 6720            'g '            BEQ.S    *+$0022             ; 0000008A
0000006A: 2F3C 0000 1022  '/<..."'        MOVE.L   #$00001022,-(A7)    
00000070: 2F3C 0000 1024  '/<...$'        MOVE.L   #$00001024,-(A7)    
00000076: 2F3C 0000 1026  '/<...&'        MOVE.L   #$00001026,-(A7)    
0000007C: 2F3C 0000 1028  '/<...('        MOVE.L   #$00001028,-(A7)    
00000082: 4EAD 051A       'N...'          JSR      $051A(A5)           
00000086: 6000 0176       '`..v'          BRA      *+$0178             ; 000001FE
0000008A: 4878 0400       'Hx..'          PEA      $0400               
0000008E: 2F2B 0014       '/+..'          MOVE.L   $0014(A3),-(A7)     
00000092: 4EAD 00EA       'N...'          JSR      $00EA(A5)           
00000096: 2640            '&@'            MOVEA.L  D0,A3               
00000098: 508F            'P.'            ADDQ.L   #$8,A7              
0000009A: 200B            ' .'            MOVE.L   A3,D0               
0000009C: 66C0            'f.'            BNE.S    *-$003E             ; 0000005E
0000009E: 3F3C 000A       '?<..'          MOVE.W   #$000A,-(A7)        
000000A2: 4EAD 050A       'N...'          JSR      $050A(A5)           
000000A6: 4A40            'J@'            TST.W    D0                  
000000A8: 548F            'T.'            ADDQ.L   #$2,A7              
000000AA: 6632            'f2'            BNE.S    *+$0034             ; 000000DE
000000AC: 2F3C 0000 1042  '/<...B'        MOVE.L   #$00001042,-(A7)    
000000B2: 2F3C 0000 1044  '/<...D'        MOVE.L   #$00001044,-(A7)    
000000B8: 2F3C 0000 1046  '/<...F'        MOVE.L   #$00001046,-(A7)    
000000BE: 2F3C 0000 1048  '/<...H'        MOVE.L   #$00001048,-(A7)    
000000C4: 4EAD 051A       'N...'          JSR      $051A(A5)           
000000C8: 3EBC 0001       '>...'          MOVE.W   #$0001,(A7)         
000000CC: 2F2E 0008       '/...'          MOVE.L   $0008(A6),-(A7)     
000000D0: 4EAD 024A       'N..J'          JSR      $024A(A5)           
000000D4: 2E80            '..'            MOVE.L   D0,(A7)             
000000D6: 4EAD 0542       'N..B'          JSR      $0542(A5)           
000000DA: 6000 0122       '`.."'          BRA      *+$0124             ; 000001FE
000000DE: 2F3C 0014 0001  '/<....'        MOVE.L   #$00140001,-(A7)    
000000E4: 4EAD 00FA       'N...'          JSR      $00FA(A5)           
000000E8: 0C40 0014       '.@..'          CMPI.W   #$0014,D0           
000000EC: 588F            'X.'            ADDQ.L   #$4,A7              
000000EE: 670E            'g.'            BEQ.S    *+$0010             ; 000000FE
000000F0: 2F3C 0000 106E  '/<...n'        MOVE.L   #$0000106E,-(A7)    
000000F6: 4EAD 040A       'N...'          JSR      $040A(A5)           
000000FA: 6000 0102       '`...'          BRA      *+$0104             ; 000001FE
000000FE: 42A7            'B.'            CLR.L    -(A7)               
00000100: 3F3C 1F32       '?<.2'          MOVE.W   #$1F32,-(A7)        
00000104: 486E FF56       'Hn.V'          PEA      -$00AA(A6)          
00000108: 4878 FFFF       'Hx..'          PEA      $FFFF               
0000010C: A97C            '.|'            _GetNewDialog                     ; A97C
0000010E: 285F            '(_'            MOVEA.L  (A7)+,A4            
00000110: 2F0C            '/.'            MOVE.L   A4,-(A7)            
00000112: 4EAD 0432       'N..2'          JSR      $0432(A5)           
00000116: 2E8C            '..'            MOVE.L   A4,(A7)             
00000118: 4878 0003       'Hx..'          PEA      $0003               
0000011C: 3F3C 7FFF       '?<..'          MOVE.W   #$7FFF,-(A7)        
00000120: A97E            '.~'            _SelIText                     ; A97E
00000122: 42A7            'B.'            CLR.L    -(A7)               
00000124: 486E FF48       'Hn.H'          PEA      -$00B8(A6)          
00000128: A991            '..'            _ModalDialog                     ; A991
0000012A: 0C6E 0002 FF48  '.n...H'        CMPI.W   #$0002,-$00B8(A6)   
00000130: 660A            'f.'            BNE.S    *+$000C             ; 0000013C
00000132: 2F0C            '/.'            MOVE.L   A4,-(A7)            
00000134: A982            '..'            _CloseDialog                     ; A982
00000136: 7000            'p.'            MOVEQ    #$00,D0             
00000138: 6000 00C4       '`...'          BRA      *+$00C6             ; 000001FE
0000013C: 0C6E 0001 FF48  '.n...H'        CMPI.W   #$0001,-$00B8(A6)   
00000142: 66DE            'f.'            BNE.S    *-$0020             ; 00000122
00000144: 2F0C            '/.'            MOVE.L   A4,-(A7)            
00000146: 3F3C 0003       '?<..'          MOVE.W   #$0003,-(A7)        
0000014A: 486E FE46       'Hn.F'          PEA      -$01BA(A6)          
0000014E: 486E FF52       'Hn.R'          PEA      -$00AE(A6)          
00000152: 486E FF4A       'Hn.J'          PEA      -$00B6(A6)          
00000156: A98D            '..'            _GetDItem                     ; A98D
00000158: 2F2E FF52       '/..R'          MOVE.L   -$00AE(A6),-(A7)    
0000015C: 486E FE48       'Hn.H'          PEA      -$01B8(A6)          
00000160: A990            '..'            _GetIText                     ; A990
00000162: 2F0C            '/.'            MOVE.L   A4,-(A7)            
00000164: A982            '..'            _CloseDialog                     ; A982
00000166: 2F3C 0001 0000  '/<....'        MOVE.L   #$00010000,-(A7)    
0000016C: 2F3C 0000 1094  '/<....'        MOVE.L   #$00001094,-(A7)    
00000172: 4EAD 00F2       'N...'          JSR      $00F2(A5)           
00000176: 548F            'T.'            ADDQ.L   #$2,A7              
00000178: 3E80            '>.'            MOVE.W   D0,(A7)             
0000017A: 4EAD 054A       'N..J'          JSR      $054A(A5)           
0000017E: 2640            '&@'            MOVEA.L  D0,A3               
00000180: 200B            ' .'            MOVE.L   A3,D0               
00000182: 5C8F            '\.'            ADDQ.L   #$6,A7              
00000184: 661E            'f.'            BNE.S    *+$0020             ; 000001A4
00000186: 2F3C 0000 109A  '/<....'        MOVE.L   #$0000109A,-(A7)    
0000018C: 2F3C 0000 109C  '/<....'        MOVE.L   #$0000109C,-(A7)    
00000192: 2F3C 0000 109E  '/<....'        MOVE.L   #$0000109E,-(A7)    
00000198: 2F3C 0000 10A0  '/<....'        MOVE.L   #$000010A0,-(A7)    
0000019E: 4EAD 051A       'N...'          JSR      $051A(A5)           
000001A2: 605A            '`Z'            BRA.S    *+$005C             ; 000001FE
000001A4: 0C2E 0020 FE48  '... .H'        CMPI.B   #$20,-$01B8(A6)     ; ' '
000001AA: 6306            'c.'            BLS.S    *+$0008             ; 000001B2
000001AC: 1D7C 0020 FE48  '.|. .H'        MOVE.B   #$20,-$01B8(A6)     ; ' '
000001B2: 7000            'p.'            MOVEQ    #$00,D0             
000001B4: 102E FE48       '...H'          MOVE.B   -$01B8(A6),D0       
000001B8: 5280            'R.'            ADDQ.L   #$1,D0              
000001BA: A11E            '..'            _NewPtr                      ; A11E
000001BC: 2748 000C       ''H..'          MOVE.L   A0,$000C(A3)        
000001C0: 486E FE48       'Hn.H'          PEA      -$01B8(A6)          
000001C4: 2F2B 000C       '/+..'          MOVE.L   $000C(A3),-(A7)     
000001C8: 4EAD 04C2       'N...'          JSR      $04C2(A5)           
000001CC: 302D 9B4A       '0-.J'          MOVE.W   -$64B6(A5),D0       
000001D0: 48C0            'H.'            EXT.L    D0                  
000001D2: 81AB 0008       '....'          OR.L     D0,$0008(A3)        
000001D6: 006B 0080 000A  '.k....'        ORI.W    #$0080,$000A(A3)    
000001DC: 2E8B            '..'            MOVE.L   A3,(A7)             
000001DE: 302D 9B48       '0-.H'          MOVE.W   -$64B8(A5),D0       
000001E2: 48C0            'H.'            EXT.L    D0                  
000001E4: E988            '..'            LSL.L    #$4,D0              
000001E6: 204D            ' M'            MOVEA.L  A5,A0               
000001E8: D1C0            '..'            ADDA.L   D0,A0               
000001EA: 4868 C740       'Hh.@'          PEA      -$38C0(A0)          
000001EE: 4EAD 00DA       'N...'          JSR      $00DA(A5)           
000001F2: 3EAD 9B4A       '>..J'          MOVE.W   -$64B6(A5),(A7)     
000001F6: 3F2D 9B48       '?-.H'          MOVE.W   -$64B8(A5),-(A7)    
000001FA: 4EAD 0132       'N..2'          JSR      $0132(A5)           
000001FE: 4CEE 1800 FE3E  'L....>'        MOVEM.L  -$01C2(A6),A3/A4    
00000204: 4E5E            'N^'            UNLK     A6                  
00000206: 4E75            'Nu'            RTS                          
00000208: 8863            '.c'            OR.W     -(A3),D4            
0000020A: 6861            'ha'            BVC.S    *+$0063             ; 0000026D
0000020C: 7263            'rc'            MOVEQ    #$63,D1             ; 'c'
0000020E: 6F61            'oa'            BLE.S    *+$0063             ; 00000271
00000210: 6C00 0000       'l...'          BGE      *+$0002             ; 00000212

File: Scarab, Resource 25, Type: CODE
First jump table entry offset = $FFEF, Jump table entries used = 0
Segment size = $4 [4]

File: Scarab, Resource 24, Type: CODE
First jump table entry offset = $82C8, Jump table entries used = 2
Segment size = $1D2 [466]
00000000: 4E56 0000       'NV..'          LINK     A6,#$0000           
00000004: 2F0C            '/.'            MOVE.L   A4,-(A7)            
00000006: 2F3C 0000 0ED6  '/<....'        MOVE.L   #$00000ED6,-(A7)    
0000000C: 4EAD 00F2       'N...'          JSR      $00F2(A5)           
00000010: 3E80            '>.'            MOVE.W   D0,(A7)             
00000012: 2F2D 9672       '/-.r'          MOVE.L   -$698E(A5),-(A7)    
00000016: 4EAD 00D2       'N...'          JSR      $00D2(A5)           
0000001A: 2840            '(@'            MOVEA.L  D0,A4               
0000001C: 200C            ' .'            MOVE.L   A4,D0               
0000001E: 508F            'P.'            ADDQ.L   #$8,A7              
00000020: 661E            'f.'            BNE.S    *+$0020             ; 00000040
00000022: 2F3C 0000 0EDC  '/<....'        MOVE.L   #$00000EDC,-(A7)    
00000028: 2F3C 0000 0EDE  '/<....'        MOVE.L   #$00000EDE,-(A7)    
0000002E: 2F3C 0000 0EE0  '/<....'        MOVE.L   #$00000EE0,-(A7)    
00000034: 2F3C 0000 0EE2  '/<....'        MOVE.L   #$00000EE2,-(A7)    
0000003A: 4EAD 051A       'N...'          JSR      $051A(A5)           
0000003E: 6012            '`.'            BRA.S    *+$0014             ; 00000052
00000040: 3F3C 0006       '?<..'          MOVE.W   #$0006,-(A7)        
00000044: 2F2E 0008       '/...'          MOVE.L   $0008(A6),-(A7)     
00000048: 2F0C            '/.'            MOVE.L   A4,-(A7)            
0000004A: 4EAD 0442       'N..B'          JSR      $0442(A5)           
0000004E: 4EAD 01CA       'N...'          JSR      $01CA(A5)           
00000052: 286E FFFC       '(n..'          MOVEA.L  -$0004(A6),A4       
00000056: 4E5E            'N^'            UNLK     A6                  
00000058: 4E75            'Nu'            RTS                          
0000005A: 8464            '.d'            OR.W     -(A4),D2            
0000005C: 6172            'ar'            BSR.S    *+$0074             ; 000000D0
0000005E: 7400            't.'            MOVEQ    #$00,D2             
00000060: 0000 4E56       '..NV'          ORI.B    #$4E56,D0           ; 'V'
00000064: 0000 48E7       '..H.'          ORI.B    #$48E7,D0           
00000068: 0718            '..'            BTST     D3,(A0)+            
0000006A: 286E 0008       '(n..'          MOVEA.L  $0008(A6),A4        
0000006E: 7C01            '|.'            MOVEQ    #$01,D6             
00000070: 4AAC 0010       'J...'          TST.L    $0010(A4)           
00000074: 670A            'g.'            BEQ.S    *+$000C             ; 00000080
00000076: 206C 0010       ' l..'          MOVEA.L  $0010(A4),A0        
0000007A: 4A68 0002       'Jh..'          TST.W    $0002(A0)           
0000007E: 6620            'f '            BNE.S    *+$0022             ; 000000A0
00000080: 2F3C 0000 0F08  '/<....'        MOVE.L   #$00000F08,-(A7)    
00000086: 2F3C 0000 0F0A  '/<....'        MOVE.L   #$00000F0A,-(A7)    
0000008C: 2F3C 0000 0F0C  '/<....'        MOVE.L   #$00000F0C,-(A7)    
00000092: 2F3C 0000 0F0E  '/<....'        MOVE.L   #$00000F0E,-(A7)    
00000098: 4EAD 051A       'N...'          JSR      $051A(A5)           
0000009C: 6000 0120       '`.. '          BRA      *+$0122             ; 000001BE
000000A0: 206C 0010       ' l..'          MOVEA.L  $0010(A4),A0        
000000A4: 5368 0002       'Sh..'          SUBQ.W   #$1,$0002(A0)       
000000A8: 2F3C 0002 0001  '/<....'        MOVE.L   #$00020001,-(A7)    
000000AE: 4EAD 00FA       'N...'          JSR      $00FA(A5)           
000000B2: 5540            'U@'            SUBQ.W   #$2,D0              
000000B4: 588F            'X.'            ADDQ.L   #$4,A7              
000000B6: 670E            'g.'            BEQ.S    *+$0010             ; 000000C6
000000B8: 2F3C 0000 0F22  '/<..."'        MOVE.L   #$00000F22,-(A7)    
000000BE: 4EAD 040A       'N...'          JSR      $040A(A5)           
000000C2: 6000 00FA       '`...'          BRA      *+$00FC             ; 000001BE
000000C6: 3E2D 9B48       '>-.H'          MOVE.W   -$64B8(A5),D7       
000000CA: 6000 00D0       '`...'          BRA      *+$00D2             ; 0000019C
000000CE: 3F2D 9B4A       '?-.J'          MOVE.W   -$64B6(A5),-(A7)    
000000D2: 3F07            '?.'            MOVE.W   D7,-(A7)            
000000D4: 4EAD 03AA       'N...'          JSR      $03AA(A5)           
000000D8: 3E00            '>.'            MOVE.W   D0,D7               
000000DA: 5246            'RF'            ADDQ.W   #$1,D6              
000000DC: 2EBC 0010 0000  '......'        MOVE.L   #$00100000,(A7)     
000000E2: 2007            ' .'            MOVE.L   D7,D0               
000000E4: 48C0            'H.'            EXT.L    D0                  
000000E6: E988            '..'            LSL.L    #$4,D0              
000000E8: 204D            ' M'            MOVEA.L  A5,A0               
000000EA: D1C0            '..'            ADDA.L   D0,A0               
000000EC: 2F28 C740       '/(.@'          MOVE.L   -$38C0(A0),-(A7)    
000000F0: 4EAD 00EA       'N...'          JSR      $00EA(A5)           
000000F4: 2640            '&@'            MOVEA.L  D0,A3               
000000F6: 200B            ' .'            MOVE.L   A3,D0               
000000F8: 508F            'P.'            ADDQ.L   #$8,A7              
000000FA: 6700 00A0       'g...'          BEQ      *+$00A2             ; 0000019C
000000FE: 2006            ' .'            MOVE.L   D6,D0               
00000100: 48C0            'H.'            EXT.L    D0                  
00000102: 81FC 0002       '....'          DIVS.W   #$0002,D0           
00000106: 5240            'R@'            ADDQ.W   #$1,D0              
00000108: 3F00            '?.'            MOVE.W   D0,-(A7)            
0000010A: 4EAD 050A       'N...'          JSR      $050A(A5)           
0000010E: 4A40            'J@'            TST.W    D0                  
00000110: 548F            'T.'            ADDQ.L   #$2,A7              
00000112: 6662            'fb'            BNE.S    *+$0064             ; 00000176
00000114: 2F3C 0000 0F54  '/<...T'        MOVE.L   #$00000F54,-(A7)    
0000011A: 4EAD 040A       'N...'          JSR      $040A(A5)           
0000011E: 3EBC 0001       '>...'          MOVE.W   #$0001,(A7)         
00000122: 2F0B            '/.'            MOVE.L   A3,-(A7)            
00000124: 486D 97F6       'Hm..'          PEA      -$680A(A5)          
00000128: 4EAD 0412       'N...'          JSR      $0412(A5)           
0000012C: 2EBC 0000 0F5E  '.....^'        MOVE.L   #$00000F5E,(A7)     
00000132: 4EAD 040A       'N...'          JSR      $040A(A5)           
00000136: 4A2B 0009       'J+..'          TST.B    $0009(A3)           
0000013A: 4FEF 000C       'O...'          LEA      $000C(A7),A7        
0000013E: 6A16            'j.'            BPL.S    *+$0018             ; 00000156
00000140: 2F3C 0000 0F62  '/<...b'        MOVE.L   #$00000F62,-(A7)    
00000146: 4EAD 040A       'N...'          JSR      $040A(A5)           
0000014A: 2EBC 0000 0F9C  '......'        MOVE.L   #$00000F9C,(A7)     
00000150: 4EAD 040A       'N...'          JSR      $040A(A5)           
00000154: 6068            '`h'            BRA.S    *+$006A             ; 000001BE
00000156: 2F0B            '/.'            MOVE.L   A3,-(A7)            
00000158: 4EAD 020A       'N...'          JSR      $020A(A5)           
0000015C: 3EAD 9B4A       '>..J'          MOVE.W   -$64B6(A5),(A7)     
00000160: 3F2D 9B48       '?-.H'          MOVE.W   -$64B8(A5),-(A7)    
00000164: 4EAD 0132       'N..2'          JSR      $0132(A5)           
00000168: 0685 0000 0096  '......'        ADDI.L   #$00000096,D5       
0000016E: 4257            'BW'            CLR.W    (A7)                
00000170: 4EAD 0462       'N..b'          JSR      $0462(A5)           
00000174: 6048            '`H'            BRA.S    *+$004A             ; 000001BE
00000176: 2F3C 0000 0FB8  '/<....'        MOVE.L   #$00000FB8,-(A7)    
0000017C: 4EAD 040A       'N...'          JSR      $040A(A5)           
00000180: 3EBC 0001       '>...'          MOVE.W   #$0001,(A7)         
00000184: 2F0B            '/.'            MOVE.L   A3,-(A7)            
00000186: 486D 97F6       'Hm..'          PEA      -$680A(A5)          
0000018A: 4EAD 0412       'N...'          JSR      $0412(A5)           
0000018E: 2EBC 0000 0FCE  '......'        MOVE.L   #$00000FCE,(A7)     
00000194: 4EAD 040A       'N...'          JSR      $040A(A5)           
00000198: 4FEF 000C       'O...'          LEA      $000C(A7),A7        
0000019C: 2007            ' .'            MOVE.L   D7,D0               
0000019E: 48C0            'H.'            EXT.L    D0                  
000001A0: E988            '..'            LSL.L    #$4,D0              
000001A2: 204D            ' M'            MOVEA.L  A5,A0               
000001A4: D1C0            '..'            ADDA.L   D0,A0               
000001A6: 302D 9B4A       '0-.J'          MOVE.W   -$64B6(A5),D0       
000001AA: 48C0            'H.'            EXT.L    D0                  
000001AC: C0A8 C738       '...8'          AND.L    -$38C8(A0),D0       
000001B0: 6600 FF1C       'f...'          BNE      *-$00E2             ; 000000CE
000001B4: 2F3C 0000 0FD2  '/<....'        MOVE.L   #$00000FD2,-(A7)    
000001BA: 4EAD 040A       'N...'          JSR      $040A(A5)           
000001BE: 4CEE 18E0 FFEC  'L.....'        MOVEM.L  -$0014(A6),D5-D7/A3/A4 
000001C4: 4E5E            'N^'            UNLK     A6                  
000001C6: 4E75            'Nu'            RTS                          
000001C8: 8367            '.g'            OR.W     D1,-(A7)            
000001CA: 756E            'un'            DC.W     $756E               ; ????
000001CC: 0000            '..'            DC.W     $0000            

File: Scarab, Resource 22, Type: CODE
First jump table entry offset = $82C0, Jump table entries used = 1
Segment size = $86 [134]
00000000: 4E56 0000       'NV..'          LINK     A6,#$0000           
00000004: 2F3C 001E 0001  '/<....'        MOVE.L   #$001E0001,-(A7)    
0000000A: 4EAD 00FA       'N...'          JSR      $00FA(A5)           
0000000E: 0C40 001E       '.@..'          CMPI.W   #$001E,D0           
00000012: 588F            'X.'            ADDQ.L   #$4,A7              
00000014: 6650            'fP'            BNE.S    *+$0052             ; 00000066
00000016: 3F3C 000A       '?<..'          MOVE.W   #$000A,-(A7)        
0000001A: 4EAD 050A       'N...'          JSR      $050A(A5)           
0000001E: 3E80            '>.'            MOVE.W   D0,(A7)             
00000020: 4EAD 0492       'N...'          JSR      $0492(A5)           
00000024: 3EBC 000A       '>...'          MOVE.W   #$000A,(A7)         
00000028: 4EAD 050A       'N...'          JSR      $050A(A5)           
0000002C: 4A40            'J@'            TST.W    D0                  
0000002E: 548F            'T.'            ADDQ.L   #$2,A7              
00000030: 6640            'f@'            BNE.S    *+$0042             ; 00000072
00000032: 2F3C 0000 0E7E  '/<...~'        MOVE.L   #$00000E7E,-(A7)    
00000038: 2F3C 0000 0E80  '/<....'        MOVE.L   #$00000E80,-(A7)    
0000003E: 2F3C 0000 0E82  '/<....'        MOVE.L   #$00000E82,-(A7)    
00000044: 2F3C 0000 0E84  '/<....'        MOVE.L   #$00000E84,-(A7)    
0000004A: 4EAD 051A       'N...'          JSR      $051A(A5)           
0000004E: 3EBC 0001       '>...'          MOVE.W   #$0001,(A7)         
00000052: 2F2E 0008       '/...'          MOVE.L   $0008(A6),-(A7)     
00000056: 4EAD 024A       'N..J'          JSR      $024A(A5)           
0000005A: 2E80            '..'            MOVE.L   D0,(A7)             
0000005C: 4EAD 0542       'N..B'          JSR      $0542(A5)           
00000060: 4FEF 0014       'O...'          LEA      $0014(A7),A7        
00000064: 600C            '`.'            BRA.S    *+$000E             ; 00000072
00000066: 2F3C 0000 0EAC  '/<....'        MOVE.L   #$00000EAC,-(A7)    
0000006C: 4EAD 040A       'N...'          JSR      $040A(A5)           
00000070: 588F            'X.'            ADDQ.L   #$4,A7              
00000072: 4E5E            'N^'            UNLK     A6                  
00000074: 4E75            'Nu'            RTS                          
00000076: 8866            '.f'            OR.W     -(A6),D4            
00000078: 6972            'ir'            BVS.S    *+$0074             ; 000000EC
0000007A: 7374            'st'            DC.W     $7374               ; ????
0000007C: 6169            'ai'            BSR.S    *+$006B             ; 000000E7
0000007E: 6400 0000       'd...'          BCC      *+$0002             ; 00000080
                     

